BL51 BANKED LINKER/LOCATER V6.22                                                        09/05/2017  23:07:02  PAGE 1


BL51 BANKED LINKER/LOCATER V6.22, INVOKED BY:
C:\KEIL_V5\C51\BIN\BL51.EXE .\Out\Objects\main.obj, .\Out\Objects\app_key.obj, .\Out\Objects\app_work.obj, .\Out\Objects
>> \app_repeat_exe.obj, .\Out\Objects\app_2d4.obj, .\Out\Objects\app_lcd.obj, .\Out\Objects\bsp.obj, .\Out\Objects\bsp_k
>> ey.obj, .\Out\Objects\bsp_display.obj, .\Out\Objects\bsp_timer0.obj, .\Out\Objects\bsp_adc.obj, .\Out\Objects\bsp_key
>> Bright.obj, .\Out\Objects\bsp_lcdBright.obj, .\Out\Objects\bsp_2d4.obj, .\Out\Objects\Common.obj, .\Out\Objects\Delay
>> .obj, .\Out\Objects\Version.obj, .\Out\Objects\STARTUP.obj TO .\Out\Objects\project PRINT (.\Out\Listings\project.m51
>> ) RAMSIZE (256) DISABLEWARNING (16)


MEMORY MODEL: LARGE


INPUT MODULES INCLUDED:
  .\Out\Objects\main.obj (MAIN)
  .\Out\Objects\app_key.obj (APP_KEY)
  .\Out\Objects\app_work.obj (APP_WORK)
  .\Out\Objects\app_repeat_exe.obj (APP_REPEAT_EXE)
  .\Out\Objects\app_2d4.obj (APP_2D4)
  .\Out\Objects\app_lcd.obj (APP_LCD)
  .\Out\Objects\bsp.obj (BSP)
  .\Out\Objects\bsp_key.obj (BSP_KEY)
  .\Out\Objects\bsp_display.obj (BSP_DISPLAY)
  .\Out\Objects\bsp_timer0.obj (BSP_TIMER0)
  .\Out\Objects\bsp_adc.obj (BSP_ADC)
  .\Out\Objects\bsp_keyBright.obj (BSP_KEYBRIGHT)
  .\Out\Objects\bsp_lcdBright.obj (BSP_LCDBRIGHT)
  .\Out\Objects\bsp_2d4.obj (BSP_2D4)
  .\Out\Objects\Common.obj (COMMON)
  .\Out\Objects\Delay.obj (DELAY)
  .\Out\Objects\Version.obj (VERSION)
  .\Out\Objects\STARTUP.obj (?C_STARTUP)
  C:\KEIL_V5\C51\LIB\C51L.LIB (?C_INIT)
  C:\KEIL_V5\C51\LIB\C51L.LIB (?C?COPY)
  C:\KEIL_V5\C51\LIB\C51L.LIB (?C?CLDPTR)
  C:\KEIL_V5\C51\LIB\C51L.LIB (?C?CLDOPTR)
  C:\KEIL_V5\C51\LIB\C51L.LIB (?C?CILDOPTR)
  C:\KEIL_V5\C51\LIB\C51L.LIB (?C?CSTOPTR)
  C:\KEIL_V5\C51\LIB\C51L.LIB (?C?UIDIV)
  C:\KEIL_V5\C51\LIB\C51L.LIB (?C?IILDX)
  C:\KEIL_V5\C51\LIB\C51L.LIB (?C?ILDOPTR)
  C:\KEIL_V5\C51\LIB\C51L.LIB (?C?IILDOPTR)
  C:\KEIL_V5\C51\LIB\C51L.LIB (?C?ISTOPTR)
  C:\KEIL_V5\C51\LIB\C51L.LIB (?C?ULDIV)
  C:\KEIL_V5\C51\LIB\C51L.LIB (?C?ULCMP)
  C:\KEIL_V5\C51\LIB\C51L.LIB (?C?ULSHR)
  C:\KEIL_V5\C51\LIB\C51L.LIB (?C?LSTXDATA)
  C:\KEIL_V5\C51\LIB\C51L.LIB (?C?LSTKXDATA)
  C:\KEIL_V5\C51\LIB\C51L.LIB (?C?PLDPTR)
  C:\KEIL_V5\C51\LIB\C51L.LIB (?C?CCASE)
  C:\KEIL_V5\C51\LIB\C51L.LIB (?C?ICALL)
  C:\KEIL_V5\C51\LIB\C51L.LIB (?C_XBP)
  C:\KEIL_V5\C51\LIB\C51L.LIB (?C?ADDXBP)
  C:\KEIL_V5\C51\LIB\C51L.LIB (?C?XBPOFF)
  C:\KEIL_V5\C51\LIB\C51L.LIB (PRINTF)
  C:\KEIL_V5\C51\LIB\C51L.LIB (?C?STRCPY)
  C:\KEIL_V5\C51\LIB\C51L.LIB (STRLEN)
  C:\KEIL_V5\C51\LIB\C51L.LIB (?C?MEMSET)
  C:\KEIL_V5\C51\LIB\C51L.LIB (?C?CSTPTR)
BL51 BANKED LINKER/LOCATER V6.22                                                      09/05/2017  23:07:02  PAGE 2


  C:\KEIL_V5\C51\LIB\C51L.LIB (?C?PLDIDATA)
  C:\KEIL_V5\C51\LIB\C51L.LIB (?C?PLDXDATA)
  C:\KEIL_V5\C51\LIB\C51L.LIB (?C?PLDIXDATA)
  C:\KEIL_V5\C51\LIB\C51L.LIB (?C?PSTXDATA)
  C:\KEIL_V5\C51\LIB\C51L.LIB (?C?PLDPDATA)
  C:\KEIL_V5\C51\LIB\C51L.LIB (?C?PLDCODE)


LINK MAP OF MODULE:  .\Out\Objects\project (MAIN)


            TYPE    BASE      LENGTH    RELOCATION   SEGMENT NAME
            -----------------------------------------------------

            * * * * * * *   D A T A   M E M O R Y   * * * * * * *
            REG     0000H     0008H     ABSOLUTE     "REG BANK 0"
            DATA    0008H     0005H     UNIT         _DATA_GROUP_
            DATA    000DH     0002H     UNIT         ?C?LIB_DATA
            IDATA   000FH     0006H     UNIT         ?ID?APP_WORK
            IDATA   0015H     0005H     UNIT         ?ID?BSP_ADC
                    001AH     0006H                  *** GAP ***
            BIT     0020H.0   0001H.1   UNIT         _BIT_GROUP_
            BIT     0021H.1   0000H.1   UNIT         ?BI?BSP
                    0021H.2   0000H.6                *** GAP ***
            IDATA   0022H     007BH     UNIT         ?ID?BSP_KEY
            IDATA   009DH     0021H     UNIT         ?ID?APP_2D4
            IDATA   00BEH     0001H     UNIT         ?STACK

            * * * * * * *  X D A T A   M E M O R Y  * * * * * * *
            XDATA   0000H     0042H     UNIT         _XDATA_GROUP_
            XDATA   0042H     0013H     UNIT         ?XD?_RF_CARRIER?BSP_2D4
            XDATA   0055H     0012H     UNIT         ?XD?MAIN
            XDATA   0067H     0012H     UNIT         ?XD?APP_REPEAT_EXE
            XDATA   0079H     0010H     UNIT         ?XD?APP_2D4
            XDATA   0089H     0010H     UNIT         ?XD?APP_LCD
            XDATA   0099H     000BH     UNIT         ?XD?BSP_TIMER0
            XDATA   00A4H     0007H     UNIT         ?XD?BSP_KEY
            XDATA   00ABH     0005H     UNIT         ?XD?BSP_2D4
            XDATA   00B0H     0004H     UNIT         ?XD?_INITIALUART0_TIMER3_TYPE5?COMMON
            XDATA   00B4H     0004H     UNIT         ?XD?_INITIALUART0_TIMER3_TYPE6?COMMON
            XDATA   00B8H     0004H     UNIT         ?XD?_INITIALUART1_TIMER3?COMMON
            XDATA   00BCH     0004H     UNIT         ?XD?_TIMER0_DELAY1MS?DELAY
            XDATA   00C0H     0004H     UNIT         ?XD?_TIMER1_DELAY1MS?DELAY
            XDATA   00C4H     0004H     UNIT         ?XD?_TIMER3_DELAY1MS?DELAY
            XDATA   00C8H     0004H     UNIT         ?XD?_WAKEUP_TIMER_DELAY25MS?DELAY

            * * * * * * *   C O D E   M E M O R Y   * * * * * * *
            CODE    0000H     0003H     ABSOLUTE     
            CODE    0003H     0008H     UNIT         ?CO?APP_LCD
            CODE    000BH     0003H     ABSOLUTE     
            CODE    000EH     004DH     UNIT         ?PR?APP_2D4_PRO?APP_2D4
            CODE    005BH     0003H     ABSOLUTE     
            CODE    005EH     08FAH     UNIT         ?PR?_LCD_SHOWCHAR?BSP_DISPLAY
            CODE    0958H     0668H     UNIT         ?PR?_APP_2D4_RCV?APP_2D4
            CODE    0FC0H     05C8H     UNIT         ?C?LIB_CODE
            CODE    1588H     044FH     UNIT         ?PR?_APP_KEY_PRO?APP_KEY
            CODE    19D7H     0365H     UNIT         ?PR?PRINTF?PRINTF
BL51 BANKED LINKER/LOCATER V6.22                                                      09/05/2017  23:07:02  PAGE 3


            CODE    1D3CH     0154H     UNIT         ?PR?_BSP_DETECTKEY?BSP_KEY
            CODE    1E90H     0145H     UNIT         ?PR?_SYSTEM_CLOCK_SELECT?COMMON
            CODE    1FD5H     012EH     UNIT         ?PR?RF_INIT?BSP_2D4
            CODE    2103H     0112H     UNIT         ?CO?VERSION
            CODE    2215H     00E4H     UNIT         ?PR?_LCD_CLEAR_MI?BSP_DISPLAY
            CODE    22F9H     00E3H     UNIT         ?PR?_RF_CARRIER?BSP_2D4
            CODE    23DCH     00DFH     UNIT         ?CO?APP_2D4
            CODE    24BBH     00B5H     UNIT         ?PR?REPEAT_PRO?APP_REPEAT_EXE
            CODE    2570H     00B0H     UNIT         ?PR?BSP_INITKEYVAR?BSP_KEY
            CODE    2620H     00A2H     UNIT         ?PR?_LCD_SHOWSTRING?BSP_DISPLAY
            CODE    26C2H     009AH     UNIT         ?C_C51STARTUP
            CODE    275CH     008FH     UNIT         ?PR?MAIN?MAIN
            CODE    27EBH     0083H     UNIT         ?C_INITSEG
            CODE    286EH     0083H     UNIT         ?PR?_?RANDOM_DELAY?DELAY
            CODE    28F1H     0079H     UNIT         ?PR?TIMER0_ISR?BSP_TIMER0
            CODE    296AH     0067H     UNIT         ?PR?_ISKEYDOWN?BSP_KEY
            CODE    29D1H     0063H     UNIT         ?PR?_INITIALUART0_TIMER3_TYPE5?COMMON
            CODE    2A34H     0063H     UNIT         ?PR?_INITIALUART0_TIMER3_TYPE6?COMMON
            CODE    2A97H     0061H     UNIT         ?PR?_WAKEUP_TIMER_DELAY25MS?DELAY
            CODE    2AF8H     005FH     UNIT         ?PR?SHOW_FW_VERSION_NUMBER_TO_PC?VERSION
            CODE    2B57H     005DH     UNIT         ?PR?_INITIALUART1_TIMER3?COMMON
            CODE    2BB4H     005CH     UNIT         ?PR?ADC_ISR?MAIN
            CODE    2C10H     005BH     UNIT         ?PR?_TIMER3_DELAY1MS?DELAY
            CODE    2C6BH     0059H     UNIT         ?PR?_TIMER0_DELAY1MS?DELAY
            CODE    2CC4H     0059H     UNIT         ?PR?_TIMER1_DELAY1MS?DELAY
            CODE    2D1DH     0051H     UNIT         ?PR?_APP_2D4_SEND?APP_2D4
            CODE    2D6EH     0043H     UNIT         ?PR?_RF_WRITEBUF?BSP_2D4
            CODE    2DB1H     0043H     UNIT         ?PR?_RF_TXDATA?BSP_2D4
            CODE    2DF4H     003FH     UNIT         ?PR?_RF_READBUF?BSP_2D4
            CODE    2E33H     003DH     UNIT         ?PR?VOL_RESP?APP_2D4
            CODE    2E70H     003DH     UNIT         ?PR?_PUTCHAR?COMMON
            CODE    2EADH     0036H     UNIT         ?PR?LCD_DISPLAY_INITHARD?BSP_DISPLAY
            CODE    2EE3H     0033H     UNIT         ?PR?ADC_INIT?BSP_ADC
            CODE    2F16H     0032H     UNIT         ?PR?_REPEAT_START?APP_REPEAT_EXE
            CODE    2F48H     0032H     UNIT         ?PR?USB_TRACK_SHOW_LCD_RESP?APP_2D4
            CODE    2F7AH     0030H     UNIT         ?PR?FM_STATION_SHOW_LCD_RESP?APP_2D4
            CODE    2FAAH     002AH     UNIT         ?PR?_INITIALUART0_TIMER1_TYPE3?COMMON
            CODE    2FD4H     002AH     UNIT         ?PR?_INITIALUART0_TIMER1_TYPE4?COMMON
            CODE    2FFEH     0029H     UNIT         ?PR?_UCRF_DUMPRXDATA?BSP_2D4
            CODE    3027H     0029H     UNIT         ?PR?_INITIALUART0_TIMER1_TYPE1?COMMON
            CODE    3050H     0028H     UNIT         ?PR?_INITIALUART0_TIMER1_TYPE2?COMMON
            CODE    3078H     0026H     UNIT         ?PR?TIMER0_PARAMINIT?BSP_TIMER0
            CODE    309EH     0026H     UNIT         ?PR?RF_RXMODE?BSP_2D4
            CODE    30C4H     0025H     UNIT         ?PR?APP_2D4_INIT?APP_2D4
            CODE    30E9H     0024H     UNIT         ?PR?_BSP_SETKEYPARAM?BSP_KEY
            CODE    310DH     0024H     UNIT         ?CO?BSP_2D4
            CODE    3131H     0023H     UNIT         ?PR?TIMER0_INITHARD?BSP_TIMER0
            CODE    3154H     0023H     UNIT         ?PR?_SPI_WR?BSP_2D4
            CODE    3177H     0021H     UNIT         ?PR?_APP_LCD_DEFAULT_STRING_SET?APP_LCD
            CODE    3198H     0021H     UNIT         ?PR?ADC_START?BSP_ADC
            CODE    31B9H     0021H     UNIT         ?PR?_DELAY10US?DELAY
            CODE    31DAH     0020H     UNIT         ?PR?SET_ALL_GPIO_INPUT_MODE?COMMON
            CODE    31FAH     001DH     UNIT         ?PR?_SPI_WW?BSP_2D4
            CODE    3217H     001CH     UNIT         ?PR?BSP_GETKEY?BSP_KEY
            CODE    3233H     001CH     UNIT         ?PR?BSP_GETKEY2?BSP_KEY
            CODE    324FH     001BH     UNIT         ?PR?BSP_INIT?BSP
            CODE    326AH     001BH     UNIT         ?PR?BSP_KEYSCAN?BSP_KEY
BL51 BANKED LINKER/LOCATER V6.22                                                      09/05/2017  23:07:02  PAGE 4


            CODE    3285H     001AH     UNIT         ?PR?SET_ALL_GPIO_QUASI_MODE?COMMON
            CODE    329FH     001AH     UNIT         ?PR?SW_RESET?COMMON
            CODE    32B9H     0019H     UNIT         ?PR?UCSPI_READ?BSP_2D4
            CODE    32D2H     0018H     UNIT         ?PR?APP_LCD_INIT?APP_LCD
            CODE    32EAH     0016H     UNIT         ?PR?SPEAKER_STATUS_RESP?APP_2D4
            CODE    3300H     0016H     UNIT         ?PR?RELAY_STATUS_RESP?APP_2D4
            CODE    3316H     0015H     UNIT         ?PR?_STRLEN?STRLEN
            CODE    332BH     0014H     UNIT         ?PR?REPEAT_STOP?APP_REPEAT_EXE
            CODE    333FH     0014H     UNIT         ?PR?_BSP_PUTKEY?BSP_KEY
            CODE    3353H     0013H     UNIT         ?PR?WIRELESS2D4_INITHARD?BSP_2D4
            CODE    3366H     0013H     UNIT         ?PR?_RF_WRITEREG?BSP_2D4
            CODE    3379H     0013H     UNIT         ?PR?_UCRF_READREG?BSP_2D4
            CODE    338CH     0012H     UNIT         ?PR?FM_SCANNING_SHOW_LCD_RESP?APP_2D4
            CODE    339EH     0012H     UNIT         ?PR?ISKEYDOWN_1AND6?BSP_KEY
            CODE    33B0H     0010H     UNIT         ?PR?REPEAT_START_EXE?APP_REPEAT_EXE
            CODE    33C0H     0010H     UNIT         ?PR?REPEAT_STOP_EXE?APP_REPEAT_EXE
            CODE    33D0H     000FH     UNIT         ?PR?CLEAR_LCD_RESP?APP_2D4
            CODE    33DFH     000FH     UNIT         ?PR?USB_PAUSE_SHOW_LCD_RESP?APP_2D4
            CODE    33EEH     000FH     UNIT         ?PR?BT_NEXT_SHOW_LCD_RESP?APP_2D4
            CODE    33FDH     000FH     UNIT         ?PR?BT_PREV_SHOW_LCD_RESP?APP_2D4
            CODE    340CH     000FH     UNIT         ?PR?APP_LCD_PRO?APP_LCD
            CODE    341BH     000FH     UNIT         ?PR?ISKEYDOWN2?BSP_KEY
            CODE    342AH     000FH     UNIT         ?PR?ISKEYDOWN3?BSP_KEY
            CODE    3439H     000FH     UNIT         ?PR?ISKEYDOWN4?BSP_KEY
            CODE    3448H     000FH     UNIT         ?PR?ISKEYDOWN8?BSP_KEY
            CODE    3457H     000FH     UNIT         ?PR?ISKEYDOWN9?BSP_KEY
            CODE    3466H     000FH     UNIT         ?PR?RF_TXMODE?BSP_2D4
            CODE    3475H     000EH     UNIT         ?PR?ISKEYDOWN5?BSP_KEY
            CODE    3483H     000EH     UNIT         ?PR?_RF_SETCHANNEL?BSP_2D4
            CODE    3491H     000DH     UNIT         ?PR?LCD_CLEAR_ALL?BSP_DISPLAY
            CODE    349EH     000DH     UNIT         ?PR?LCD_CLEAR_MI_ALL?BSP_DISPLAY
            CODE    34ABH     000CH     UNIT         ?PR?_REPEAT_SETSTART?APP_REPEAT_EXE
            CODE    34B7H     000CH     UNIT         ?PR?_REPEAT_SETSTOP?APP_REPEAT_EXE
            CODE    34C3H     000CH     UNIT         ?PR?RF_CLEARFIFO?BSP_2D4
            CODE    34CFH     000BH     UNIT         ?PR?_BSP_GETKEYSTATE?BSP_KEY
            CODE    34DAH     000AH     UNIT         ?PR?APP_REPEAT_ISENABLE?APP_REPEAT_EXE
            CODE    34E4H     000AH     UNIT         ?PR?UCRF_GETSTATUS?BSP_2D4
            CODE    34EEH     0009H     UNIT         ?PR?BT_PAUSE_SHOW_LCD_RESP?APP_2D4
            CODE    34F7H     0009H     UNIT         ?PR?BT_PLAY_SHOW_LCD_RESP?APP_2D4
            CODE    3500H     0009H     UNIT         ?PR?AUX_MUTE_SHOW_LCD_RESP?APP_2D4
            CODE    3509H     0009H     UNIT         ?PR?AUX_PLAY_SHOW_LCD_RESP?APP_2D4
            CODE    3512H     0009H     UNIT         ?PR?ISKEYDOWN1?BSP_KEY
            CODE    351BH     0009H     UNIT         ?PR?KEY_BRIGHT_INITHARD?BSP_KEYBRIGHT
            CODE    3524H     0009H     UNIT         ?PR?LCD_BRIGHT_INITHARD?BSP_LCDBRIGHT
            CODE    352DH     0008H     UNIT         ?PR?RECEIVE_DATA_FROM_UART0?COMMON
            CODE    3535H     0008H     UNIT         ?PR?_SEND_DATA_TO_UART0?COMMON
            CODE    353DH     0008H     UNIT         ?PR?RECEIVE_DATA_FROM_UART1?COMMON
            CODE    3545H     0008H     UNIT         ?PR?_SEND_DATA_TO_UART1?COMMON
            CODE    354DH     0007H     UNIT         ?CO?MAIN
            CODE    3554H     0007H     UNIT         ?PR?BSP_INITKEYHARD?BSP_KEY
            CODE    355BH     0007H     UNIT         ?PR?LCD_CLEAR_LED_ICO?BSP_DISPLAY
            CODE    3562H     0007H     UNIT         ?PR?LCD_SHOW_LED_ICO?BSP_DISPLAY
            CODE    3569H     0007H     UNIT         ?PR?LCD_CLEAR_FM_ICO?BSP_DISPLAY
            CODE    3570H     0007H     UNIT         ?PR?LCD_SHOW_FM_ICO?BSP_DISPLAY
            CODE    3577H     0007H     UNIT         ?PR?LCD_CLEAR_BLUETOOTH_ICO?BSP_DISPLAY
            CODE    357EH     0007H     UNIT         ?PR?LCD_SHOW_BLUETOOTH_ICO?BSP_DISPLAY
            CODE    3585H     0007H     UNIT         ?PR?LCD_CLEAR_AUX_ICO?BSP_DISPLAY
BL51 BANKED LINKER/LOCATER V6.22                                                      09/05/2017  23:07:02  PAGE 5


            CODE    358CH     0007H     UNIT         ?PR?LCD_SHOW_AUX_ICO?BSP_DISPLAY
            CODE    3593H     0007H     UNIT         ?PR?LCD_CLEAR_USB_ICO?BSP_DISPLAY
            CODE    359AH     0007H     UNIT         ?PR?LCD_SHOW_USB_ICO?BSP_DISPLAY
            CODE    35A1H     0007H     UNIT         ?PR?LCD_CLEAR_MHZ_ICO?BSP_DISPLAY
            CODE    35A8H     0007H     UNIT         ?PR?LCD_SHOW_MHZ_ICO?BSP_DISPLAY
            CODE    35AFH     0007H     UNIT         ?PR?LCD_CLEAR_BAZOOKA_ICO?BSP_DISPLAY
            CODE    35B6H     0007H     UNIT         ?PR?LCD_SHOW_BAZOOKA_ICO?BSP_DISPLAY
            CODE    35BDH     0007H     UNIT         ?PR?LCD_CLEAR_UPCOLON_ICO?BSP_DISPLAY
            CODE    35C4H     0007H     UNIT         ?PR?LCD_SHOW_UPCOLON_ICO?BSP_DISPLAY
            CODE    35CBH     0007H     UNIT         ?PR?LCD_CLEAR_DOWNCOLON_ICO?BSP_DISPLAY
            CODE    35D2H     0007H     UNIT         ?PR?LCD_SHOW_DOWNCOLON_ICO?BSP_DISPLAY
            CODE    35D9H     0007H     UNIT         ?PR?RF_CLEARSTATUS?BSP_2D4
            CODE    35E0H     0006H     UNIT         ?PR?ISKEYDOWN6?BSP_KEY
            CODE    35E6H     0006H     UNIT         ?PR?ISKEYDOWN7?BSP_KEY
            CODE    35ECH     0006H     UNIT         ?PR?BSP_INITKEY?BSP_KEY
            CODE    35F2H     0006H     UNIT         ?PR?BSP_CLEARKEY?BSP_KEY
            CODE    35F8H     0006H     UNIT         ?PR?LCD_CLEAR_COLON_ICO?BSP_DISPLAY
            CODE    35FEH     0006H     UNIT         ?PR?LCD_SHOW_COLON_ICO?BSP_DISPLAY
            CODE    3604H     0006H     UNIT         ?PR?UCRF_GETRSSI?BSP_2D4
            CODE    360AH     0004H     UNIT         ?PR?FSYS_CLOCK_OUTPUT_ON_P26?COMMON
            CODE    360EH     0003H     UNIT         ?PR?APP_WORK_INIT?APP_WORK
            CODE    3611H     0003H     UNIT         ?PR?KEY_BRIGHT_OFF?BSP_KEYBRIGHT
            CODE    3614H     0003H     UNIT         ?PR?KEY_BRIGHT_ON?BSP_KEYBRIGHT
            CODE    3617H     0003H     UNIT         ?PR?KEY_BRIGHT_TOGGLE?BSP_KEYBRIGHT
            CODE    361AH     0003H     UNIT         ?PR?LCD_BRIGHT_OFF?BSP_LCDBRIGHT
            CODE    361DH     0003H     UNIT         ?PR?LCD_BRIGHT_ON?BSP_LCDBRIGHT
            CODE    3620H     0001H     UNIT         ?PR?APP_WORK_1S_PRO?APP_WORK
            CODE    3621H     0001H     UNIT         ?PR?APP_WORK_100MS_PRO?APP_WORK
            CODE    3622H     0001H     UNIT         ?PR?APP_WORK_PRO?APP_WORK
            CODE    3623H     0001H     UNIT         ?PR?SPI_INIT?BSP_2D4



OVERLAY MAP OF MODULE:   .\Out\Objects\project (MAIN)


SEGMENT                                             BIT_GROUP          DATA_GROUP          XDATA_GROUP
  +--> CALLED SEGMENT                            START    LENGTH     START    LENGTH     START    LENGTH
--------------------------------------------------------------------------------------------------------
?C_C51STARTUP                                    -----    -----      -----    -----      -----    -----
  +--> ?PR?MAIN?MAIN
  +--> ?C_INITSEG

?PR?MAIN?MAIN                                    -----    -----      -----    -----      0000H    0002H
  +--> ?PR?_SYSTEM_CLOCK_SELECT?COMMON
  +--> ?PR?BSP_INIT?BSP
  +--> ?PR?APP_2D4_INIT?APP_2D4
  +--> ?PR?APP_LCD_INIT?APP_LCD
  +--> ?PR?APP_WORK_INIT?APP_WORK
  +--> ?PR?ADC_START?BSP_ADC
  +--> ?PR?BSP_KEYSCAN?BSP_KEY
  +--> ?PR?REPEAT_PRO?APP_REPEAT_EXE
  +--> ?PR?APP_LCD_PRO?APP_LCD
  +--> ?CO?MAIN
  +--> ?PR?PRINTF?PRINTF
  +--> ?PR?APP_2D4_PRO?APP_2D4
  +--> ?PR?BSP_GETKEY?BSP_KEY
BL51 BANKED LINKER/LOCATER V6.22                                                      09/05/2017  23:07:02  PAGE 6


  +--> ?PR?_APP_KEY_PRO?APP_KEY

?PR?BSP_INIT?BSP                                 -----    -----      -----    -----      -----    -----
  +--> ?PR?SET_ALL_GPIO_INPUT_MODE?COMMON
  +--> ?PR?LCD_DISPLAY_INITHARD?BSP_DISPLAY
  +--> ?PR?ADC_INIT?BSP_ADC
  +--> ?PR?BSP_INITKEY?BSP_KEY
  +--> ?PR?KEY_BRIGHT_INITHARD?BSP_KEYBRIGHT
  +--> ?PR?TIMER0_INITHARD?BSP_TIMER0
  +--> ?PR?WIRELESS2D4_INITHARD?BSP_2D4
  +--> ?PR?LCD_BRIGHT_INITHARD?BSP_LCDBRIGHT

?PR?LCD_DISPLAY_INITHARD?BSP_DISPLAY             -----    -----      -----    -----      -----    -----
  +--> ?PR?LCD_CLEAR_ALL?BSP_DISPLAY

?PR?BSP_INITKEY?BSP_KEY                          -----    -----      -----    -----      -----    -----
  +--> ?PR?BSP_INITKEYVAR?BSP_KEY
  +--> ?PR?BSP_INITKEYHARD?BSP_KEY

?PR?BSP_INITKEYVAR?BSP_KEY                       -----    -----      -----    -----      -----    -----
  +--> ?PR?ISKEYDOWN1?BSP_KEY
  +--> ?PR?ISKEYDOWN2?BSP_KEY
  +--> ?PR?ISKEYDOWN3?BSP_KEY
  +--> ?PR?ISKEYDOWN4?BSP_KEY
  +--> ?PR?ISKEYDOWN5?BSP_KEY
  +--> ?PR?ISKEYDOWN6?BSP_KEY
  +--> ?PR?ISKEYDOWN7?BSP_KEY
  +--> ?PR?ISKEYDOWN8?BSP_KEY
  +--> ?PR?ISKEYDOWN9?BSP_KEY
  +--> ?PR?ISKEYDOWN_1AND6?BSP_KEY

?PR?ISKEYDOWN2?BSP_KEY                           -----    -----      -----    -----      -----    -----
  +--> ?PR?_ISKEYDOWN?BSP_KEY

?PR?ISKEYDOWN3?BSP_KEY                           -----    -----      -----    -----      -----    -----
  +--> ?PR?_ISKEYDOWN?BSP_KEY

?PR?ISKEYDOWN4?BSP_KEY                           -----    -----      -----    -----      -----    -----
  +--> ?PR?_ISKEYDOWN?BSP_KEY

?PR?ISKEYDOWN5?BSP_KEY                           -----    -----      -----    -----      -----    -----
  +--> ?PR?_ISKEYDOWN?BSP_KEY

?PR?ISKEYDOWN6?BSP_KEY                           -----    -----      -----    -----      -----    -----
  +--> ?PR?_ISKEYDOWN?BSP_KEY

?PR?ISKEYDOWN7?BSP_KEY                           -----    -----      -----    -----      -----    -----
  +--> ?PR?_ISKEYDOWN?BSP_KEY

?PR?ISKEYDOWN8?BSP_KEY                           -----    -----      -----    -----      -----    -----
  +--> ?PR?_ISKEYDOWN?BSP_KEY

?PR?ISKEYDOWN9?BSP_KEY                           -----    -----      -----    -----      -----    -----
  +--> ?PR?_ISKEYDOWN?BSP_KEY

?PR?ISKEYDOWN_1AND6?BSP_KEY                      -----    -----      -----    -----      -----    -----
  +--> ?PR?ISKEYDOWN1?BSP_KEY
BL51 BANKED LINKER/LOCATER V6.22                                                      09/05/2017  23:07:02  PAGE 7


  +--> ?PR?ISKEYDOWN6?BSP_KEY

?PR?KEY_BRIGHT_INITHARD?BSP_KEYBRIGHT            -----    -----      -----    -----      -----    -----
  +--> ?PR?KEY_BRIGHT_OFF?BSP_KEYBRIGHT

?PR?TIMER0_INITHARD?BSP_TIMER0                   -----    -----      -----    -----      -----    -----
  +--> ?PR?TIMER0_PARAMINIT?BSP_TIMER0

?PR?LCD_BRIGHT_INITHARD?BSP_LCDBRIGHT            -----    -----      -----    -----      -----    -----
  +--> ?PR?LCD_BRIGHT_ON?BSP_LCDBRIGHT

?PR?APP_2D4_INIT?APP_2D4                         -----    -----      -----    -----      -----    -----
  +--> ?PR?RF_INIT?BSP_2D4
  +--> ?PR?RF_RXMODE?BSP_2D4

?PR?RF_INIT?BSP_2D4                              -----    -----      -----    -----      0002H    0012H
  +--> ?CO?BSP_2D4
  +--> ?PR?SPI_INIT?BSP_2D4
  +--> ?PR?_RF_WRITEREG?BSP_2D4
  +--> ?PR?_RF_WRITEBUF?BSP_2D4

?PR?_RF_WRITEREG?BSP_2D4                         -----    -----      -----    -----      -----    -----
  +--> ?PR?_SPI_WW?BSP_2D4

?PR?_RF_WRITEBUF?BSP_2D4                         -----    -----      -----    -----      0014H    0005H
  +--> ?PR?_SPI_WW?BSP_2D4

?PR?RF_RXMODE?BSP_2D4                            -----    -----      -----    -----      -----    -----
  +--> ?PR?_RF_WRITEREG?BSP_2D4

?PR?APP_LCD_INIT?APP_LCD                         -----    -----      -----    -----      -----    -----
  +--> ?CO?APP_LCD
  +--> ?PR?_STRLEN?STRLEN

?PR?APP_WORK_INIT?APP_WORK                       -----    -----      -----    -----      -----    -----
  +--> ?PR?LCD_SHOW_BAZOOKA_ICO?BSP_DISPLAY

?PR?BSP_KEYSCAN?BSP_KEY                          -----    -----      -----    -----      0002H    0001H
  +--> ?PR?_BSP_DETECTKEY?BSP_KEY

?PR?_BSP_DETECTKEY?BSP_KEY                       -----    -----      -----    -----      0003H    0001H
  +--> ?PR?_BSP_PUTKEY?BSP_KEY

?PR?REPEAT_PRO?APP_REPEAT_EXE                    -----    -----      -----    -----      -----    -----
  +--> ?PR?REPEAT_STOP_EXE?APP_REPEAT_EXE
  +--> ?PR?REPEAT_START_EXE?APP_REPEAT_EXE

?PR?APP_LCD_PRO?APP_LCD                          -----    -----      -----    -----      -----    -----
  +--> ?PR?APP_REPEAT_ISENABLE?APP_REPEAT_EXE
  +--> ?PR?_LCD_SHOWSTRING?BSP_DISPLAY

?PR?_LCD_SHOWSTRING?BSP_DISPLAY                  0020H.0  0000H.1    -----    -----      001AH    0004H
  +--> ?PR?_STRLEN?STRLEN
  +--> ?PR?_LCD_SHOWCHAR?BSP_DISPLAY

?PR?_LCD_SHOWCHAR?BSP_DISPLAY                    -----    -----      -----    -----      -----    -----
  +--> ?PR?_LCD_CLEAR_MI?BSP_DISPLAY
BL51 BANKED LINKER/LOCATER V6.22                                                      09/05/2017  23:07:02  PAGE 8



?PR?PRINTF?PRINTF                                0020H.0  0001H.1    0008H    0005H      001AH    0028H
  +--> ?PR?_PUTCHAR?COMMON

?PR?APP_2D4_PRO?APP_2D4                          -----    -----      -----    -----      -----    -----
  +--> ?PR?UCRF_GETSTATUS?BSP_2D4
  +--> ?PR?RF_CLEARFIFO?BSP_2D4
  +--> ?PR?RF_CLEARSTATUS?BSP_2D4
  +--> ?PR?RF_RXMODE?BSP_2D4
  +--> ?PR?_RF_TXDATA?BSP_2D4
  +--> ?PR?_UCRF_DUMPRXDATA?BSP_2D4
  +--> ?PR?_APP_2D4_RCV?APP_2D4

?PR?UCRF_GETSTATUS?BSP_2D4                       -----    -----      -----    -----      -----    -----
  +--> ?PR?_UCRF_READREG?BSP_2D4

?PR?_UCRF_READREG?BSP_2D4                        -----    -----      -----    -----      -----    -----
  +--> ?PR?_SPI_WR?BSP_2D4
  +--> ?PR?UCSPI_READ?BSP_2D4

?PR?RF_CLEARFIFO?BSP_2D4                         -----    -----      -----    -----      -----    -----
  +--> ?PR?_RF_WRITEREG?BSP_2D4

?PR?RF_CLEARSTATUS?BSP_2D4                       -----    -----      -----    -----      -----    -----
  +--> ?PR?_RF_WRITEREG?BSP_2D4

?PR?_RF_TXDATA?BSP_2D4                           -----    -----      -----    -----      0002H    0002H
  +--> ?PR?UCRF_GETSTATUS?BSP_2D4
  +--> ?PR?_RF_WRITEBUF?BSP_2D4
  +--> ?PR?_RF_WRITEREG?BSP_2D4

?PR?_UCRF_DUMPRXDATA?BSP_2D4                     -----    -----      -----    -----      -----    -----
  +--> ?PR?UCRF_GETSTATUS?BSP_2D4
  +--> ?PR?_RF_WRITEREG?BSP_2D4
  +--> ?PR?_RF_READBUF?BSP_2D4
  +--> ?PR?RF_CLEARFIFO?BSP_2D4
  +--> ?PR?RF_CLEARSTATUS?BSP_2D4

?PR?_RF_READBUF?BSP_2D4                          -----    -----      -----    -----      0002H    0005H
  +--> ?PR?_SPI_WR?BSP_2D4
  +--> ?PR?UCSPI_READ?BSP_2D4

?PR?_APP_2D4_RCV?APP_2D4                         -----    -----      -----    -----      0002H    0008H
  +--> ?PR?KEY_BRIGHT_TOGGLE?BSP_KEYBRIGHT
  +--> ?PR?SPEAKER_STATUS_RESP?APP_2D4
  +--> ?PR?RELAY_STATUS_RESP?APP_2D4
  +--> ?PR?BT_PREV_SHOW_LCD_RESP?APP_2D4
  +--> ?PR?FM_STATION_SHOW_LCD_RESP?APP_2D4
  +--> ?PR?USB_TRACK_SHOW_LCD_RESP?APP_2D4
  +--> ?PR?BT_NEXT_SHOW_LCD_RESP?APP_2D4
  +--> ?PR?VOL_RESP?APP_2D4
  +--> ?PR?BT_PLAY_SHOW_LCD_RESP?APP_2D4
  +--> ?PR?_REPEAT_SETSTART?APP_REPEAT_EXE
  +--> ?PR?_REPEAT_SETSTOP?APP_REPEAT_EXE
  +--> ?PR?BT_PAUSE_SHOW_LCD_RESP?APP_2D4
  +--> ?PR?CLEAR_LCD_RESP?APP_2D4
  +--> ?PR?FM_SCANNING_SHOW_LCD_RESP?APP_2D4
BL51 BANKED LINKER/LOCATER V6.22                                                      09/05/2017  23:07:02  PAGE 9


  +--> ?PR?AUX_PLAY_SHOW_LCD_RESP?APP_2D4
  +--> ?PR?AUX_MUTE_SHOW_LCD_RESP?APP_2D4
  +--> ?PR?USB_PAUSE_SHOW_LCD_RESP?APP_2D4
  +--> ?PR?_REPEAT_START?APP_REPEAT_EXE
  +--> ?PR?LCD_CLEAR_MHZ_ICO?BSP_DISPLAY
  +--> ?PR?LCD_CLEAR_UPCOLON_ICO?BSP_DISPLAY
  +--> ?PR?LCD_CLEAR_DOWNCOLON_ICO?BSP_DISPLAY
  +--> ?PR?LCD_CLEAR_BLUETOOTH_ICO?BSP_DISPLAY
  +--> ?PR?LCD_CLEAR_FM_ICO?BSP_DISPLAY
  +--> ?PR?LCD_CLEAR_AUX_ICO?BSP_DISPLAY
  +--> ?PR?LCD_CLEAR_USB_ICO?BSP_DISPLAY
  +--> ?PR?LCD_SHOW_BLUETOOTH_ICO?BSP_DISPLAY
  +--> ?CO?APP_2D4
  +--> ?PR?LCD_SHOW_FM_ICO?BSP_DISPLAY
  +--> ?PR?LCD_SHOW_MHZ_ICO?BSP_DISPLAY
  +--> ?PR?PRINTF?PRINTF
  +--> ?PR?LCD_SHOW_AUX_ICO?BSP_DISPLAY
  +--> ?PR?LCD_SHOW_USB_ICO?BSP_DISPLAY
  +--> ?PR?_STRLEN?STRLEN
  +--> ?PR?_APP_LCD_DEFAULT_STRING_SET?APP_LCD

?PR?SPEAKER_STATUS_RESP?APP_2D4                  -----    -----      -----    -----      -----    -----
  +--> ?CO?APP_2D4
  +--> ?PR?_LCD_SHOWSTRING?BSP_DISPLAY

?PR?RELAY_STATUS_RESP?APP_2D4                    -----    -----      -----    -----      -----    -----
  +--> ?CO?APP_2D4
  +--> ?PR?_LCD_SHOWSTRING?BSP_DISPLAY

?PR?BT_PREV_SHOW_LCD_RESP?APP_2D4                -----    -----      -----    -----      -----    -----
  +--> ?CO?APP_2D4
  +--> ?PR?_LCD_SHOWSTRING?BSP_DISPLAY
  +--> ?PR?LCD_CLEAR_UPCOLON_ICO?BSP_DISPLAY
  +--> ?PR?LCD_CLEAR_DOWNCOLON_ICO?BSP_DISPLAY

?PR?FM_STATION_SHOW_LCD_RESP?APP_2D4             -----    -----      -----    -----      -----    -----
  +--> ?CO?APP_2D4
  +--> ?PR?PRINTF?PRINTF
  +--> ?PR?_LCD_SHOWSTRING?BSP_DISPLAY
  +--> ?PR?LCD_CLEAR_UPCOLON_ICO?BSP_DISPLAY
  +--> ?PR?LCD_SHOW_DOWNCOLON_ICO?BSP_DISPLAY

?PR?USB_TRACK_SHOW_LCD_RESP?APP_2D4              -----    -----      -----    -----      -----    -----
  +--> ?CO?APP_2D4
  +--> ?PR?PRINTF?PRINTF
  +--> ?PR?_LCD_SHOWSTRING?BSP_DISPLAY
  +--> ?PR?LCD_CLEAR_UPCOLON_ICO?BSP_DISPLAY
  +--> ?PR?LCD_CLEAR_DOWNCOLON_ICO?BSP_DISPLAY

?PR?BT_NEXT_SHOW_LCD_RESP?APP_2D4                -----    -----      -----    -----      -----    -----
  +--> ?CO?APP_2D4
  +--> ?PR?_LCD_SHOWSTRING?BSP_DISPLAY
  +--> ?PR?LCD_CLEAR_UPCOLON_ICO?BSP_DISPLAY
  +--> ?PR?LCD_CLEAR_DOWNCOLON_ICO?BSP_DISPLAY

?PR?VOL_RESP?APP_2D4                             -----    -----      -----    -----      000AH    0010H
  +--> ?CO?APP_2D4
BL51 BANKED LINKER/LOCATER V6.22                                                      09/05/2017  23:07:02  PAGE 10


  +--> ?PR?PRINTF?PRINTF
  +--> ?PR?_LCD_SHOWSTRING?BSP_DISPLAY

?PR?BT_PLAY_SHOW_LCD_RESP?APP_2D4                -----    -----      -----    -----      -----    -----
  +--> ?CO?APP_2D4
  +--> ?PR?_LCD_SHOWSTRING?BSP_DISPLAY

?PR?BT_PAUSE_SHOW_LCD_RESP?APP_2D4               -----    -----      -----    -----      -----    -----
  +--> ?CO?APP_2D4
  +--> ?PR?_LCD_SHOWSTRING?BSP_DISPLAY

?PR?CLEAR_LCD_RESP?APP_2D4                       -----    -----      -----    -----      -----    -----
  +--> ?CO?APP_2D4
  +--> ?PR?_LCD_SHOWSTRING?BSP_DISPLAY
  +--> ?PR?LCD_CLEAR_UPCOLON_ICO?BSP_DISPLAY
  +--> ?PR?LCD_CLEAR_DOWNCOLON_ICO?BSP_DISPLAY

?PR?FM_SCANNING_SHOW_LCD_RESP?APP_2D4            -----    -----      -----    -----      -----    -----
  +--> ?CO?APP_2D4
  +--> ?PR?_LCD_SHOWSTRING?BSP_DISPLAY
  +--> ?PR?LCD_CLEAR_UPCOLON_ICO?BSP_DISPLAY
  +--> ?PR?LCD_CLEAR_DOWNCOLON_ICO?BSP_DISPLAY
  +--> ?PR?LCD_CLEAR_MHZ_ICO?BSP_DISPLAY

?PR?AUX_PLAY_SHOW_LCD_RESP?APP_2D4               -----    -----      -----    -----      -----    -----
  +--> ?CO?APP_2D4
  +--> ?PR?_LCD_SHOWSTRING?BSP_DISPLAY

?PR?AUX_MUTE_SHOW_LCD_RESP?APP_2D4               -----    -----      -----    -----      -----    -----
  +--> ?CO?APP_2D4
  +--> ?PR?_LCD_SHOWSTRING?BSP_DISPLAY

?PR?USB_PAUSE_SHOW_LCD_RESP?APP_2D4              -----    -----      -----    -----      -----    -----
  +--> ?CO?APP_2D4
  +--> ?PR?_LCD_SHOWSTRING?BSP_DISPLAY
  +--> ?PR?LCD_CLEAR_UPCOLON_ICO?BSP_DISPLAY
  +--> ?PR?LCD_CLEAR_DOWNCOLON_ICO?BSP_DISPLAY

?PR?_REPEAT_START?APP_REPEAT_EXE                 -----    -----      -----    -----      -----    -----
  +--> ?PR?REPEAT_START_EXE?APP_REPEAT_EXE

?PR?_APP_LCD_DEFAULT_STRING_SET?APP_LCD          -----    -----      -----    -----      000AH    0001H

?PR?_APP_KEY_PRO?APP_KEY                         -----    -----      -----    -----      0002H    0003H
  +--> ?PR?_APP_2D4_SEND?APP_2D4

?PR?_APP_2D4_SEND?APP_2D4                        -----    -----      -----    -----      0005H    0004H
  +--> ?PR?RF_TXMODE?BSP_2D4

?PR?RF_TXMODE?BSP_2D4                            -----    -----      -----    -----      -----    -----
  +--> ?PR?_RF_WRITEREG?BSP_2D4



SYMBOL TABLE OF MODULE:  .\Out\Objects\project (MAIN)

  VALUE           TYPE          NAME
BL51 BANKED LINKER/LOCATER V6.22                                                      09/05/2017  23:07:02  PAGE 11


  ----------------------------------

  -------         MODULE        MAIN
  C:0000H         SYMBOL        _ICE_DUMMY_
  D:0080H         PUBLIC        P0
  D:0090H         PUBLIC        P1
  D:00A0H         PUBLIC        P2
  D:00B0H         PUBLIC        P3
  D:00D8H         PUBLIC        P5
  D:00A8H         PUBLIC        IE
  B:00E8H.7       PUBLIC        ADCF
  C:2BB4H         PUBLIC        ADC_ISR
  D:00B8H         PUBLIC        IP
  C:275CH         PUBLIC        main
  D:0098H         PUBLIC        SCON
  D:0088H         PUBLIC        TCON
  D:00F8H         PUBLIC        SCON_1
  D:00E8H         PUBLIC        ADCCON0
  D:00C0H         PUBLIC        I2CON
  D:00C3H         PUBLIC        ADCRH
  X:0057H         SYMBOL        ss
  D:00C8H         PUBLIC        T2CON
  D:00C2H         PUBLIC        ADCRL
  D:00D0H         PUBLIC        PSW
  -------         PROC          ADC_ISR
  C:2BB4H         LINE#         8
  C:2BC5H         LINE#         9
  C:2BC5H         LINE#         11
  C:2BC7H         LINE#         13
  C:2BD7H         LINE#         14
  C:2BF3H         LINE#         15
  C:2C01H         LINE#         17
  -------         ENDPROC       ADC_ISR
  -------         PROC          MAIN
  -------         DO            
  X:0000H         SYMBOL        ucKeyCode
  -------         DO            
  X:0001H         SYMBOL        i
  X:0055H         SYMBOL        n
  X:0056H         SYMBOL        cnt
  -------         ENDDO         
  -------         DO            
  X:0056H         SYMBOL        cnt
  -------         ENDDO         
  -------         ENDDO         
  C:275CH         LINE#         19
  C:275CH         LINE#         21
  C:2761H         LINE#         24
  C:2764H         LINE#         29
  C:2767H         LINE#         30
  C:276AH         LINE#         31
  C:276DH         LINE#         35
  C:276DH         LINE#         36
  C:2773H         LINE#         37
  C:2775H         LINE#         39
  C:2778H         LINE#         40
  C:2778H         LINE#         41
BL51 BANKED LINKER/LOCATER V6.22                                                      09/05/2017  23:07:02  PAGE 12


  C:277EH         LINE#         42
  C:2780H         LINE#         45
  C:2783H         LINE#         46
  C:2783H         LINE#         47
  C:2789H         LINE#         48
  C:278EH         LINE#         51
  C:2792H         LINE#         56
  C:2795H         LINE#         60
  C:2798H         LINE#         62
  C:279EH         LINE#         63
  C:27A4H         LINE#         64
  C:27A6H         LINE#         66
  C:27C9H         LINE#         72
  C:27C9H         LINE#         73
  C:27CCH         LINE#         74
  C:27CCH         LINE#         75
  C:27D2H         LINE#         77
  C:27D4H         LINE#         81
  C:27DAH         LINE#         85
  C:27DAH         LINE#         89
  C:27E2H         LINE#         90
  C:27E4H         LINE#         91
  C:27E9H         LINE#         92
  C:27E9H         LINE#         94
  -------         ENDPROC       MAIN
  -------         ENDMOD        MAIN

  -------         MODULE        APP_KEY
  C:0000H         SYMBOL        _ICE_DUMMY_
  D:0080H         PUBLIC        P0
  D:0090H         PUBLIC        P1
  D:00A0H         PUBLIC        P2
  D:00B0H         PUBLIC        P3
  D:00D8H         PUBLIC        P5
  D:00A8H         PUBLIC        IE
  D:00B8H         PUBLIC        IP
  C:1588H         PUBLIC        _app_key_pro
  D:0098H         PUBLIC        SCON
  D:0088H         PUBLIC        TCON
  D:00F8H         PUBLIC        SCON_1
  D:00E8H         PUBLIC        ADCCON0
  D:00C0H         PUBLIC        I2CON
  D:00C8H         PUBLIC        T2CON
  D:00D0H         PUBLIC        PSW
  -------         PROC          _APP_KEY_PRO
  X:0002H         SYMBOL        keyCode
  -------         DO            
  X:0003H         SYMBOL        index
  X:0004H         SYMBOL        i
  -------         ENDDO         
  C:1588H         LINE#         25
  C:158DH         LINE#         26
  C:1590H         LINE#         27
  C:1592H         LINE#         29
  C:1596H         LINE#         30
  C:15A2H         LINE#         31
  C:1609H         LINE#         32
BL51 BANKED LINKER/LOCATER V6.22                                                      09/05/2017  23:07:02  PAGE 13


  C:1609H         LINE#         33
  C:1616H         LINE#         34
  C:1620H         LINE#         35
  C:162AH         LINE#         36
  C:1634H         LINE#         37
  C:1653H         LINE#         38
  C:1663H         LINE#         39
  C:1669H         LINE#         41
  C:1669H         LINE#         42
  C:1669H         LINE#         44
  C:1669H         LINE#         45
  C:1669H         LINE#         46
  C:1676H         LINE#         47
  C:1680H         LINE#         48
  C:168AH         LINE#         49
  C:1694H         LINE#         50
  C:16B3H         LINE#         51
  C:16C3H         LINE#         52
  C:16C9H         LINE#         54
  C:16C9H         LINE#         55
  C:16C9H         LINE#         56
  C:16D6H         LINE#         57
  C:16E0H         LINE#         58
  C:16EAH         LINE#         59
  C:16F4H         LINE#         60
  C:1713H         LINE#         61
  C:1723H         LINE#         62
  C:1729H         LINE#         64
  C:1729H         LINE#         65
  C:1729H         LINE#         67
  C:1729H         LINE#         68
  C:1729H         LINE#         70
  C:1729H         LINE#         71
  C:1729H         LINE#         73
  C:1729H         LINE#         74
  C:1729H         LINE#         75
  C:1736H         LINE#         76
  C:1740H         LINE#         77
  C:174AH         LINE#         78
  C:1754H         LINE#         79
  C:1773H         LINE#         80
  C:1783H         LINE#         81
  C:1789H         LINE#         82
  C:1789H         LINE#         83
  C:1789H         LINE#         85
  C:1789H         LINE#         86
  C:1789H         LINE#         88
  C:1789H         LINE#         89
  C:1789H         LINE#         90
  C:1796H         LINE#         91
  C:17A0H         LINE#         92
  C:17AAH         LINE#         93
  C:17B4H         LINE#         94
  C:17D3H         LINE#         95
  C:17E3H         LINE#         96
  C:17E9H         LINE#         97
  C:17E9H         LINE#         98
BL51 BANKED LINKER/LOCATER V6.22                                                      09/05/2017  23:07:02  PAGE 14


  C:17E9H         LINE#         100
  C:17E9H         LINE#         101
  C:17E9H         LINE#         102
  C:17F6H         LINE#         103
  C:1800H         LINE#         104
  C:180AH         LINE#         105
  C:1814H         LINE#         106
  C:1833H         LINE#         107
  C:1843H         LINE#         108
  C:1849H         LINE#         110
  C:1849H         LINE#         111
  C:1849H         LINE#         113
  C:1849H         LINE#         114
  C:1849H         LINE#         116
  C:1849H         LINE#         117
  C:1849H         LINE#         119
  C:1856H         LINE#         120
  C:1860H         LINE#         121
  C:186AH         LINE#         122
  C:1874H         LINE#         123
  C:1893H         LINE#         124
  C:18A3H         LINE#         125
  C:18A9H         LINE#         127
  C:18A9H         LINE#         128
  C:18A9H         LINE#         130
  C:18A9H         LINE#         131
  C:18A9H         LINE#         133
  C:18A9H         LINE#         134
  C:18A9H         LINE#         135
  C:18B6H         LINE#         136
  C:18C0H         LINE#         137
  C:18CAH         LINE#         138
  C:18D4H         LINE#         139
  C:18F3H         LINE#         140
  C:1903H         LINE#         141
  C:1909H         LINE#         143
  C:1909H         LINE#         144
  C:1909H         LINE#         146
  C:1909H         LINE#         147
  C:1909H         LINE#         149
  C:1909H         LINE#         150
  C:1909H         LINE#         152
  C:1916H         LINE#         153
  C:1920H         LINE#         154
  C:192AH         LINE#         155
  C:1934H         LINE#         156
  C:1950H         LINE#         157
  C:1960H         LINE#         158
  C:1966H         LINE#         160
  C:1966H         LINE#         161
  C:1966H         LINE#         163
  C:1966H         LINE#         164
  C:1966H         LINE#         166
  C:1966H         LINE#         167
  C:1966H         LINE#         168
  C:1973H         LINE#         169
  C:197DH         LINE#         170
BL51 BANKED LINKER/LOCATER V6.22                                                      09/05/2017  23:07:02  PAGE 15


  C:1987H         LINE#         171
  C:1991H         LINE#         172
  C:19ADH         LINE#         173
  C:19BDH         LINE#         174
  C:19C3H         LINE#         176
  C:19C3H         LINE#         177
  C:19C3H         LINE#         179
  C:19C3H         LINE#         180
  C:19C3H         LINE#         182
  C:19C3H         LINE#         183
  C:19C3H         LINE#         185
  C:19C3H         LINE#         186
  C:19C3H         LINE#         188
  C:19C3H         LINE#         189
  C:19C3H         LINE#         191
  C:19C3H         LINE#         192
  C:19C3H         LINE#         194
  C:19C3H         LINE#         196
  C:19C3H         LINE#         197
  C:19C9H         LINE#         198
  C:19CBH         LINE#         199
  C:19D6H         LINE#         200
  C:19D6H         LINE#         202
  -------         ENDPROC       _APP_KEY_PRO
  -------         ENDMOD        APP_KEY

  -------         MODULE        APP_WORK
  C:0000H         SYMBOL        _ICE_DUMMY_
  D:0080H         PUBLIC        P0
  D:0090H         PUBLIC        P1
  D:00A0H         PUBLIC        P2
  D:00B0H         PUBLIC        P3
  D:00D8H         PUBLIC        P5
  D:00A8H         PUBLIC        IE
  D:00B8H         PUBLIC        IP
  C:3622H         SYMBOL        app_work_pro
  C:3620H         PUBLIC        app_work_1s_pro
  D:0098H         PUBLIC        SCON
  D:0088H         PUBLIC        TCON
  D:00F8H         PUBLIC        SCON_1
  D:00E8H         PUBLIC        ADCCON0
  D:00C0H         PUBLIC        I2CON
  C:360EH         PUBLIC        app_work_Init
  I:000FH         PUBLIC        g_tWork
  D:00C8H         PUBLIC        T2CON
  C:3621H         PUBLIC        app_work_100ms_pro
  D:00D0H         PUBLIC        PSW
  -------         PROC          APP_WORK_INIT
  C:360EH         LINE#         14
  C:360EH         LINE#         16
  -------         ENDPROC       APP_WORK_INIT
  -------         PROC          APP_WORK_1S_PRO
  C:3620H         LINE#         19
  C:3620H         LINE#         21
  -------         ENDPROC       APP_WORK_1S_PRO
  -------         PROC          APP_WORK_100MS_PRO
  C:3621H         LINE#         22
BL51 BANKED LINKER/LOCATER V6.22                                                      09/05/2017  23:07:02  PAGE 16


  C:3621H         LINE#         24
  -------         ENDPROC       APP_WORK_100MS_PRO
  -------         PROC          APP_WORK_PRO
  C:3622H         LINE#         26
  C:3622H         LINE#         28
  -------         ENDPROC       APP_WORK_PRO
  -------         ENDMOD        APP_WORK

  -------         MODULE        APP_REPEAT_EXE
  C:0000H         SYMBOL        _ICE_DUMMY_
  D:0080H         PUBLIC        P0
  D:0090H         PUBLIC        P1
  D:00A0H         PUBLIC        P2
  D:00B0H         PUBLIC        P3
  C:34ABH         PUBLIC        _Repeat_SetStart
  D:00D8H         PUBLIC        P5
  D:00A8H         PUBLIC        IE
  C:34DAH         PUBLIC        app_repeat_IsEnable
  C:33C0H         SYMBOL        Repeat_Stop_exe
  D:00B8H         PUBLIC        IP
  C:34B7H         PUBLIC        _Repeat_SetStop
  X:0067H         SYMBOL        g_tRepeat
  D:0098H         PUBLIC        SCON
  D:0088H         PUBLIC        TCON
  D:00F8H         PUBLIC        SCON_1
  C:2F16H         PUBLIC        _Repeat_Start
  D:00E8H         PUBLIC        ADCCON0
  D:00C0H         PUBLIC        I2CON
  D:00C8H         PUBLIC        T2CON
  C:332BH         PUBLIC        Repeat_Stop
  C:24BBH         PUBLIC        Repeat_Pro
  C:33B0H         SYMBOL        Repeat_Start_exe
  D:00D0H         PUBLIC        PSW
  -------         PROC          _REPEAT_SETSTART
  D:0001H         SYMBOL        fun
  C:34ABH         LINE#         12
  C:34ABH         LINE#         13
  C:34B6H         LINE#         14
  -------         ENDPROC       _REPEAT_SETSTART
  -------         PROC          _REPEAT_SETSTOP
  D:0001H         SYMBOL        fun
  C:34B7H         LINE#         16
  C:34B7H         LINE#         17
  C:34C2H         LINE#         18
  -------         ENDPROC       _REPEAT_SETSTOP
  -------         PROC          REPEAT_START_EXE
  C:33B0H         LINE#         20
  C:33B0H         LINE#         21
  C:33BCH         LINE#         22
  C:33BFH         LINE#         23
  C:33BFH         LINE#         24
  -------         ENDPROC       REPEAT_START_EXE
  -------         PROC          REPEAT_STOP_EXE
  C:33C0H         LINE#         26
  C:33C0H         LINE#         27
  C:33CCH         LINE#         28
  C:33CFH         LINE#         29
BL51 BANKED LINKER/LOCATER V6.22                                                      09/05/2017  23:07:02  PAGE 17


  C:33CFH         LINE#         30
  -------         ENDPROC       REPEAT_STOP_EXE
  -------         PROC          _REPEAT_START
  D:0006H         SYMBOL        _usStartTime
  D:0004H         SYMBOL        _usStopTime
  D:0002H         SYMBOL        _usCycle
  C:2F16H         LINE#         42
  C:2F16H         LINE#         43
  C:2F16H         LINE#         44
  C:2F1AH         LINE#         46
  C:2F1AH         LINE#         48
  C:2F22H         LINE#         49
  C:2F2AH         LINE#         50
  C:2F32H         LINE#         51
  C:2F37H         LINE#         52
  C:2F3BH         LINE#         53
  C:2F3FH         LINE#         54
  C:2F44H         LINE#         56
  C:2F47H         LINE#         57
  -------         ENDPROC       _REPEAT_START
  -------         PROC          REPEAT_STOP
  C:332BH         LINE#         67
  C:332BH         LINE#         68
  C:3330H         LINE#         69
  C:3333H         LINE#         70
  C:333CH         LINE#         71
  -------         ENDPROC       REPEAT_STOP
  -------         PROC          APP_REPEAT_ISENABLE
  C:34DAH         LINE#         75
  C:34DAH         LINE#         76
  C:34E0H         LINE#         77
  C:34E2H         LINE#         78
  C:34E2H         LINE#         79
  C:34E3H         LINE#         80
  -------         ENDPROC       APP_REPEAT_ISENABLE
  -------         PROC          REPEAT_PRO
  C:24BBH         LINE#         90
  C:24BBH         LINE#         92
  C:24D2H         LINE#         94
  C:24D2H         LINE#         96
  C:24D8H         LINE#         97
  C:24E4H         LINE#         98
  C:24E4H         LINE#         99
  C:24FDH         LINE#         100
  C:2500H         LINE#         101
  C:2507H         LINE#         102
  C:250CH         LINE#         103
  C:250CH         LINE#         104
  C:250DH         LINE#         106
  C:250DH         LINE#         107
  C:2515H         LINE#         108
  C:252DH         LINE#         110
  C:253CH         LINE#         111
  C:254FH         LINE#         113
  C:2554H         LINE#         114
  C:2554H         LINE#         116
  C:255AH         LINE#         117
BL51 BANKED LINKER/LOCATER V6.22                                                      09/05/2017  23:07:02  PAGE 18


  C:2561H         LINE#         119
  C:2561H         LINE#         120
  C:2561H         LINE#         121
  C:2568H         LINE#         122
  C:256CH         LINE#         124
  C:256FH         LINE#         125
  C:256FH         LINE#         126
  C:256FH         LINE#         128
  -------         ENDPROC       REPEAT_PRO
  -------         ENDMOD        APP_REPEAT_EXE

  -------         MODULE        APP_2D4
  C:0000H         SYMBOL        _ICE_DUMMY_
  D:0080H         PUBLIC        P0
  D:0090H         PUBLIC        P1
  D:00A0H         PUBLIC        P2
  D:00B0H         PUBLIC        P3
  C:30C4H         PUBLIC        app_2d4_init
  D:00D8H         PUBLIC        P5
  C:34F7H         SYMBOL        BT_play_show_lcd_resp
  C:33FDH         SYMBOL        BT_prev_show_lcd_resp
  D:00A8H         PUBLIC        IE
  C:33EEH         SYMBOL        BT_next_show_lcd_resp
  C:32EAH         SYMBOL        speaker_status_resp
  D:00B8H         PUBLIC        IP
  C:338CH         SYMBOL        FM_scanning_show_lcd_resp
  C:000EH         PUBLIC        app_2d4_pro
  D:0098H         PUBLIC        SCON
  D:0088H         PUBLIC        TCON
  C:2F48H         SYMBOL        USB_track_show_lcd_resp
  C:33D0H         SYMBOL        clear_lcd_resp
  C:33DFH         SYMBOL        USB_pause_show_lcd_resp
  C:24ABH         SYMBOL        _?ix1000
  D:00F8H         PUBLIC        SCON_1
  C:3300H         SYMBOL        relay_status_resp
  I:009DH         PUBLIC        sendBuf
  C:2F7AH         SYMBOL        FM_station_show_lcd_resp
  I:00ADH         SYMBOL        sendRcv_flag
  D:00E8H         PUBLIC        ADCCON0
  D:00C0H         PUBLIC        I2CON
  C:3509H         SYMBOL        AUX_play_show_lcd_resp
  C:3500H         SYMBOL        AUX_mute_show_lcd_resp
  D:00C8H         PUBLIC        T2CON
  I:00AEH         SYMBOL        rcvBuf
  C:34EEH         SYMBOL        BT_pause_show_lcd_resp
  C:2E33H         SYMBOL        vol_resp
  X:0079H         SYMBOL        tmpBuf
  C:0958H         SYMBOL        _app_2d4_Rcv
  C:2D1DH         PUBLIC        _app_2d4_send
  D:00D0H         PUBLIC        PSW
  -------         PROC          APP_2D4_INIT
  C:30C4H         LINE#         16
  C:30C4H         LINE#         18
  C:30C8H         LINE#         19
  C:30D4H         LINE#         20
  C:30E3H         LINE#         22
  C:30E6H         LINE#         23
BL51 BANKED LINKER/LOCATER V6.22                                                      09/05/2017  23:07:02  PAGE 19


  -------         ENDPROC       APP_2D4_INIT
  -------         PROC          _APP_2D4_SEND
  X:0005H         SYMBOL        d
  X:0008H         SYMBOL        len
  C:2D1DH         LINE#         28
  C:2D2BH         LINE#         30
  C:2D30H         LINE#         32
  C:2D30H         LINE#         34
  C:2D33H         LINE#         35
  C:2D37H         LINE#         37
  C:2D52H         LINE#         38
  C:2D6DH         LINE#         39
  C:2D6DH         LINE#         41
  -------         ENDPROC       _APP_2D4_SEND
  -------         PROC          SPEAKER_STATUS_RESP
  C:32EAH         LINE#         42
  C:32EAH         LINE#         43
  C:32F2H         LINE#         44
  C:32F6H         LINE#         45
  C:32F8H         LINE#         46
  C:32FFH         LINE#         47
  C:32FFH         LINE#         48
  -------         ENDPROC       SPEAKER_STATUS_RESP
  -------         PROC          RELAY_STATUS_RESP
  C:3300H         LINE#         49
  C:3300H         LINE#         50
  C:3308H         LINE#         51
  C:330CH         LINE#         52
  C:330EH         LINE#         53
  C:3315H         LINE#         54
  C:3315H         LINE#         56
  -------         ENDPROC       RELAY_STATUS_RESP
  -------         PROC          VOL_RESP
  -------         DO            
  X:000AH         SYMBOL        str
  -------         ENDDO         
  C:2E33H         LINE#         57
  C:2E33H         LINE#         58
  C:2E46H         LINE#         60
  C:2E67H         LINE#         61
  -------         ENDPROC       VOL_RESP
  -------         PROC          CLEAR_LCD_RESP
  C:33D0H         LINE#         64
  C:33D0H         LINE#         65
  C:33D9H         LINE#         67
  C:33DCH         LINE#         68
  -------         ENDPROC       CLEAR_LCD_RESP
  -------         PROC          BT_PAUSE_SHOW_LCD_RESP
  C:34EEH         LINE#         70
  C:34EEH         LINE#         71
  -------         ENDPROC       BT_PAUSE_SHOW_LCD_RESP
  -------         PROC          BT_PLAY_SHOW_LCD_RESP
  C:34F7H         LINE#         74
  C:34F7H         LINE#         75
  -------         ENDPROC       BT_PLAY_SHOW_LCD_RESP
  -------         PROC          FM_SCANNING_SHOW_LCD_RESP
  C:338CH         LINE#         77
BL51 BANKED LINKER/LOCATER V6.22                                                      09/05/2017  23:07:02  PAGE 20


  C:338CH         LINE#         78
  C:3395H         LINE#         79
  C:3398H         LINE#         80
  C:339BH         LINE#         81
  -------         ENDPROC       FM_SCANNING_SHOW_LCD_RESP
  -------         PROC          AUX_MUTE_SHOW_LCD_RESP
  C:3500H         LINE#         91
  C:3500H         LINE#         92
  -------         ENDPROC       AUX_MUTE_SHOW_LCD_RESP
  -------         PROC          AUX_PLAY_SHOW_LCD_RESP
  C:3509H         LINE#         95
  C:3509H         LINE#         96
  -------         ENDPROC       AUX_PLAY_SHOW_LCD_RESP
  -------         PROC          USB_PAUSE_SHOW_LCD_RESP
  C:33DFH         LINE#         99
  C:33DFH         LINE#         100
  C:33E8H         LINE#         101
  C:33EBH         LINE#         102
  -------         ENDPROC       USB_PAUSE_SHOW_LCD_RESP
  -------         PROC          BT_NEXT_SHOW_LCD_RESP
  C:33EEH         LINE#         111
  C:33EEH         LINE#         112
  C:33F7H         LINE#         113
  C:33FAH         LINE#         114
  -------         ENDPROC       BT_NEXT_SHOW_LCD_RESP
  -------         PROC          BT_PREV_SHOW_LCD_RESP
  C:33FDH         LINE#         116
  C:33FDH         LINE#         117
  C:3406H         LINE#         118
  C:3409H         LINE#         119
  -------         ENDPROC       BT_PREV_SHOW_LCD_RESP
  -------         PROC          FM_STATION_SHOW_LCD_RESP
  C:2F7AH         LINE#         121
  C:2F7AH         LINE#         122
  C:2F9BH         LINE#         123
  C:2FA4H         LINE#         124
  C:2FA7H         LINE#         125
  -------         ENDPROC       FM_STATION_SHOW_LCD_RESP
  -------         PROC          USB_TRACK_SHOW_LCD_RESP
  C:2F48H         LINE#         127
  C:2F48H         LINE#         128
  C:2F6BH         LINE#         129
  C:2F74H         LINE#         130
  C:2F77H         LINE#         131
  -------         ENDPROC       USB_TRACK_SHOW_LCD_RESP
  -------         PROC          _APP_2D4_RCV
  X:0002H         SYMBOL        buf
  -------         DO            
  X:0005H         SYMBOL        i
  X:0006H         SYMBOL        index
  X:0007H         SYMBOL        check
  -------         DO            
  X:0008H         SYMBOL        time
  -------         ENDDO         
  -------         ENDDO         
  C:0958H         LINE#         134
  C:0963H         LINE#         135
BL51 BANKED LINKER/LOCATER V6.22                                                      09/05/2017  23:07:02  PAGE 21


  C:0966H         LINE#         136
  C:0968H         LINE#         137
  C:096AH         LINE#         139
  C:0974H         LINE#         141
  C:0974H         LINE#         142
  C:0977H         LINE#         143
  C:0990H         LINE#         145
  C:0990H         LINE#         146
  C:09BCH         LINE#         147
  C:09D1H         LINE#         148
  C:09D9H         LINE#         149
  C:09FFH         LINE#         151
  C:09FFH         LINE#         153
  C:0A0EH         LINE#         154
  C:0A13H         LINE#         155
  C:0A57H         LINE#         156
  C:0A57H         LINE#         158
  C:0A57H         LINE#         159
  C:0A57H         LINE#         161
  C:0A61H         LINE#         162
  C:0A65H         LINE#         163
  C:0A6BH         LINE#         164
  C:0A6BH         LINE#         166
  C:0A6BH         LINE#         167
  C:0A6EH         LINE#         168
  C:0A72H         LINE#         169
  C:0A78H         LINE#         170
  C:0A78H         LINE#         172
  C:0A78H         LINE#         173
  C:0A78H         LINE#         175
  C:0A7BH         LINE#         176
  C:0A7BH         LINE#         178
  C:0A91H         LINE#         179
  C:0A95H         LINE#         180
  C:0A97H         LINE#         181
  C:0A9BH         LINE#         182
  C:0A9BH         LINE#         183
  C:0AA1H         LINE#         184
  C:0AA1H         LINE#         185
  C:0AA1H         LINE#         187
  C:0AA4H         LINE#         188
  C:0AA4H         LINE#         189
  C:0AC4H         LINE#         190
  C:0AC4H         LINE#         191
  C:0ACAH         LINE#         192
  C:0ACAH         LINE#         193
  C:0ACAH         LINE#         195
  C:0ACDH         LINE#         196
  C:0ACDH         LINE#         197
  C:0AE1H         LINE#         198
  C:0AE7H         LINE#         199
  C:0AE7H         LINE#         200
  C:0AE7H         LINE#         202
  C:0AEAH         LINE#         203
  C:0AEAH         LINE#         205
  C:0AEAH         LINE#         206
  C:0AEAH         LINE#         207
BL51 BANKED LINKER/LOCATER V6.22                                                      09/05/2017  23:07:02  PAGE 22


  C:0B01H         LINE#         208
  C:0B0EH         LINE#         209
  C:0B14H         LINE#         210
  C:0B14H         LINE#         211
  C:0B14H         LINE#         212
  C:0B17H         LINE#         213
  C:0B17H         LINE#         214
  C:0B17H         LINE#         215
  C:0B17H         LINE#         216
  C:0B17H         LINE#         217
  C:0B17H         LINE#         219
  C:0B37H         LINE#         220
  C:0B37H         LINE#         221
  C:0B3DH         LINE#         222
  C:0B3DH         LINE#         223
  C:0B3DH         LINE#         225
  C:0B40H         LINE#         226
  C:0B40H         LINE#         227
  C:0B54H         LINE#         228
  C:0B5AH         LINE#         229
  C:0B5AH         LINE#         230
  C:0B5AH         LINE#         231
  C:0B5DH         LINE#         232
  C:0B5DH         LINE#         234
  C:0B5DH         LINE#         235
  C:0B5DH         LINE#         236
  C:0B74H         LINE#         237
  C:0B81H         LINE#         238
  C:0B87H         LINE#         239
  C:0B87H         LINE#         240
  C:0B87H         LINE#         241
  C:0B89H         LINE#         242
  C:0B89H         LINE#         243
  C:0B89H         LINE#         244
  C:0B89H         LINE#         246
  C:0B89H         LINE#         247
  C:0B89H         LINE#         248
  C:0B89H         LINE#         249
  C:0B89H         LINE#         250
  C:0B9DH         LINE#         252
  C:0BA3H         LINE#         253
  C:0BA3H         LINE#         255
  C:0BA3H         LINE#         256
  C:0BA5H         LINE#         257
  C:0BA5H         LINE#         258
  C:0BB9H         LINE#         260
  C:0BBFH         LINE#         261
  C:0BBFH         LINE#         263
  C:0BBFH         LINE#         264
  C:0BC1H         LINE#         265
  C:0BC1H         LINE#         266
  C:0BE9H         LINE#         267
  C:0BE9H         LINE#         268
  C:0BF2H         LINE#         269
  C:0BFBH         LINE#         270
  C:0C04H         LINE#         271
  C:0C10H         LINE#         272
BL51 BANKED LINKER/LOCATER V6.22                                                      09/05/2017  23:07:02  PAGE 23


  C:0C2BH         LINE#         273
  C:0C34H         LINE#         274
  C:0C3DH         LINE#         275
  C:0C46H         LINE#         276
  C:0C46H         LINE#         277
  C:0C49H         LINE#         278
  C:0C49H         LINE#         279
  C:0C5DH         LINE#         280
  C:0C66H         LINE#         281
  C:0C6FH         LINE#         282
  C:0C78H         LINE#         283
  C:0C8EH         LINE#         287
  C:0C8EH         LINE#         288
  C:0C91H         LINE#         289
  C:0C91H         LINE#         290
  C:0CA5H         LINE#         291
  C:0CAEH         LINE#         292
  C:0CB7H         LINE#         293
  C:0CC0H         LINE#         294
  C:0CDAH         LINE#         295
  C:0CE3H         LINE#         296
  C:0CECH         LINE#         297
  C:0CF5H         LINE#         298
  C:0CF5H         LINE#         299
  C:0CF7H         LINE#         300
  C:0CF7H         LINE#         301
  C:0D10H         LINE#         305
  C:0D18H         LINE#         306
  C:0D21H         LINE#         307
  C:0D2AH         LINE#         308
  C:0D36H         LINE#         309
  C:0D36H         LINE#         310
  C:0D39H         LINE#         311
  C:0D39H         LINE#         313
  C:0D39H         LINE#         314
  C:0D39H         LINE#         315
  C:0D3CH         LINE#         316
  C:0D3FH         LINE#         317
  C:0D42H         LINE#         318
  C:0D45H         LINE#         319
  C:0D48H         LINE#         320
  C:0D4BH         LINE#         321
  C:0D4EH         LINE#         323
  C:0D76H         LINE#         324
  C:0D76H         LINE#         326
  C:0D79H         LINE#         327
  C:0D8DH         LINE#         328
  C:0D99H         LINE#         329
  C:0DAFH         LINE#         330
  C:0DBEH         LINE#         331
  C:0DBEH         LINE#         332
  C:0DBEH         LINE#         333
  C:0DC1H         LINE#         334
  C:0DC1H         LINE#         335
  C:0DC4H         LINE#         336
  C:0DC7H         LINE#         337
  C:0DCAH         LINE#         339
BL51 BANKED LINKER/LOCATER V6.22                                                      09/05/2017  23:07:02  PAGE 24


  C:0DE1H         LINE#         340
  C:0DF8H         LINE#         341
  C:0E16H         LINE#         342
  C:0E28H         LINE#         343
  C:0E2AH         LINE#         344
  C:0E5BH         LINE#         345
  C:0E5BH         LINE#         346
  C:0E5BH         LINE#         348
  C:0E5EH         LINE#         349
  C:0E5EH         LINE#         350
  C:0E61H         LINE#         351
  C:0E75H         LINE#         352
  C:0E81H         LINE#         353
  C:0E97H         LINE#         354
  C:0EA6H         LINE#         355
  C:0EA6H         LINE#         356
  C:0EA6H         LINE#         358
  C:0EA9H         LINE#         359
  C:0EA9H         LINE#         360
  C:0EA9H         LINE#         361
  C:0EB0H         LINE#         362
  C:0ECAH         LINE#         363
  C:0ED3H         LINE#         364
  C:0EE3H         LINE#         365
  C:0EE6H         LINE#         367
  C:0F02H         LINE#         368
  C:0F24H         LINE#         369
  C:0F47H         LINE#         370
  C:0F64H         LINE#         371
  C:0F66H         LINE#         372
  C:0FA3H         LINE#         373
  C:0FA3H         LINE#         374
  C:0FB7H         LINE#         375
  C:0FB7H         LINE#         376
  C:0FB7H         LINE#         377
  C:0FB7H         LINE#         378
  C:0FB7H         LINE#         379
  C:0FB7H         LINE#         380
  C:0FBDH         LINE#         381
  C:0FBFH         LINE#         383
  C:0FBFH         LINE#         385
  -------         ENDPROC       _APP_2D4_RCV
  -------         PROC          APP_2D4_PRO
  C:000EH         LINE#         387
  C:000EH         LINE#         388
  C:0013H         LINE#         390
  C:0023H         LINE#         391
  C:0023H         LINE#         393
  C:0026H         LINE#         394
  C:0029H         LINE#         396
  C:002DH         LINE#         397
  C:0030H         LINE#         401
  C:0030H         LINE#         402
  C:0030H         LINE#         404
  C:0030H         LINE#         405
  C:0030H         LINE#         406
  C:0032H         LINE#         407
BL51 BANKED LINKER/LOCATER V6.22                                                      09/05/2017  23:07:02  PAGE 25


  C:0032H         LINE#         409
  C:0035H         LINE#         410
  C:0038H         LINE#         411
  C:0038H         LINE#         412
  C:0038H         LINE#         414
  C:0043H         LINE#         416
  C:0043H         LINE#         417
  C:0043H         LINE#         419
  C:0043H         LINE#         420
  C:0051H         LINE#         422
  C:005AH         LINE#         423
  C:005AH         LINE#         425
  C:005AH         LINE#         427
  -------         ENDPROC       APP_2D4_PRO
  -------         ENDMOD        APP_2D4

  -------         MODULE        APP_LCD
  C:0000H         SYMBOL        _ICE_DUMMY_
  D:0080H         PUBLIC        P0
  D:0090H         PUBLIC        P1
  D:00A0H         PUBLIC        P2
  D:00B0H         PUBLIC        P3
  D:00D8H         PUBLIC        P5
  C:340CH         PUBLIC        app_lcd_pro
  D:00A8H         PUBLIC        IE
  D:00B8H         PUBLIC        IP
  D:0098H         PUBLIC        SCON
  D:0088H         PUBLIC        TCON
  D:00F8H         PUBLIC        SCON_1
  C:3177H         PUBLIC        _app_lcd_default_string_set
  D:00E8H         PUBLIC        ADCCON0
  D:00C0H         PUBLIC        I2CON
  D:00C8H         PUBLIC        T2CON
  C:32D2H         PUBLIC        app_lcd_init
  X:0089H         SYMBOL        lcd_default_string
  D:00D0H         PUBLIC        PSW
  -------         PROC          APP_LCD_INIT
  C:32D2H         LINE#         13
  C:32D2H         LINE#         14
  -------         ENDPROC       APP_LCD_INIT
  -------         PROC          _APP_LCD_DEFAULT_STRING_SET
  D:0001H         SYMBOL        s
  X:000AH         SYMBOL        len
  C:3177H         LINE#         20
  C:317CH         LINE#         21
  C:3188H         LINE#         22
  C:3197H         LINE#         23
  -------         ENDPROC       _APP_LCD_DEFAULT_STRING_SET
  -------         PROC          APP_LCD_PRO
  C:340CH         LINE#         25
  C:340CH         LINE#         27
  C:3411H         LINE#         29
  C:341AH         LINE#         31
  C:341AH         LINE#         33
  -------         ENDPROC       APP_LCD_PRO
  -------         ENDMOD        APP_LCD

BL51 BANKED LINKER/LOCATER V6.22                                                      09/05/2017  23:07:02  PAGE 26


  -------         MODULE        BSP
  C:0000H         SYMBOL        _ICE_DUMMY_
  D:0080H         PUBLIC        P0
  D:0090H         PUBLIC        P1
  D:00A0H         PUBLIC        P2
  D:00B0H         PUBLIC        P3
  D:00D8H         PUBLIC        P5
  B:00A8H.7       PUBLIC        EA
  D:00A8H         PUBLIC        IE
  D:00B8H         PUBLIC        IP
  B:0021H.1       PUBLIC        BIT_TMP
  D:0098H         PUBLIC        SCON
  D:0088H         PUBLIC        TCON
  C:324FH         PUBLIC        bsp_Init
  D:00F8H         PUBLIC        SCON_1
  D:00E8H         PUBLIC        ADCCON0
  D:00C0H         PUBLIC        I2CON
  D:00C8H         PUBLIC        T2CON
  D:00D0H         PUBLIC        PSW
  -------         PROC          BSP_INIT
  C:324FH         LINE#         5
  C:324FH         LINE#         10
  C:3252H         LINE#         12
  C:3255H         LINE#         14
  C:3258H         LINE#         15
  C:325BH         LINE#         16
  C:325EH         LINE#         19
  C:3261H         LINE#         21
  C:3264H         LINE#         23
  C:3267H         LINE#         25
  C:3269H         LINE#         26
  -------         ENDPROC       BSP_INIT
  -------         ENDMOD        BSP

  -------         MODULE        BSP_KEY
  C:0000H         SYMBOL        _ICE_DUMMY_
  D:00B1H         PUBLIC        P0M1
  D:00B2H         PUBLIC        P0M2
  D:0080H         PUBLIC        P0
  D:0090H         PUBLIC        P1
  D:00A0H         PUBLIC        P2
  C:2973H         SYMBOL        _IsKeyDown
  D:00B0H         PUBLIC        P3
  D:00D8H         PUBLIC        P5
  C:333FH         PUBLIC        _bsp_PutKey
  D:00A8H         PUBLIC        IE
  C:2570H         SYMBOL        bsp_InitKeyVar
  X:00A4H         PUBLIC        pBtn
  D:00B8H         PUBLIC        IP
  C:339EH         SYMBOL        IsKeyDown_1AND6
  C:3233H         PUBLIC        bsp_GetKey2
  C:1D3CH         SYMBOL        _bsp_DetectKey
  B:0080H.2       PUBLIC        P02
  C:3512H         SYMBOL        IsKeyDown1
  D:0098H         PUBLIC        SCON
  C:341BH         SYMBOL        IsKeyDown2
  D:0088H         PUBLIC        TCON
BL51 BANKED LINKER/LOCATER V6.22                                                      09/05/2017  23:07:02  PAGE 27


  C:342AH         SYMBOL        IsKeyDown3
  C:3439H         SYMBOL        IsKeyDown4
  C:3475H         SYMBOL        IsKeyDown5
  C:35E0H         SYMBOL        IsKeyDown6
  C:35E6H         SYMBOL        IsKeyDown7
  C:3448H         SYMBOL        IsKeyDown8
  C:3457H         SYMBOL        IsKeyDown9
  C:35F2H         PUBLIC        bsp_ClearKey
  X:00A7H         PUBLIC        min
  D:00F8H         PUBLIC        SCON_1
  X:00A9H         PUBLIC        max
  C:326AH         PUBLIC        bsp_KeyScan
  D:00E8H         PUBLIC        ADCCON0
  D:00C0H         PUBLIC        I2CON
  D:00C8H         PUBLIC        T2CON
  C:35ECH         PUBLIC        bsp_InitKey
  C:3554H         SYMBOL        bsp_InitKeyHard
  I:0022H         SYMBOL        s_tBtn
  I:0090H         SYMBOL        s_tKey
  C:3217H         PUBLIC        bsp_GetKey
  C:30E9H         PUBLIC        _bsp_SetKeyParam
  C:34CFH         PUBLIC        _bsp_GetKeyState
  D:00D0H         PUBLIC        PSW
  -------         PROC          ISKEYDOWN1
  C:3512H         LINE#         46
  C:3512H         LINE#         47
  C:3515H         LINE#         48
  C:3518H         LINE#         49
  C:3518H         LINE#         50
  C:351AH         LINE#         51
  C:351AH         LINE#         52
  -------         ENDPROC       ISKEYDOWN1
  -------         PROC          L?0067
  -------         ENDPROC       L?0067
  -------         PROC          _ISKEYDOWN
  D:0006H         SYMBOL        key_ad
  D:0004H         SYMBOL        result_ad
  C:2973H         LINE#         55
  C:2973H         LINE#         57
  C:2998H         LINE#         58
  C:29B7H         LINE#         60
  C:29D0H         LINE#         61
  -------         ENDPROC       _ISKEYDOWN
  -------         PROC          ISKEYDOWN2
  C:341BH         LINE#         64
  C:341BH         LINE#         66
  C:3429H         LINE#         67
  -------         ENDPROC       ISKEYDOWN2
  -------         PROC          ISKEYDOWN3
  C:342AH         LINE#         69
  C:342AH         LINE#         70
  C:3438H         LINE#         71
  -------         ENDPROC       ISKEYDOWN3
  -------         PROC          ISKEYDOWN4
  C:3439H         LINE#         73
  C:3439H         LINE#         74
  C:3447H         LINE#         75
BL51 BANKED LINKER/LOCATER V6.22                                                      09/05/2017  23:07:02  PAGE 28


  -------         ENDPROC       ISKEYDOWN4
  -------         PROC          ISKEYDOWN5
  C:3475H         LINE#         77
  C:3475H         LINE#         79
  C:3482H         LINE#         80
  -------         ENDPROC       ISKEYDOWN5
  -------         PROC          ISKEYDOWN6
  C:35E0H         LINE#         82
  C:35E0H         LINE#         83
  C:35E5H         LINE#         84
  -------         ENDPROC       ISKEYDOWN6
  -------         PROC          ISKEYDOWN7
  C:35E6H         LINE#         86
  C:35E6H         LINE#         87
  C:35EBH         LINE#         88
  -------         ENDPROC       ISKEYDOWN7
  -------         PROC          ISKEYDOWN8
  C:3448H         LINE#         90
  C:3448H         LINE#         91
  C:3456H         LINE#         92
  -------         ENDPROC       ISKEYDOWN8
  -------         PROC          ISKEYDOWN9
  C:3457H         LINE#         94
  C:3457H         LINE#         95
  C:3465H         LINE#         96
  -------         ENDPROC       ISKEYDOWN9
  -------         PROC          ISKEYDOWN_1AND6
  C:339EH         LINE#         98
  C:339EH         LINE#         99
  C:33AAH         LINE#         100
  C:33ADH         LINE#         101
  C:33ADH         LINE#         102
  C:33AFH         LINE#         103
  C:33AFH         LINE#         105
  -------         ENDPROC       ISKEYDOWN_1AND6
  -------         PROC          BSP_INITKEY
  C:35ECH         LINE#         114
  C:35ECH         LINE#         115
  C:35EFH         LINE#         116
  -------         ENDPROC       BSP_INITKEY
  -------         PROC          _BSP_PUTKEY
  D:0007H         SYMBOL        _KeyCode
  C:333FH         LINE#         127
  C:333FH         LINE#         128
  C:3347H         LINE#         130
  C:3350H         LINE#         131
  C:3352H         LINE#         132
  C:3352H         LINE#         133
  -------         ENDPROC       _BSP_PUTKEY
  -------         PROC          BSP_GETKEY
  -------         DO            
  D:0007H         SYMBOL        ret
  -------         ENDDO         
  C:3217H         LINE#         143
  C:3217H         LINE#         146
  C:321FH         LINE#         147
  C:3221H         LINE#         148
BL51 BANKED LINKER/LOCATER V6.22                                                      09/05/2017  23:07:02  PAGE 29


  C:3221H         LINE#         149
  C:3227H         LINE#         151
  C:3230H         LINE#         152
  C:3232H         LINE#         153
  C:3232H         LINE#         154
  C:3232H         LINE#         155
  C:3232H         LINE#         156
  -------         ENDPROC       BSP_GETKEY
  -------         PROC          BSP_GETKEY2
  -------         DO            
  D:0007H         SYMBOL        ret
  -------         ENDDO         
  C:3233H         LINE#         166
  C:3233H         LINE#         169
  C:323BH         LINE#         170
  C:323DH         LINE#         171
  C:323DH         LINE#         172
  C:3243H         LINE#         174
  C:324CH         LINE#         175
  C:324EH         LINE#         176
  C:324EH         LINE#         177
  C:324EH         LINE#         178
  C:324EH         LINE#         179
  -------         ENDPROC       BSP_GETKEY2
  -------         PROC          _BSP_GETKEYSTATE
  D:0007H         SYMBOL        _ucKeyID
  C:34CFH         LINE#         189
  C:34CFH         LINE#         190
  C:34D9H         LINE#         191
  -------         ENDPROC       _BSP_GETKEYSTATE
  -------         PROC          _BSP_SETKEYPARAM
  D:0007H         SYMBOL        _ucKeyID
  D:0004H         SYMBOL        _LongTime
  D:0003H         SYMBOL        _RepeatSpeed
  C:30E9H         LINE#         203
  C:30E9H         LINE#         204
  C:30F6H         LINE#         205
  C:3102H         LINE#         206
  C:310CH         LINE#         207
  -------         ENDPROC       _BSP_SETKEYPARAM
  -------         PROC          BSP_CLEARKEY
  C:35F2H         LINE#         217
  C:35F2H         LINE#         218
  C:35F7H         LINE#         219
  -------         ENDPROC       BSP_CLEARKEY
  -------         PROC          BSP_INITKEYHARD
  C:3554H         LINE#         229
  C:3554H         LINE#         231
  C:3557H         LINE#         232
  C:355AH         LINE#         234
  -------         ENDPROC       BSP_INITKEYHARD
  -------         PROC          BSP_INITKEYVAR
  -------         DO            
  D:0007H         SYMBOL        i
  -------         ENDDO         
  C:2570H         LINE#         244
  C:2570H         LINE#         248
BL51 BANKED LINKER/LOCATER V6.22                                                      09/05/2017  23:07:02  PAGE 30


  C:2574H         LINE#         249
  C:2576H         LINE#         250
  C:2578H         LINE#         253
  C:2579H         LINE#         254
  C:2586H         LINE#         255
  C:2590H         LINE#         256
  C:259AH         LINE#         260
  C:25A4H         LINE#         261
  C:25AEH         LINE#         262
  C:25B3H         LINE#         264
  C:25B7H         LINE#         265
  C:25BBH         LINE#         268
  C:25C5H         LINE#         269
  C:25CFH         LINE#         270
  C:25D9H         LINE#         271
  C:25E3H         LINE#         272
  C:25EDH         LINE#         273
  C:25F7H         LINE#         274
  C:2601H         LINE#         275
  C:260BH         LINE#         276
  C:2615H         LINE#         277
  C:261FH         LINE#         278
  -------         ENDPROC       BSP_INITKEYVAR
  -------         PROC          _BSP_DETECTKEY
  X:0003H         SYMBOL        i
  C:1D3CH         LINE#         289
  C:1D41H         LINE#         290
  C:1D55H         LINE#         291
  C:1D61H         LINE#         292
  C:1D78H         LINE#         293
  C:1D7DH         LINE#         294
  C:1D86H         LINE#         295
  C:1D8EH         LINE#         296
  C:1D8EH         LINE#         297
  C:1D96H         LINE#         298
  C:1D9DH         LINE#         301
  C:1DAAH         LINE#         302
  C:1DAAH         LINE#         304
  C:1DC9H         LINE#         305
  C:1DD6H         LINE#         307
  C:1DEDH         LINE#         309
  C:1DF7H         LINE#         310
  C:1DF7H         LINE#         311
  C:1DF9H         LINE#         312
  C:1E08H         LINE#         313
  C:1E14H         LINE#         314
  C:1E1BH         LINE#         316
  C:1E28H         LINE#         317
  C:1E28H         LINE#         318
  C:1E28H         LINE#         319
  C:1E28H         LINE#         320
  C:1E28H         LINE#         321
  C:1E28H         LINE#         322
  C:1E28H         LINE#         323
  C:1E3FH         LINE#         324
  C:1E47H         LINE#         325
  C:1E4CH         LINE#         326
BL51 BANKED LINKER/LOCATER V6.22                                                      09/05/2017  23:07:02  PAGE 31


  C:1E54H         LINE#         327
  C:1E56H         LINE#         328
  C:1E5FH         LINE#         329
  C:1E66H         LINE#         332
  C:1E74H         LINE#         333
  C:1E74H         LINE#         334
  C:1E74H         LINE#         335
  C:1E88H         LINE#         336
  C:1E8FH         LINE#         337
  C:1E8FH         LINE#         338
  -------         ENDPROC       _BSP_DETECTKEY
  -------         PROC          BSP_KEYSCAN
  -------         DO            
  X:0002H         SYMBOL        i
  -------         ENDDO         
  C:326AH         LINE#         348
  C:326AH         LINE#         351
  C:3279H         LINE#         352
  C:327CH         LINE#         353
  C:3284H         LINE#         354
  -------         ENDPROC       BSP_KEYSCAN
  -------         ENDMOD        BSP_KEY

  -------         MODULE        BSP_DISPLAY
  C:0000H         SYMBOL        _ICE_DUMMY_
  C:35B6H         PUBLIC        LCD_Show_BAZOOKA_ICO
  D:00B1H         PUBLIC        P0M1
  D:00B3H         PUBLIC        P1M1
  D:00B2H         PUBLIC        P0M2
  D:0080H         PUBLIC        P0
  D:00B5H         PUBLIC        P2M1
  D:00B4H         PUBLIC        P1M2
  D:0090H         PUBLIC        P1
  D:00B6H         PUBLIC        P2M2
  D:00ACH         PUBLIC        P3M1
  D:00A0H         PUBLIC        P2
  D:00DAH         PUBLIC        P4M1
  D:00B0H         PUBLIC        P3
  D:00ADH         PUBLIC        P3M2
  D:00DCH         PUBLIC        P5M1
  D:00DBH         PUBLIC        P4M2
  D:00DDH         PUBLIC        P5M2
  D:00D8H         PUBLIC        P5
  C:3570H         PUBLIC        LCD_Show_FM_ICO
  D:00A8H         PUBLIC        IE
  C:355BH         PUBLIC        LCD_Clear_LED_ICO
  C:3491H         PUBLIC        LCD_Clear_All
  D:00B8H         PUBLIC        IP
  C:35BDH         PUBLIC        LCD_Clear_upColon_ICO
  C:3593H         PUBLIC        LCD_Clear_USB_ICO
  C:2EADH         PUBLIC        LCD_display_InitHard
  C:3585H         PUBLIC        LCD_Clear_AUX_ICO
  C:35A1H         PUBLIC        LCD_Clear_MHZ_ICO
  C:35D2H         PUBLIC        LCD_Show_downColon_ICO
  D:00FCH         PUBLIC        LCDDAT
  D:00FAH         PUBLIC        LCDCLK
  D:0098H         PUBLIC        SCON
BL51 BANKED LINKER/LOCATER V6.22                                                      09/05/2017  23:07:02  PAGE 32


  D:00F9H         PUBLIC        LCDCON
  D:0088H         PUBLIC        TCON
  C:3577H         PUBLIC        LCD_Clear_BLUETooTH_ICO
  C:35F8H         PUBLIC        LCD_Clear_Colon_ICO
  C:35AFH         PUBLIC        LCD_Clear_BAZOOKA_ICO
  D:00F8H         PUBLIC        SCON_1
  C:3562H         PUBLIC        LCD_Show_LED_ICO
  D:00FBH         PUBLIC        LCDPTR
  C:3569H         PUBLIC        LCD_Clear_FM_ICO
  C:2620H         PUBLIC        _LCD_ShowString
  C:2215H         SYMBOL        _LCD_Clear_mi
  C:005EH         PUBLIC        _LCD_ShowChar
  C:35C4H         PUBLIC        LCD_Show_upColon_ICO
  D:00E8H         PUBLIC        ADCCON0
  D:00C0H         PUBLIC        I2CON
  C:359AH         PUBLIC        LCD_Show_USB_ICO
  C:358CH         PUBLIC        LCD_Show_AUX_ICO
  C:35A8H         PUBLIC        LCD_Show_MHZ_ICO
  D:00E5H         PUBLIC        LCDSEG0
  D:00E6H         PUBLIC        LCDSEG1
  D:00E7H         PUBLIC        LCDSEG2
  D:00EEH         PUBLIC        LCDSEG3
  D:00C8H         PUBLIC        T2CON
  C:357EH         PUBLIC        LCD_Show_BLUETooTH_ICO
  C:349EH         PUBLIC        LCD_Clear_mi_all
  C:35FEH         PUBLIC        LCD_Show_Colon_ICO
  C:35CBH         PUBLIC        LCD_Clear_downColon_ICO
  D:00D0H         PUBLIC        PSW
  -------         PROC          LCD_DISPLAY_INITHARD
  C:2EADH         LINE#         16
  C:2EADH         LINE#         40
  C:2EB0H         LINE#         41
  C:2EB3H         LINE#         43
  C:2EB5H         LINE#         44
  C:2EB8H         LINE#         46
  C:2EBAH         LINE#         47
  C:2EBDH         LINE#         49
  C:2EBFH         LINE#         50
  C:2EC2H         LINE#         52
  C:2EC4H         LINE#         53
  C:2EC7H         LINE#         55
  C:2EC9H         LINE#         56
  C:2ECCH         LINE#         60
  C:2ECEH         LINE#         62
  C:2ED1H         LINE#         65
  C:2ED4H         LINE#         66
  C:2ED7H         LINE#         67
  C:2EDAH         LINE#         68
  C:2EDDH         LINE#         70
  C:2EE0H         LINE#         72
  -------         ENDPROC       LCD_DISPLAY_INITHARD
  -------         PROC          LCD_CLEAR_ALL
  -------         DO            
  D:0007H         SYMBOL        i
  -------         ENDDO         
  C:3491H         LINE#         75
  C:3491H         LINE#         77
BL51 BANKED LINKER/LOCATER V6.22                                                      09/05/2017  23:07:02  PAGE 33


  C:3493H         LINE#         78
  C:3495H         LINE#         79
  C:3498H         LINE#         80
  C:349DH         LINE#         81
  -------         ENDPROC       LCD_CLEAR_ALL
  -------         PROC          LCD_CLEAR_LED_ICO
  C:355BH         LINE#         83
  C:355BH         LINE#         84
  C:355EH         LINE#         85
  C:3561H         LINE#         86
  -------         ENDPROC       LCD_CLEAR_LED_ICO
  -------         PROC          LCD_SHOW_LED_ICO
  C:3562H         LINE#         87
  C:3562H         LINE#         88
  C:3565H         LINE#         89
  C:3568H         LINE#         90
  -------         ENDPROC       LCD_SHOW_LED_ICO
  -------         PROC          LCD_CLEAR_FM_ICO
  C:3569H         LINE#         91
  C:3569H         LINE#         92
  C:356CH         LINE#         93
  C:356FH         LINE#         94
  -------         ENDPROC       LCD_CLEAR_FM_ICO
  -------         PROC          LCD_SHOW_FM_ICO
  C:3570H         LINE#         95
  C:3570H         LINE#         96
  C:3573H         LINE#         97
  C:3576H         LINE#         98
  -------         ENDPROC       LCD_SHOW_FM_ICO
  -------         PROC          LCD_CLEAR_BLUETOOTH_ICO
  C:3577H         LINE#         99
  C:3577H         LINE#         100
  C:357AH         LINE#         101
  C:357DH         LINE#         102
  -------         ENDPROC       LCD_CLEAR_BLUETOOTH_ICO
  -------         PROC          LCD_SHOW_BLUETOOTH_ICO
  C:357EH         LINE#         103
  C:357EH         LINE#         104
  C:3581H         LINE#         105
  C:3584H         LINE#         106
  -------         ENDPROC       LCD_SHOW_BLUETOOTH_ICO
  -------         PROC          LCD_CLEAR_AUX_ICO
  C:3585H         LINE#         107
  C:3585H         LINE#         108
  C:3588H         LINE#         109
  C:358BH         LINE#         110
  -------         ENDPROC       LCD_CLEAR_AUX_ICO
  -------         PROC          LCD_SHOW_AUX_ICO
  C:358CH         LINE#         111
  C:358CH         LINE#         112
  C:358FH         LINE#         113
  C:3592H         LINE#         114
  -------         ENDPROC       LCD_SHOW_AUX_ICO
  -------         PROC          LCD_CLEAR_USB_ICO
  C:3593H         LINE#         115
  C:3593H         LINE#         116
  C:3596H         LINE#         117
BL51 BANKED LINKER/LOCATER V6.22                                                      09/05/2017  23:07:02  PAGE 34


  C:3599H         LINE#         118
  -------         ENDPROC       LCD_CLEAR_USB_ICO
  -------         PROC          LCD_SHOW_USB_ICO
  C:359AH         LINE#         119
  C:359AH         LINE#         120
  C:359DH         LINE#         121
  C:35A0H         LINE#         122
  -------         ENDPROC       LCD_SHOW_USB_ICO
  -------         PROC          LCD_CLEAR_MHZ_ICO
  C:35A1H         LINE#         123
  C:35A1H         LINE#         124
  C:35A4H         LINE#         125
  C:35A7H         LINE#         126
  -------         ENDPROC       LCD_CLEAR_MHZ_ICO
  -------         PROC          LCD_SHOW_MHZ_ICO
  C:35A8H         LINE#         127
  C:35A8H         LINE#         128
  C:35ABH         LINE#         129
  C:35AEH         LINE#         130
  -------         ENDPROC       LCD_SHOW_MHZ_ICO
  -------         PROC          LCD_CLEAR_BAZOOKA_ICO
  C:35AFH         LINE#         131
  C:35AFH         LINE#         132
  C:35B2H         LINE#         133
  C:35B5H         LINE#         134
  -------         ENDPROC       LCD_CLEAR_BAZOOKA_ICO
  -------         PROC          LCD_SHOW_BAZOOKA_ICO
  C:35B6H         LINE#         135
  C:35B6H         LINE#         136
  C:35B9H         LINE#         137
  C:35BCH         LINE#         138
  -------         ENDPROC       LCD_SHOW_BAZOOKA_ICO
  -------         PROC          LCD_CLEAR_UPCOLON_ICO
  C:35BDH         LINE#         144
  C:35BDH         LINE#         145
  C:35C0H         LINE#         146
  C:35C3H         LINE#         147
  -------         ENDPROC       LCD_CLEAR_UPCOLON_ICO
  -------         PROC          LCD_SHOW_UPCOLON_ICO
  C:35C4H         LINE#         148
  C:35C4H         LINE#         149
  C:35C7H         LINE#         150
  C:35CAH         LINE#         151
  -------         ENDPROC       LCD_SHOW_UPCOLON_ICO
  -------         PROC          LCD_CLEAR_DOWNCOLON_ICO
  C:35CBH         LINE#         152
  C:35CBH         LINE#         153
  C:35CEH         LINE#         154
  C:35D1H         LINE#         155
  -------         ENDPROC       LCD_CLEAR_DOWNCOLON_ICO
  -------         PROC          LCD_SHOW_DOWNCOLON_ICO
  C:35D2H         LINE#         156
  C:35D2H         LINE#         157
  C:35D5H         LINE#         158
  C:35D8H         LINE#         159
  -------         ENDPROC       LCD_SHOW_DOWNCOLON_ICO
  -------         PROC          LCD_CLEAR_COLON_ICO
BL51 BANKED LINKER/LOCATER V6.22                                                      09/05/2017  23:07:02  PAGE 35


  C:35F8H         LINE#         160
  C:35F8H         LINE#         161
  C:35FBH         LINE#         162
  -------         ENDPROC       LCD_CLEAR_COLON_ICO
  -------         PROC          LCD_SHOW_COLON_ICO
  C:35FEH         LINE#         164
  C:35FEH         LINE#         165
  C:3601H         LINE#         166
  -------         ENDPROC       LCD_SHOW_COLON_ICO
  -------         PROC          _LCD_CLEAR_MI
  D:0007H         SYMBOL        n
  C:2215H         LINE#         168
  C:2215H         LINE#         169
  C:223DH         LINE#         170
  C:223DH         LINE#         171
  C:2240H         LINE#         172
  C:2243H         LINE#         174
  C:2246H         LINE#         175
  C:2249H         LINE#         177
  C:224CH         LINE#         178
  C:224FH         LINE#         180
  C:2252H         LINE#         181
  C:2252H         LINE#         182
  C:2255H         LINE#         183
  C:2255H         LINE#         184
  C:2258H         LINE#         185
  C:225BH         LINE#         187
  C:225EH         LINE#         188
  C:2261H         LINE#         190
  C:2264H         LINE#         191
  C:2267H         LINE#         193
  C:226AH         LINE#         194
  C:226AH         LINE#         195
  C:226DH         LINE#         196
  C:226DH         LINE#         197
  C:2270H         LINE#         198
  C:2273H         LINE#         200
  C:2276H         LINE#         201
  C:2279H         LINE#         203
  C:227CH         LINE#         204
  C:227FH         LINE#         206
  C:2282H         LINE#         207
  C:2282H         LINE#         208
  C:2284H         LINE#         209
  C:2284H         LINE#         210
  C:2287H         LINE#         211
  C:228AH         LINE#         213
  C:228DH         LINE#         214
  C:2290H         LINE#         216
  C:2293H         LINE#         217
  C:2296H         LINE#         219
  C:2299H         LINE#         220
  C:2299H         LINE#         221
  C:229BH         LINE#         222
  C:229BH         LINE#         223
  C:229EH         LINE#         224
  C:22A1H         LINE#         226
BL51 BANKED LINKER/LOCATER V6.22                                                      09/05/2017  23:07:02  PAGE 36


  C:22A4H         LINE#         227
  C:22A7H         LINE#         229
  C:22AAH         LINE#         230
  C:22ADH         LINE#         232
  C:22B0H         LINE#         233
  C:22B0H         LINE#         234
  C:22B2H         LINE#         235
  C:22B2H         LINE#         236
  C:22B5H         LINE#         237
  C:22B8H         LINE#         239
  C:22BBH         LINE#         240
  C:22BEH         LINE#         242
  C:22C1H         LINE#         243
  C:22C4H         LINE#         245
  C:22C7H         LINE#         246
  C:22C7H         LINE#         247
  C:22C9H         LINE#         248
  C:22C9H         LINE#         249
  C:22CCH         LINE#         250
  C:22CFH         LINE#         252
  C:22D2H         LINE#         253
  C:22D5H         LINE#         255
  C:22D8H         LINE#         256
  C:22DBH         LINE#         258
  C:22DEH         LINE#         259
  C:22DEH         LINE#         260
  C:22E0H         LINE#         261
  C:22E0H         LINE#         262
  C:22E3H         LINE#         263
  C:22E6H         LINE#         265
  C:22E9H         LINE#         266
  C:22ECH         LINE#         268
  C:22EFH         LINE#         269
  C:22F2H         LINE#         271
  C:22F5H         LINE#         272
  C:22F8H         LINE#         273
  C:22F8H         LINE#         274
  C:22F8H         LINE#         275
  -------         ENDPROC       _LCD_CLEAR_MI
  -------         PROC          LCD_CLEAR_MI_ALL
  -------         DO            
  D:0006H         SYMBOL        i
  -------         ENDDO         
  C:349EH         LINE#         276
  C:349EH         LINE#         277
  C:34A0H         LINE#         278
  C:34A0H         LINE#         279
  C:34A5H         LINE#         280
  C:34AAH         LINE#         281
  -------         ENDPROC       LCD_CLEAR_MI_ALL
  -------         PROC          _LCD_SHOWCHAR
  D:0007H         SYMBOL        n
  D:0005H         SYMBOL        c
  C:005EH         LINE#         282
  C:005EH         LINE#         283
  C:0067H         LINE#         285
  C:0067H         LINE#         287
BL51 BANKED LINKER/LOCATER V6.22                                                      09/05/2017  23:07:02  PAGE 37


  C:0070H         LINE#         288
  C:0072H         LINE#         289
  C:0078H         LINE#         290
  C:007AH         LINE#         291
  C:0080H         LINE#         292
  C:0082H         LINE#         293
  C:0088H         LINE#         294
  C:008AH         LINE#         295
  C:0090H         LINE#         296
  C:0092H         LINE#         297
  C:0092H         LINE#         298
  C:0145H         LINE#         299
  C:0145H         LINE#         300
  C:0151H         LINE#         301
  C:0154H         LINE#         302
  C:0157H         LINE#         304
  C:015DH         LINE#         305
  C:0160H         LINE#         306
  C:0163H         LINE#         308
  C:0169H         LINE#         309
  C:016CH         LINE#         311
  C:016CH         LINE#         312
  C:016CH         LINE#         313
  C:016FH         LINE#         314
  C:016FH         LINE#         315
  C:017BH         LINE#         316
  C:017EH         LINE#         318
  C:0184H         LINE#         319
  C:0187H         LINE#         321
  C:018DH         LINE#         322
  C:0190H         LINE#         324
  C:0190H         LINE#         325
  C:0190H         LINE#         326
  C:0193H         LINE#         327
  C:0193H         LINE#         328
  C:019FH         LINE#         329
  C:01A2H         LINE#         330
  C:01A5H         LINE#         332
  C:01A5H         LINE#         333
  C:01A5H         LINE#         334
  C:01A5H         LINE#         336
  C:01A5H         LINE#         337
  C:01A5H         LINE#         339
  C:01A5H         LINE#         340
  C:01A5H         LINE#         341
  C:01A8H         LINE#         342
  C:01A8H         LINE#         343
  C:01B4H         LINE#         344
  C:01B7H         LINE#         345
  C:01BAH         LINE#         347
  C:01BAH         LINE#         348
  C:01BAH         LINE#         349
  C:01BAH         LINE#         351
  C:01BAH         LINE#         352
  C:01BAH         LINE#         354
  C:01BAH         LINE#         355
  C:01BAH         LINE#         356
BL51 BANKED LINKER/LOCATER V6.22                                                      09/05/2017  23:07:02  PAGE 38


  C:01BDH         LINE#         357
  C:01BDH         LINE#         358
  C:01C9H         LINE#         359
  C:01CCH         LINE#         360
  C:01CFH         LINE#         362
  C:01CFH         LINE#         363
  C:01CFH         LINE#         365
  C:01CFH         LINE#         366
  C:01CFH         LINE#         368
  C:01CFH         LINE#         369
  C:01CFH         LINE#         370
  C:01D2H         LINE#         371
  C:01D2H         LINE#         372
  C:01DEH         LINE#         373
  C:01E1H         LINE#         374
  C:01E4H         LINE#         376
  C:01E4H         LINE#         377
  C:01E4H         LINE#         378
  C:01E4H         LINE#         380
  C:01E4H         LINE#         381
  C:01E4H         LINE#         383
  C:01E4H         LINE#         384
  C:01E4H         LINE#         385
  C:01E7H         LINE#         386
  C:01E7H         LINE#         387
  C:01F3H         LINE#         388
  C:01F6H         LINE#         390
  C:01F6H         LINE#         391
  C:01F6H         LINE#         392
  C:01F6H         LINE#         394
  C:01F6H         LINE#         395
  C:01F6H         LINE#         397
  C:01F6H         LINE#         398
  C:01F6H         LINE#         399
  C:01F9H         LINE#         400
  C:01F9H         LINE#         401
  C:0205H         LINE#         402
  C:0208H         LINE#         404
  C:020EH         LINE#         405
  C:0211H         LINE#         406
  C:0214H         LINE#         408
  C:021AH         LINE#         409
  C:021DH         LINE#         411
  C:021DH         LINE#         412
  C:021DH         LINE#         413
  C:0220H         LINE#         414
  C:0220H         LINE#         415
  C:022CH         LINE#         416
  C:022FH         LINE#         418
  C:022FH         LINE#         419
  C:022FH         LINE#         420
  C:022FH         LINE#         422
  C:022FH         LINE#         423
  C:022FH         LINE#         425
  C:022FH         LINE#         426
  C:022FH         LINE#         427
  C:0232H         LINE#         428
BL51 BANKED LINKER/LOCATER V6.22                                                      09/05/2017  23:07:02  PAGE 39


  C:0232H         LINE#         429
  C:023EH         LINE#         430
  C:0241H         LINE#         431
  C:0244H         LINE#         433
  C:0244H         LINE#         434
  C:0244H         LINE#         435
  C:0244H         LINE#         437
  C:0244H         LINE#         438
  C:0244H         LINE#         440
  C:0244H         LINE#         441
  C:0244H         LINE#         442
  C:0247H         LINE#         443
  C:0247H         LINE#         444
  C:024AH         LINE#         445
  C:024AH         LINE#         446
  C:024AH         LINE#         447
  C:0256H         LINE#         448
  C:0259H         LINE#         450
  C:0259H         LINE#         451
  C:0259H         LINE#         452
  C:0259H         LINE#         454
  C:0259H         LINE#         455
  C:0259H         LINE#         457
  C:0259H         LINE#         458
  C:0259H         LINE#         459
  C:025CH         LINE#         460
  C:025CH         LINE#         461
  C:0268H         LINE#         462
  C:026BH         LINE#         464
  C:0271H         LINE#         465
  C:0274H         LINE#         466
  C:0277H         LINE#         468
  C:027DH         LINE#         469
  C:0280H         LINE#         471
  C:0280H         LINE#         472
  C:0280H         LINE#         473
  C:0283H         LINE#         474
  C:0283H         LINE#         475
  C:028FH         LINE#         476
  C:0292H         LINE#         477
  C:0295H         LINE#         479
  C:029BH         LINE#         480
  C:029EH         LINE#         481
  C:02A1H         LINE#         483
  C:02A1H         LINE#         484
  C:02A1H         LINE#         486
  C:02A1H         LINE#         487
  C:02A1H         LINE#         488
  C:02A4H         LINE#         489
  C:02A4H         LINE#         490
  C:02B0H         LINE#         491
  C:02B3H         LINE#         493
  C:02B9H         LINE#         494
  C:02BCH         LINE#         495
  C:02BFH         LINE#         497
  C:02C5H         LINE#         498
  C:02C8H         LINE#         500
BL51 BANKED LINKER/LOCATER V6.22                                                      09/05/2017  23:07:02  PAGE 40


  C:02C8H         LINE#         501
  C:02C8H         LINE#         502
  C:02CBH         LINE#         503
  C:02CBH         LINE#         504
  C:02D7H         LINE#         505
  C:02DAH         LINE#         507
  C:02E0H         LINE#         508
  C:02E3H         LINE#         509
  C:02E6H         LINE#         511
  C:02E6H         LINE#         512
  C:02E6H         LINE#         514
  C:02E6H         LINE#         515
  C:02E6H         LINE#         516
  C:02E9H         LINE#         517
  C:02E9H         LINE#         518
  C:02F5H         LINE#         519
  C:02F8H         LINE#         521
  C:02FEH         LINE#         522
  C:0301H         LINE#         523
  C:0304H         LINE#         525
  C:030AH         LINE#         526
  C:030DH         LINE#         528
  C:030DH         LINE#         529
  C:030DH         LINE#         530
  C:0310H         LINE#         531
  C:0310H         LINE#         532
  C:031CH         LINE#         533
  C:031FH         LINE#         534
  C:0322H         LINE#         536
  C:0328H         LINE#         537
  C:032BH         LINE#         538
  C:032EH         LINE#         540
  C:032EH         LINE#         541
  C:032EH         LINE#         543
  C:032EH         LINE#         544
  C:032EH         LINE#         545
  C:0331H         LINE#         546
  C:0331H         LINE#         547
  C:033DH         LINE#         548
  C:0340H         LINE#         550
  C:0346H         LINE#         551
  C:0349H         LINE#         553
  C:034FH         LINE#         554
  C:0352H         LINE#         556
  C:0352H         LINE#         557
  C:0352H         LINE#         558
  C:0355H         LINE#         559
  C:0355H         LINE#         560
  C:0361H         LINE#         561
  C:0364H         LINE#         563
  C:036AH         LINE#         564
  C:036DH         LINE#         565
  C:0370H         LINE#         567
  C:0376H         LINE#         568
  C:0379H         LINE#         570
  C:0379H         LINE#         571
  C:0379H         LINE#         572
BL51 BANKED LINKER/LOCATER V6.22                                                      09/05/2017  23:07:02  PAGE 41


  C:037CH         LINE#         573
  C:037CH         LINE#         574
  C:0388H         LINE#         575
  C:038BH         LINE#         576
  C:038EH         LINE#         578
  C:0394H         LINE#         579
  C:0397H         LINE#         581
  C:039DH         LINE#         582
  C:03A0H         LINE#         584
  C:03A0H         LINE#         585
  C:03A0H         LINE#         586
  C:03A3H         LINE#         587
  C:03A3H         LINE#         588
  C:03AFH         LINE#         589
  C:03B2H         LINE#         591
  C:03B8H         LINE#         592
  C:03BBH         LINE#         594
  C:03C1H         LINE#         595
  C:03C4H         LINE#         597
  C:03C4H         LINE#         598
  C:03C4H         LINE#         599
  C:03C7H         LINE#         600
  C:03C7H         LINE#         601
  C:03D3H         LINE#         602
  C:03D6H         LINE#         603
  C:03D9H         LINE#         605
  C:03DFH         LINE#         606
  C:03E2H         LINE#         608
  C:03E8H         LINE#         609
  C:03EBH         LINE#         611
  C:03EBH         LINE#         612
  C:03EBH         LINE#         613
  C:03EEH         LINE#         614
  C:03EEH         LINE#         615
  C:03FAH         LINE#         616
  C:03FDH         LINE#         617
  C:0400H         LINE#         619
  C:0406H         LINE#         620
  C:0409H         LINE#         621
  C:040CH         LINE#         623
  C:0412H         LINE#         624
  C:0415H         LINE#         626
  C:0415H         LINE#         627
  C:0415H         LINE#         628
  C:0418H         LINE#         629
  C:0418H         LINE#         630
  C:0424H         LINE#         631
  C:0427H         LINE#         632
  C:042AH         LINE#         634
  C:0430H         LINE#         635
  C:0433H         LINE#         636
  C:0436H         LINE#         638
  C:043CH         LINE#         639
  C:043FH         LINE#         641
  C:043FH         LINE#         642
  C:043FH         LINE#         643
  C:0442H         LINE#         644
BL51 BANKED LINKER/LOCATER V6.22                                                      09/05/2017  23:07:02  PAGE 42


  C:0442H         LINE#         645
  C:044EH         LINE#         646
  C:0451H         LINE#         647
  C:0454H         LINE#         649
  C:045AH         LINE#         650
  C:045DH         LINE#         651
  C:0460H         LINE#         653
  C:0466H         LINE#         654
  C:0469H         LINE#         656
  C:0469H         LINE#         657
  C:0469H         LINE#         658
  C:046CH         LINE#         659
  C:046CH         LINE#         660
  C:0478H         LINE#         661
  C:047BH         LINE#         663
  C:0481H         LINE#         664
  C:0484H         LINE#         665
  C:0487H         LINE#         667
  C:048DH         LINE#         668
  C:0490H         LINE#         670
  C:0490H         LINE#         671
  C:0490H         LINE#         672
  C:0493H         LINE#         673
  C:0493H         LINE#         674
  C:049FH         LINE#         675
  C:04A2H         LINE#         676
  C:04A5H         LINE#         678
  C:04ABH         LINE#         679
  C:04AEH         LINE#         680
  C:04B1H         LINE#         682
  C:04B7H         LINE#         683
  C:04BAH         LINE#         685
  C:04BAH         LINE#         686
  C:04BAH         LINE#         687
  C:04BDH         LINE#         688
  C:04BDH         LINE#         689
  C:04C9H         LINE#         690
  C:04CCH         LINE#         692
  C:04D2H         LINE#         693
  C:04D5H         LINE#         694
  C:04D8H         LINE#         696
  C:04DEH         LINE#         697
  C:04E1H         LINE#         699
  C:04E7H         LINE#         700
  C:04EAH         LINE#         701
  C:04EBH         LINE#         702
  C:04EBH         LINE#         703
  C:04EBH         LINE#         704
  C:04EBH         LINE#         705
  C:04F7H         LINE#         706
  C:04FAH         LINE#         708
  C:0500H         LINE#         709
  C:0503H         LINE#         710
  C:0506H         LINE#         712
  C:050CH         LINE#         713
  C:050FH         LINE#         715
  C:050FH         LINE#         716
BL51 BANKED LINKER/LOCATER V6.22                                                      09/05/2017  23:07:02  PAGE 43


  C:050FH         LINE#         717
  C:0512H         LINE#         718
  C:0512H         LINE#         719
  C:051EH         LINE#         720
  C:0521H         LINE#         721
  C:0524H         LINE#         723
  C:052AH         LINE#         724
  C:052DH         LINE#         726
  C:0533H         LINE#         727
  C:0536H         LINE#         729
  C:0536H         LINE#         730
  C:0536H         LINE#         731
  C:0539H         LINE#         732
  C:0539H         LINE#         733
  C:0545H         LINE#         734
  C:0548H         LINE#         736
  C:054EH         LINE#         737
  C:0551H         LINE#         738
  C:0554H         LINE#         740
  C:055AH         LINE#         741
  C:055DH         LINE#         743
  C:0563H         LINE#         744
  C:0566H         LINE#         745
  C:0567H         LINE#         746
  C:0567H         LINE#         747
  C:0573H         LINE#         748
  C:0576H         LINE#         749
  C:0579H         LINE#         751
  C:057FH         LINE#         752
  C:0582H         LINE#         754
  C:0588H         LINE#         755
  C:058BH         LINE#         757
  C:058BH         LINE#         758
  C:058BH         LINE#         759
  C:058EH         LINE#         760
  C:058EH         LINE#         761
  C:059AH         LINE#         762
  C:059DH         LINE#         764
  C:05A3H         LINE#         765
  C:05A6H         LINE#         766
  C:05A9H         LINE#         768
  C:05A9H         LINE#         769
  C:05A9H         LINE#         771
  C:05A9H         LINE#         772
  C:05A9H         LINE#         773
  C:05ACH         LINE#         774
  C:05ACH         LINE#         775
  C:05B8H         LINE#         776
  C:05BBH         LINE#         777
  C:05BEH         LINE#         779
  C:05C4H         LINE#         780
  C:05C7H         LINE#         782
  C:05CDH         LINE#         783
  C:05D0H         LINE#         785
  C:05D0H         LINE#         786
  C:05D0H         LINE#         787
  C:05D3H         LINE#         788
BL51 BANKED LINKER/LOCATER V6.22                                                      09/05/2017  23:07:02  PAGE 44


  C:05D3H         LINE#         789
  C:05DFH         LINE#         790
  C:05E2H         LINE#         791
  C:05E5H         LINE#         793
  C:05EBH         LINE#         794
  C:05EEH         LINE#         795
  C:05F1H         LINE#         797
  C:05F7H         LINE#         798
  C:05FAH         LINE#         800
  C:05FAH         LINE#         801
  C:05FAH         LINE#         802
  C:05FDH         LINE#         803
  C:05FDH         LINE#         804
  C:0609H         LINE#         805
  C:060CH         LINE#         806
  C:060FH         LINE#         808
  C:0615H         LINE#         809
  C:0618H         LINE#         810
  C:061BH         LINE#         812
  C:0621H         LINE#         813
  C:0624H         LINE#         815
  C:0624H         LINE#         816
  C:0624H         LINE#         817
  C:0627H         LINE#         818
  C:0627H         LINE#         819
  C:0633H         LINE#         820
  C:0636H         LINE#         822
  C:063CH         LINE#         823
  C:063FH         LINE#         825
  C:0645H         LINE#         826
  C:0648H         LINE#         828
  C:0648H         LINE#         829
  C:0648H         LINE#         830
  C:064BH         LINE#         831
  C:064BH         LINE#         832
  C:0657H         LINE#         833
  C:065AH         LINE#         834
  C:065DH         LINE#         836
  C:0663H         LINE#         837
  C:0666H         LINE#         839
  C:066CH         LINE#         840
  C:066FH         LINE#         842
  C:066FH         LINE#         843
  C:066FH         LINE#         844
  C:0672H         LINE#         845
  C:0672H         LINE#         846
  C:067EH         LINE#         847
  C:0681H         LINE#         848
  C:0684H         LINE#         850
  C:068AH         LINE#         851
  C:068DH         LINE#         853
  C:0693H         LINE#         854
  C:0696H         LINE#         856
  C:0696H         LINE#         857
  C:0696H         LINE#         858
  C:0699H         LINE#         859
  C:0699H         LINE#         860
BL51 BANKED LINKER/LOCATER V6.22                                                      09/05/2017  23:07:02  PAGE 45


  C:06A5H         LINE#         861
  C:06A8H         LINE#         863
  C:06AEH         LINE#         864
  C:06B1H         LINE#         865
  C:06B4H         LINE#         867
  C:06BAH         LINE#         868
  C:06BDH         LINE#         870
  C:06C3H         LINE#         871
  C:06C6H         LINE#         872
  C:06C7H         LINE#         873
  C:06C7H         LINE#         874
  C:06D3H         LINE#         875
  C:06D6H         LINE#         877
  C:06DCH         LINE#         878
  C:06DFH         LINE#         879
  C:06E2H         LINE#         881
  C:06E8H         LINE#         882
  C:06EBH         LINE#         884
  C:06EBH         LINE#         885
  C:06EBH         LINE#         886
  C:06EEH         LINE#         887
  C:06EEH         LINE#         888
  C:06EEH         LINE#         889
  C:06EEH         LINE#         890
  C:06FAH         LINE#         891
  C:06FDH         LINE#         893
  C:0703H         LINE#         894
  C:0706H         LINE#         896
  C:070CH         LINE#         897
  C:070FH         LINE#         899
  C:070FH         LINE#         900
  C:070FH         LINE#         901
  C:0712H         LINE#         902
  C:0712H         LINE#         903
  C:071EH         LINE#         904
  C:0721H         LINE#         906
  C:0727H         LINE#         907
  C:072AH         LINE#         909
  C:0730H         LINE#         910
  C:0733H         LINE#         912
  C:0733H         LINE#         913
  C:0733H         LINE#         914
  C:0736H         LINE#         915
  C:0736H         LINE#         916
  C:0742H         LINE#         917
  C:0745H         LINE#         919
  C:074BH         LINE#         920
  C:074EH         LINE#         922
  C:0754H         LINE#         923
  C:0757H         LINE#         925
  C:075DH         LINE#         926
  C:0760H         LINE#         927
  C:0761H         LINE#         928
  C:0761H         LINE#         929
  C:076DH         LINE#         930
  C:0770H         LINE#         932
  C:0776H         LINE#         933
BL51 BANKED LINKER/LOCATER V6.22                                                      09/05/2017  23:07:02  PAGE 46


  C:0779H         LINE#         935
  C:077FH         LINE#         936
  C:0782H         LINE#         938
  C:0788H         LINE#         939
  C:078BH         LINE#         940
  C:078CH         LINE#         941
  C:078CH         LINE#         942
  C:078CH         LINE#         943
  C:078CH         LINE#         944
  C:0798H         LINE#         945
  C:079BH         LINE#         946
  C:079EH         LINE#         948
  C:07A4H         LINE#         949
  C:07A7H         LINE#         951
  C:07ADH         LINE#         952
  C:07B0H         LINE#         954
  C:07B0H         LINE#         955
  C:07B0H         LINE#         956
  C:07B2H         LINE#         957
  C:07B2H         LINE#         958
  C:07BEH         LINE#         959
  C:07C1H         LINE#         960
  C:07C4H         LINE#         962
  C:07CAH         LINE#         963
  C:07CDH         LINE#         965
  C:07D3H         LINE#         966
  C:07D6H         LINE#         968
  C:07D6H         LINE#         969
  C:07D6H         LINE#         970
  C:07D8H         LINE#         971
  C:07D8H         LINE#         972
  C:07E4H         LINE#         973
  C:07E7H         LINE#         974
  C:07EAH         LINE#         976
  C:07F0H         LINE#         977
  C:07F3H         LINE#         979
  C:07F9H         LINE#         980
  C:07FCH         LINE#         982
  C:0802H         LINE#         983
  C:0805H         LINE#         984
  C:0806H         LINE#         985
  C:0806H         LINE#         986
  C:0806H         LINE#         987
  C:0806H         LINE#         988
  C:0812H         LINE#         989
  C:0815H         LINE#         990
  C:0818H         LINE#         992
  C:081EH         LINE#         993
  C:0821H         LINE#         994
  C:0824H         LINE#         996
  C:082AH         LINE#         997
  C:082DH         LINE#         999
  C:0833H         LINE#         1000
  C:0836H         LINE#         1001
  C:0837H         LINE#         1002
  C:0837H         LINE#         1003
  C:0843H         LINE#         1004
BL51 BANKED LINKER/LOCATER V6.22                                                      09/05/2017  23:07:02  PAGE 47


  C:0846H         LINE#         1006
  C:084CH         LINE#         1007
  C:084FH         LINE#         1009
  C:0855H         LINE#         1010
  C:0858H         LINE#         1012
  C:0858H         LINE#         1013
  C:0858H         LINE#         1014
  C:085AH         LINE#         1015
  C:085AH         LINE#         1016
  C:085AH         LINE#         1017
  C:085AH         LINE#         1018
  C:0866H         LINE#         1019
  C:0869H         LINE#         1021
  C:086FH         LINE#         1022
  C:0872H         LINE#         1024
  C:0878H         LINE#         1025
  C:087BH         LINE#         1027
  C:0881H         LINE#         1028
  C:0884H         LINE#         1029
  C:0885H         LINE#         1030
  C:0885H         LINE#         1031
  C:0891H         LINE#         1032
  C:0894H         LINE#         1033
  C:0897H         LINE#         1035
  C:089DH         LINE#         1036
  C:08A0H         LINE#         1038
  C:08A6H         LINE#         1039
  C:08A9H         LINE#         1041
  C:08A9H         LINE#         1042
  C:08A9H         LINE#         1043
  C:08ABH         LINE#         1044
  C:08ABH         LINE#         1045
  C:08B7H         LINE#         1046
  C:08BAH         LINE#         1048
  C:08C0H         LINE#         1049
  C:08C3H         LINE#         1051
  C:08C9H         LINE#         1052
  C:08CCH         LINE#         1054
  C:08D2H         LINE#         1055
  C:08D5H         LINE#         1056
  C:08D6H         LINE#         1057
  C:08D6H         LINE#         1058
  C:08E2H         LINE#         1059
  C:08E5H         LINE#         1060
  C:08E8H         LINE#         1062
  C:08EEH         LINE#         1063
  C:08F1H         LINE#         1065
  C:08F7H         LINE#         1066
  C:08FAH         LINE#         1068
  C:0900H         LINE#         1069
  C:0903H         LINE#         1070
  C:0904H         LINE#         1071
  C:0904H         LINE#         1072
  C:0904H         LINE#         1073
  C:0904H         LINE#         1074
  C:0910H         LINE#         1075
  C:0913H         LINE#         1077
BL51 BANKED LINKER/LOCATER V6.22                                                      09/05/2017  23:07:02  PAGE 48


  C:0919H         LINE#         1078
  C:091CH         LINE#         1079
  C:091FH         LINE#         1081
  C:0925H         LINE#         1082
  C:0928H         LINE#         1084
  C:0928H         LINE#         1085
  C:0928H         LINE#         1086
  C:092AH         LINE#         1087
  C:092AH         LINE#         1088
  C:0936H         LINE#         1089
  C:0939H         LINE#         1091
  C:093FH         LINE#         1092
  C:0942H         LINE#         1093
  C:0945H         LINE#         1095
  C:094BH         LINE#         1096
  C:094EH         LINE#         1098
  C:0954H         LINE#         1099
  C:0957H         LINE#         1100
  C:0957H         LINE#         1102
  C:0957H         LINE#         1103
  -------         ENDPROC       _LCD_SHOWCHAR
  -------         PROC          _LCD_SHOWSTRING
  X:001AH         SYMBOL        s
  -------         DO            
  X:001DH         SYMBOL        i
  D:0007H         SYMBOL        len
  B:0020H.0       SYMBOL        b
  -------         ENDDO         
  C:2620H         LINE#         1105
  C:262BH         LINE#         1106
  C:262EH         LINE#         1107
  C:262FH         LINE#         1108
  C:2631H         LINE#         1110
  C:2638H         LINE#         1112
  C:2638H         LINE#         1113
  C:2646H         LINE#         1114
  C:264CH         LINE#         1115
  C:2651H         LINE#         1116
  C:266DH         LINE#         1117
  C:267AH         LINE#         1118
  C:267AH         LINE#         1119
  C:2689H         LINE#         1120
  C:268CH         LINE#         1121
  C:26A2H         LINE#         1122
  C:26A2H         LINE#         1123
  C:26A4H         LINE#         1124
  C:26A6H         LINE#         1125
  C:26ADH         LINE#         1126
  C:26ADH         LINE#         1127
  C:26AFH         LINE#         1128
  C:26B9H         LINE#         1129
  C:26B9H         LINE#         1130
  C:26C1H         LINE#         1131
  C:26C1H         LINE#         1133
  -------         ENDPROC       _LCD_SHOWSTRING
  -------         ENDMOD        BSP_DISPLAY

BL51 BANKED LINKER/LOCATER V6.22                                                      09/05/2017  23:07:02  PAGE 49


  -------         MODULE        BSP_TIMER0
  C:0000H         SYMBOL        _ICE_DUMMY_
  D:0080H         PUBLIC        P0
  D:0090H         PUBLIC        P1
  D:00A0H         PUBLIC        P2
  D:00B0H         PUBLIC        P3
  C:28F1H         PUBLIC        Timer0_ISR
  D:00D8H         PUBLIC        P5
  D:00A8H         PUBLIC        IE
  D:00B8H         PUBLIC        IP
  X:0099H         PUBLIC        Task_time
  C:3131H         PUBLIC        Timer0_InitHard
  X:00A2H         SYMBOL        u8TH0_tmp
  X:00A3H         SYMBOL        u8TL0_tmp
  D:0098H         PUBLIC        SCON
  D:0089H         PUBLIC        TMOD
  D:0088H         PUBLIC        TCON
  C:3078H         SYMBOL        timer0_ParamInit
  D:00F8H         PUBLIC        SCON_1
  B:00A8H.1       PUBLIC        ET0
  D:008CH         PUBLIC        TH0
  D:008AH         PUBLIC        TL0
  B:0088H.4       PUBLIC        TR0
  D:00E8H         PUBLIC        ADCCON0
  D:00C0H         PUBLIC        I2CON
  D:00C8H         PUBLIC        T2CON
  D:00D0H         PUBLIC        PSW
  -------         PROC          TIMER0_INITHARD
  C:3131H         LINE#         18
  C:3131H         LINE#         20
  C:3134H         LINE#         22
  C:3137H         LINE#         23
  C:313AH         LINE#         24
  C:313DH         LINE#         25
  C:3140H         LINE#         27
  C:3146H         LINE#         28
  C:314AH         LINE#         30
  C:314DH         LINE#         31
  C:314FH         LINE#         33
  C:3151H         LINE#         34
  C:3153H         LINE#         36
  -------         ENDPROC       TIMER0_INITHARD
  -------         PROC          TIMER0_PARAMINIT
  C:3078H         LINE#         38
  C:3078H         LINE#         39
  C:307EH         LINE#         40
  C:3083H         LINE#         41
  C:3087H         LINE#         42
  C:308DH         LINE#         44
  C:3091H         LINE#         45
  C:3095H         LINE#         46
  C:3099H         LINE#         47
  C:309DH         LINE#         49
  -------         ENDPROC       TIMER0_PARAMINIT
  -------         PROC          TIMER0_ISR
  C:28F1H         LINE#         51
  C:2902H         LINE#         52
BL51 BANKED LINKER/LOCATER V6.22                                                      09/05/2017  23:07:02  PAGE 50


  C:2902H         LINE#         54
  C:2908H         LINE#         55
  C:290CH         LINE#         57
  C:2917H         LINE#         58
  C:2919H         LINE#         59
  C:291CH         LINE#         61
  C:291CH         LINE#         63
  C:2927H         LINE#         64
  C:2929H         LINE#         65
  C:292CH         LINE#         67
  C:292CH         LINE#         68
  C:2937H         LINE#         69
  C:2939H         LINE#         70
  C:293CH         LINE#         71
  C:293CH         LINE#         72
  C:2951H         LINE#         73
  C:2958H         LINE#         74
  C:295BH         LINE#         76
  C:295BH         LINE#         78
  -------         ENDPROC       TIMER0_ISR
  -------         ENDMOD        BSP_TIMER0

  -------         MODULE        BSP_ADC
  C:0000H         SYMBOL        _ICE_DUMMY_
  D:00B1H         PUBLIC        P0M1
  D:00B2H         PUBLIC        P0M2
  D:0080H         PUBLIC        P0
  D:0090H         PUBLIC        P1
  D:00A0H         PUBLIC        P2
  D:00B0H         PUBLIC        P3
  D:00D8H         PUBLIC        P5
  B:00A8H.6       PUBLIC        EADC
  D:00A8H         PUBLIC        IE
  B:00E8H.0       PUBLIC        ADCHS0
  B:00E8H.1       PUBLIC        ADCHS1
  B:00E8H.2       PUBLIC        ADCHS2
  B:00E8H.3       PUBLIC        ADCHS3
  D:00B8H         PUBLIC        IP
  B:00E8H.6       PUBLIC        ADCS
  D:00F6H         PUBLIC        P0DIDS
  D:0098H         PUBLIC        SCON
  D:0088H         PUBLIC        TCON
  C:3198H         PUBLIC        ADC_Start
  C:2EE3H         PUBLIC        ADC_Init
  D:00F8H         PUBLIC        SCON_1
  D:00E8H         PUBLIC        ADCCON0
  D:00E1H         PUBLIC        ADCCON1
  D:00C0H         PUBLIC        I2CON
  D:00C8H         PUBLIC        T2CON
  I:0015H         PUBLIC        g_tADC_Result
  D:00D0H         PUBLIC        PSW
  -------         PROC          ADC_INIT
  C:2EE3H         LINE#         12
  C:2EE3H         LINE#         13
  C:2EE7H         LINE#         14
  C:2EEDH         LINE#         15
  C:2EF3H         LINE#         24
BL51 BANKED LINKER/LOCATER V6.22                                                      09/05/2017  23:07:02  PAGE 51


  C:2EF6H         LINE#         26
  C:2EF8H         LINE#         34
  C:2EFBH         LINE#         35
  C:2EFEH         LINE#         37
  C:2F01H         LINE#         38
  C:2F04H         LINE#         42
  C:2F07H         LINE#         43
  C:2F0AH         LINE#         45
  C:2F0DH         LINE#         46
  C:2F10H         LINE#         47
  C:2F13H         LINE#         49
  C:2F15H         LINE#         51
  -------         ENDPROC       ADC_INIT
  -------         PROC          ADC_START
  C:3198H         LINE#         53
  C:3198H         LINE#         54
  C:319DH         LINE#         55
  C:319FH         LINE#         56
  C:31A1H         LINE#         57
  C:31A3H         LINE#         58
  C:31A5H         LINE#         59
  C:31A7H         LINE#         60
  C:31A9H         LINE#         61
  C:31AAH         LINE#         62
  C:31AEH         LINE#         63
  C:31B0H         LINE#         64
  C:31B2H         LINE#         65
  C:31B4H         LINE#         66
  C:31B6H         LINE#         67
  C:31B8H         LINE#         68
  C:31B8H         LINE#         70
  -------         ENDPROC       ADC_START
  -------         ENDMOD        BSP_ADC

  -------         MODULE        BSP_KEYBRIGHT
  C:0000H         SYMBOL        _ICE_DUMMY_
  D:00B1H         PUBLIC        P0M1
  D:00B2H         PUBLIC        P0M2
  D:0080H         PUBLIC        P0
  D:0090H         PUBLIC        P1
  D:00A0H         PUBLIC        P2
  D:00B0H         PUBLIC        P3
  D:00D8H         PUBLIC        P5
  D:00A8H         PUBLIC        IE
  C:3617H         PUBLIC        key_bright_toggle
  D:00B8H         PUBLIC        IP
  C:351BH         PUBLIC        KEY_Bright_InitHard
  D:0098H         PUBLIC        SCON
  B:0080H.5       PUBLIC        P05
  D:0088H         PUBLIC        TCON
  D:00F8H         PUBLIC        SCON_1
  C:3611H         PUBLIC        key_bright_off
  D:00E8H         PUBLIC        ADCCON0
  D:00C0H         PUBLIC        I2CON
  D:00C8H         PUBLIC        T2CON
  C:3614H         PUBLIC        key_bright_on
  D:00D0H         PUBLIC        PSW
BL51 BANKED LINKER/LOCATER V6.22                                                      09/05/2017  23:07:02  PAGE 52


  -------         PROC          KEY_BRIGHT_INITHARD
  C:351BH         LINE#         10
  C:351BH         LINE#         12
  C:351EH         LINE#         13
  C:3521H         LINE#         15
  -------         ENDPROC       KEY_BRIGHT_INITHARD
  -------         PROC          KEY_BRIGHT_OFF
  C:3611H         LINE#         18
  C:3611H         LINE#         19
  C:3613H         LINE#         20
  -------         ENDPROC       KEY_BRIGHT_OFF
  -------         PROC          KEY_BRIGHT_ON
  C:3614H         LINE#         21
  C:3614H         LINE#         22
  C:3616H         LINE#         23
  -------         ENDPROC       KEY_BRIGHT_ON
  -------         PROC          KEY_BRIGHT_TOGGLE
  C:3617H         LINE#         24
  C:3617H         LINE#         25
  C:3619H         LINE#         26
  -------         ENDPROC       KEY_BRIGHT_TOGGLE
  -------         ENDMOD        BSP_KEYBRIGHT

  -------         MODULE        BSP_LCDBRIGHT
  C:0000H         SYMBOL        _ICE_DUMMY_
  D:00B1H         PUBLIC        P0M1
  D:00B2H         PUBLIC        P0M2
  D:0080H         PUBLIC        P0
  D:0090H         PUBLIC        P1
  D:00A0H         PUBLIC        P2
  D:00B0H         PUBLIC        P3
  D:00D8H         PUBLIC        P5
  D:00A8H         PUBLIC        IE
  C:3524H         PUBLIC        LCD_Bright_InitHard
  D:00B8H         PUBLIC        IP
  D:0098H         PUBLIC        SCON
  D:0088H         PUBLIC        TCON
  C:361AH         PUBLIC        lcd_bright_off
  B:0080H.6       PUBLIC        P06
  D:00F8H         PUBLIC        SCON_1
  C:361DH         PUBLIC        lcd_bright_on
  D:00E8H         PUBLIC        ADCCON0
  D:00C0H         PUBLIC        I2CON
  D:00C8H         PUBLIC        T2CON
  D:00D0H         PUBLIC        PSW
  -------         PROC          LCD_BRIGHT_INITHARD
  C:3524H         LINE#         10
  C:3524H         LINE#         12
  C:3527H         LINE#         13
  C:352AH         LINE#         15
  -------         ENDPROC       LCD_BRIGHT_INITHARD
  -------         PROC          LCD_BRIGHT_OFF
  C:361AH         LINE#         18
  C:361AH         LINE#         19
  C:361CH         LINE#         20
  -------         ENDPROC       LCD_BRIGHT_OFF
  -------         PROC          LCD_BRIGHT_ON
BL51 BANKED LINKER/LOCATER V6.22                                                      09/05/2017  23:07:02  PAGE 53


  C:361DH         LINE#         21
  C:361DH         LINE#         22
  C:361FH         LINE#         23
  -------         ENDPROC       LCD_BRIGHT_ON
  -------         ENDMOD        BSP_LCDBRIGHT

  -------         MODULE        BSP_2D4
  C:0000H         SYMBOL        _ICE_DUMMY_
  D:00B1H         PUBLIC        P0M1
  D:00B2H         PUBLIC        P0M2
  D:0080H         PUBLIC        P0
  D:0090H         PUBLIC        P1
  D:00ACH         PUBLIC        P3M1
  D:00A0H         PUBLIC        P2
  D:00B0H         PUBLIC        P3
  D:00ADH         PUBLIC        P3M2
  C:3623H         PUBLIC        SPI_init
  D:00D8H         PUBLIC        P5
  C:34C3H         PUBLIC        RF_ClearFIFO
  D:00A8H         PUBLIC        IE
  C:1FD5H         PUBLIC        RF_Init
  C:2DF4H         PUBLIC        _RF_ReadBuf
  C:3353H         PUBLIC        Wireless2d4_InitHard
  D:00B8H         PUBLIC        IP
  C:32B9H         PUBLIC        ucSPI_Read
  C:2D78H         PUBLIC        _RF_WriteBuf
  C:336AH         PUBLIC        _RF_WriteReg
  C:2FFEH         PUBLIC        _ucRF_DumpRxData
  B:0080H.3       PUBLIC        P03
  B:0080H.4       PUBLIC        P04
  D:0098H         PUBLIC        SCON
  D:0088H         PUBLIC        TCON
  C:3604H         PUBLIC        ucRF_GetRSSI
  B:00B0H.4       PUBLIC        P34
  C:2DB1H         PUBLIC        _RF_TxData
  C:310DH         SYMBOL        _?ix1000
  C:3112H         SYMBOL        _?ix1001
  C:3115H         SYMBOL        _?ix1002
  C:22F9H         PUBLIC        _RF_Carrier
  D:00F8H         PUBLIC        SCON_1
  C:311BH         SYMBOL        _?ix1003
  X:00ABH         PUBLIC        TX_ADDRESS_DEF
  C:311CH         SYMBOL        _?ix1004
  C:311FH         SYMBOL        _?ix1005
  C:3124H         SYMBOL        _?ix1006
  C:3127H         SYMBOL        _?ix1007
  C:312DH         SYMBOL        _?ix1008
  C:309EH         PUBLIC        RF_RxMode
  C:312EH         SYMBOL        _?ix1009
  C:3466H         PUBLIC        RF_TxMode
  D:00E8H         PUBLIC        ADCCON0
  D:00C0H         PUBLIC        I2CON
  C:3483H         PUBLIC        _RF_SetChannel
  D:00C8H         PUBLIC        T2CON
  C:35D9H         PUBLIC        RF_ClearStatus
  C:3379H         PUBLIC        _ucRF_ReadReg
  C:3154H         PUBLIC        _SPI_WR
BL51 BANKED LINKER/LOCATER V6.22                                                      09/05/2017  23:07:02  PAGE 54


  D:00D0H         PUBLIC        PSW
  C:31FAH         PUBLIC        _SPI_WW
  C:34E4H         PUBLIC        ucRF_GetStatus
  -------         PROC          WIRELESS2D4_INITHARD
  C:3353H         LINE#         10
  C:3353H         LINE#         13
  C:3356H         LINE#         14
  C:3359H         LINE#         17
  C:335CH         LINE#         18
  C:335FH         LINE#         21
  C:3362H         LINE#         22
  C:3365H         LINE#         24
  -------         ENDPROC       WIRELESS2D4_INITHARD
  -------         PROC          SPI_INIT
  C:3623H         LINE#         32
  C:3623H         LINE#         36
  -------         ENDPROC       SPI_INIT
  -------         PROC          _SPI_WW
  D:0007H         SYMBOL        R_REG
  -------         DO            
  D:0006H         SYMBOL        i
  -------         ENDDO         
  C:31FAH         LINE#         42
  C:31FAH         LINE#         44
  C:31FCH         LINE#         45
  C:31FEH         LINE#         46
  C:3202H         LINE#         47
  C:3204H         LINE#         48
  C:3206H         LINE#         49
  C:3208H         LINE#         50
  C:3208H         LINE#         51
  C:320CH         LINE#         52
  C:320EH         LINE#         53
  C:320FH         LINE#         54
  C:3214H         LINE#         55
  C:3216H         LINE#         57
  -------         ENDPROC       _SPI_WW
  C:3366H         SYMBOL        L?0058
  -------         PROC          L?0057
  -------         ENDPROC       L?0057
  C:3366H         SYMBOL        L?0058
  -------         PROC          _RF_WRITEREG
  D:0007H         SYMBOL        reg
  D:0005H         SYMBOL        wdata
  C:336AH         LINE#         63
  C:336AH         LINE#         64
  C:336CH         LINE#         65
  C:336DH         LINE#         66
  C:3370H         LINE#         67
  C:3375H         LINE#         68
  C:3376H         LINE#         69
  C:3378H         LINE#         70
  -------         ENDPROC       _RF_WRITEREG
  -------         PROC          L?0059
  -------         ENDPROC       L?0059
  -------         PROC          _RF_WRITEBUF
  D:0007H         SYMBOL        reg
BL51 BANKED LINKER/LOCATER V6.22                                                      09/05/2017  23:07:02  PAGE 55


  X:0015H         SYMBOL        pBuf
  X:0018H         SYMBOL        length
  -------         DO            
  D:0005H         SYMBOL        j
  -------         ENDDO         
  C:2D78H         LINE#         76
  C:2D83H         LINE#         78
  C:2D85H         LINE#         79
  C:2D87H         LINE#         80
  C:2D8AH         LINE#         81
  C:2D94H         LINE#         82
  C:2DABH         LINE#         83
  C:2DAEH         LINE#         84
  C:2DAEH         LINE#         85
  C:2DB0H         LINE#         86
  -------         ENDPROC       _RF_WRITEBUF
  -------         PROC          _SPI_WR
  D:0007H         SYMBOL        R_REG
  -------         DO            
  D:0006H         SYMBOL        i
  -------         ENDDO         
  C:3154H         LINE#         92
  C:3154H         LINE#         94
  C:3156H         LINE#         95
  C:3158H         LINE#         96
  C:315CH         LINE#         97
  C:315EH         LINE#         98
  C:3160H         LINE#         99
  C:3162H         LINE#         100
  C:3162H         LINE#         101
  C:3166H         LINE#         102
  C:3168H         LINE#         103
  C:3169H         LINE#         104
  C:316EH         LINE#         105
  C:3174H         LINE#         107
  C:3176H         LINE#         109
  -------         ENDPROC       _SPI_WR
  -------         PROC          UCSPI_READ
  -------         DO            
  D:0006H         SYMBOL        i
  D:0007H         SYMBOL        dt
  -------         ENDDO         
  C:32B9H         LINE#         115
  C:32B9H         LINE#         117
  C:32BBH         LINE#         118
  C:32BCH         LINE#         119
  C:32BEH         LINE#         120
  C:32C2H         LINE#         121
  C:32C4H         LINE#         122
  C:32C7H         LINE#         123
  C:32CAH         LINE#         124
  C:32CAH         LINE#         125
  C:32CFH         LINE#         126
  C:32D1H         LINE#         127
  C:32D1H         LINE#         128
  -------         ENDPROC       UCSPI_READ
  -------         PROC          _UCRF_READREG
BL51 BANKED LINKER/LOCATER V6.22                                                      09/05/2017  23:07:02  PAGE 56


  D:0007H         SYMBOL        reg
  -------         DO            
  D:0007H         SYMBOL        dt
  -------         ENDDO         
  C:3379H         LINE#         134
  C:3379H         LINE#         137
  C:337BH         LINE#         138
  C:337CH         LINE#         139
  C:337FH         LINE#         140
  C:3382H         LINE#         141
  C:3388H         LINE#         143
  C:3389H         LINE#         144
  C:338BH         LINE#         146
  C:338BH         LINE#         147
  -------         ENDPROC       _UCRF_READREG
  -------         PROC          _RF_READBUF
  D:0007H         SYMBOL        reg
  X:0003H         SYMBOL        pBuf
  X:0006H         SYMBOL        length
  -------         DO            
  D:0005H         SYMBOL        byte_ctr
  -------         ENDDO         
  C:2DF4H         LINE#         153
  C:2DFFH         LINE#         156
  C:2E01H         LINE#         157
  C:2E04H         LINE#         158
  C:2E10H         LINE#         159
  C:2E2AH         LINE#         160
  C:2E30H         LINE#         162
  C:2E32H         LINE#         163
  -------         ENDPROC       _RF_READBUF
  -------         PROC          RF_TXMODE
  C:3466H         LINE#         169
  C:3466H         LINE#         170
  C:3469H         LINE#         171
  C:3470H         LINE#         173
  C:3471H         LINE#         174
  C:3472H         LINE#         175
  C:3473H         LINE#         176
  C:3474H         LINE#         177
  -------         ENDPROC       RF_TXMODE
  -------         PROC          RF_RXMODE
  -------         DO            
  D:0006H         SYMBOL        i
  -------         ENDDO         
  C:309EH         LINE#         183
  C:309EH         LINE#         184
  C:30A0H         LINE#         185
  C:30A6H         LINE#         186
  C:30ADH         LINE#         187
  C:30B4H         LINE#         189
  C:30B7H         LINE#         190
  C:30B8H         LINE#         191
  C:30C3H         LINE#         193
  -------         ENDPROC       RF_RXMODE
  -------         PROC          UCRF_GETSTATUS
  C:34E4H         LINE#         199
BL51 BANKED LINKER/LOCATER V6.22                                                      09/05/2017  23:07:02  PAGE 57


  C:34E4H         LINE#         200
  C:34EDH         LINE#         201
  -------         ENDPROC       UCRF_GETSTATUS
  -------         PROC          UCRF_GETRSSI
  C:3604H         LINE#         206
  C:3604H         LINE#         207
  C:3609H         LINE#         208
  -------         ENDPROC       UCRF_GETRSSI
  -------         PROC          RF_CLEARSTATUS
  C:35D9H         LINE#         213
  C:35D9H         LINE#         214
  -------         ENDPROC       RF_CLEARSTATUS
  -------         PROC          RF_CLEARFIFO
  C:34C3H         LINE#         221
  C:34C3H         LINE#         222
  C:34CAH         LINE#         223
  -------         ENDPROC       RF_CLEARFIFO
  -------         PROC          _RF_SETCHANNEL
  D:0004H         SYMBOL        Channel
  C:3483H         LINE#         230
  C:3485H         LINE#         231
  C:3488H         LINE#         232
  -------         ENDPROC       _RF_SETCHANNEL
  -------         PROC          _RF_TXDATA
  D:0001H         SYMBOL        ucPayload
  D:0005H         SYMBOL        length
  -------         DO            
  X:0002H         SYMBOL        i
  -------         ENDDO         
  C:2DB1H         LINE#         242
  C:2DB1H         LINE#         243
  C:2DB7H         LINE#         244
  C:2DBDH         LINE#         245
  C:2DC7H         LINE#         246
  C:2DCEH         LINE#         248
  C:2DD5H         LINE#         249
  C:2DD6H         LINE#         250
  C:2DF0H         LINE#         251
  C:2DF3H         LINE#         252
  C:2DF3H         LINE#         253
  -------         ENDPROC       _RF_TXDATA
  -------         PROC          _UCRF_DUMPRXDATA
  D:0001H         SYMBOL        ucPayload
  D:0004H         SYMBOL        length
  C:2FFEH         LINE#         267
  C:3000H         LINE#         268
  C:3007H         LINE#         270
  C:300AH         LINE#         271
  C:3014H         LINE#         272
  C:3017H         LINE#         273
  C:301AH         LINE#         274
  C:3021H         LINE#         275
  C:3024H         LINE#         276
  C:3024H         LINE#         277
  C:3026H         LINE#         278
  -------         ENDPROC       _UCRF_DUMPRXDATA
  -------         PROC          RF_INIT
BL51 BANKED LINKER/LOCATER V6.22                                                      09/05/2017  23:07:02  PAGE 58


  -------         DO            
  X:0002H         SYMBOL        BB_cal_data
  X:0007H         SYMBOL        RF_cal_data
  X:000AH         SYMBOL        RF_cal2_data
  X:0010H         SYMBOL        Dem_cal_data
  X:0011H         SYMBOL        Dem_cal2_data
  -------         ENDDO         
  C:1FD5H         LINE#         288
  C:1FD5H         LINE#         289
  C:1FE8H         LINE#         290
  C:1FFBH         LINE#         291
  C:200EH         LINE#         292
  C:2021H         LINE#         293
  C:2034H         LINE#         294
  C:2037H         LINE#         295
  C:203EH         LINE#         296
  C:2045H         LINE#         298
  C:2045H         LINE#         299
  C:204CH         LINE#         300
  C:204CH         LINE#         301
  C:204CH         LINE#         302
  C:204CH         LINE#         303
  C:204FH         LINE#         304
  C:2054H         LINE#         305
  C:2059H         LINE#         306
  C:2060H         LINE#         307
  C:2067H         LINE#         308
  C:206EH         LINE#         309
  C:2075H         LINE#         310
  C:207CH         LINE#         311
  C:208DH         LINE#         313
  C:209EH         LINE#         315
  C:20A5H         LINE#         316
  C:20B6H         LINE#         317
  C:20C7H         LINE#         318
  C:20D8H         LINE#         319
  C:20E9H         LINE#         320
  C:20F0H         LINE#         321
  C:20F7H         LINE#         327
  C:20FEH         LINE#         328
  -------         ENDPROC       RF_INIT
  -------         PROC          _RF_CARRIER
  X:0042H         SYMBOL        ucChannel_Set
  -------         DO            
  D:0007H         SYMBOL        i
  X:0043H         SYMBOL        BB_cal_data
  X:0048H         SYMBOL        RF_cal_data
  X:004BH         SYMBOL        RF_cal2_data
  X:0051H         SYMBOL        Dem_cal_data
  X:0052H         SYMBOL        Dem_cal2_data
  -------         ENDDO         
  C:22F9H         LINE#         336
  C:22FEH         LINE#         337
  C:22FFH         LINE#         338
  C:2311H         LINE#         339
  C:2324H         LINE#         340
  C:2337H         LINE#         341
BL51 BANKED LINKER/LOCATER V6.22                                                      09/05/2017  23:07:02  PAGE 59


  C:234AH         LINE#         342
  C:235DH         LINE#         344
  C:2364H         LINE#         345
  C:236BH         LINE#         346
  C:2372H         LINE#         347
  C:2375H         LINE#         349
  C:2377H         LINE#         350
  C:2378H         LINE#         351
  C:2379H         LINE#         352
  C:237AH         LINE#         353
  C:237BH         LINE#         354
  C:2380H         LINE#         356
  C:238AH         LINE#         357
  C:2391H         LINE#         358
  C:2398H         LINE#         359
  C:23A9H         LINE#         360
  C:23BAH         LINE#         361
  C:23CBH         LINE#         362
  -------         ENDPROC       _RF_CARRIER
  -------         ENDMOD        BSP_2D4

  -------         MODULE        COMMON
  C:0000H         SYMBOL        _ICE_DUMMY_
  D:00B1H         PUBLIC        P0M1
  D:00B3H         PUBLIC        P1M1
  D:00B2H         PUBLIC        P0M2
  D:0080H         PUBLIC        P0
  D:00B5H         PUBLIC        P2M1
  D:00B4H         PUBLIC        P1M2
  D:0090H         PUBLIC        P1
  D:00B6H         PUBLIC        P2M2
  D:00ACH         PUBLIC        P3M1
  D:00A0H         PUBLIC        P2
  D:00DAH         PUBLIC        P4M1
  D:00B0H         PUBLIC        P3
  D:00ADH         PUBLIC        P3M2
  D:00DCH         PUBLIC        P5M1
  D:00DBH         PUBLIC        P4M2
  D:00DDH         PUBLIC        P5M2
  D:00D8H         PUBLIC        P5
  B:00A8H.7       PUBLIC        EA
  C:3285H         PUBLIC        Set_All_GPIO_Quasi_Mode
  C:3027H         PUBLIC        _InitialUART0_Timer1_Type1
  C:3050H         PUBLIC        _InitialUART0_Timer1_Type2
  C:2FAAH         PUBLIC        _InitialUART0_Timer1_Type3
  C:2FD4H         PUBLIC        _InitialUART0_Timer1_Type4
  D:00A8H         PUBLIC        IE
  D:0096H         PUBLIC        CKSWT
  C:29D1H         PUBLIC        _InitialUART0_Timer3_Type5
  C:329FH         PUBLIC        SW_Reset
  C:2A34H         PUBLIC        _InitialUART0_Timer3_Type6
  C:31DAH         PUBLIC        Set_All_GPIO_Input_Mode
  D:00C7H         PUBLIC        TA
  D:00B8H         PUBLIC        IP
  B:0098H.0       PUBLIC        RI
  C:1E90H         PUBLIC        _System_Clock_Select
  B:0098H.1       PUBLIC        TI
BL51 BANKED LINKER/LOCATER V6.22                                                      09/05/2017  23:07:02  PAGE 60


  D:0097H         PUBLIC        CKEN
  C:360AH         PUBLIC        Fsys_Clock_Output_On_P26
  B:00F8H.0       PUBLIC        RI_1
  B:00F8H.1       PUBLIC        TI_1
  D:0099H         PUBLIC        SBUF
  D:0087H         PUBLIC        PCON
  D:0098H         PUBLIC        SCON
  D:0089H         PUBLIC        TMOD
  D:0088H         PUBLIC        TCON
  D:009FH         PUBLIC        CHPCON
  D:009AH         PUBLIC        SBUF_1
  D:00F8H         PUBLIC        SCON_1
  D:00C6H         PUBLIC        R3H
  D:008DH         PUBLIC        TH1
  D:00C5H         PUBLIC        R3L
  C:2B57H         PUBLIC        _InitialUART1_Timer3
  B:0088H.6       PUBLIC        TR1
  D:00E8H         PUBLIC        ADCCON0
  C:3535H         PUBLIC        _Send_Data_To_UART0
  C:3545H         PUBLIC        _Send_Data_To_UART1
  D:00C0H         PUBLIC        I2CON
  D:00C8H         PUBLIC        T2CON
  D:00C4H         PUBLIC        T3CON
  C:352DH         PUBLIC        Receive_Data_From_UART0
  C:353DH         PUBLIC        Receive_Data_From_UART1
  D:008EH         PUBLIC        CKCON
  D:00D0H         PUBLIC        PSW
  C:2E70H         PUBLIC        _putchar
  -------         PROC          _SYSTEM_CLOCK_SELECT
  D:0007H         SYMBOL        clock
  C:1E90H         LINE#         25
  C:1E90H         LINE#         26
  C:1EAAH         LINE#         27
  C:1EAAH         LINE#         29
  C:1EBDH         LINE#         31
  C:1ED0H         LINE#         35
  C:1ED5H         LINE#         39
  C:1ED5H         LINE#         41
  C:1ED5H         LINE#         43
  C:1ED5H         LINE#         45
  C:1ED5H         LINE#         46
  C:1ED8H         LINE#         48
  C:1ED8H         LINE#         50
  C:1EEBH         LINE#         52
  C:1EFEH         LINE#         56
  C:1F03H         LINE#         60
  C:1F03H         LINE#         62
  C:1F03H         LINE#         64
  C:1F03H         LINE#         66
  C:1F03H         LINE#         67
  C:1F06H         LINE#         69
  C:1F06H         LINE#         70
  C:1F06H         LINE#         72
  C:1F19H         LINE#         76
  C:1F1EH         LINE#         80
  C:1F2DH         LINE#         82
  C:1F2DH         LINE#         84
BL51 BANKED LINKER/LOCATER V6.22                                                      09/05/2017  23:07:02  PAGE 61


  C:1F2DH         LINE#         86
  C:1F2DH         LINE#         87
  C:1F2FH         LINE#         89
  C:1F2FH         LINE#         91
  C:1F42H         LINE#         95
  C:1F47H         LINE#         99
  C:1F5AH         LINE#         101
  C:1F69H         LINE#         103
  C:1F69H         LINE#         105
  C:1F69H         LINE#         106
  C:1F6BH         LINE#         108
  C:1F6BH         LINE#         110
  C:1F7EH         LINE#         112
  C:1F91H         LINE#         116
  C:1F96H         LINE#         120
  C:1FA9H         LINE#         122
  C:1FBCH         LINE#         124
  C:1FCFH         LINE#         126
  C:1FCFH         LINE#         127
  C:1FCFH         LINE#         129
  C:1FCFH         LINE#         131
  C:1FD4H         LINE#         133
  -------         ENDPROC       _SYSTEM_CLOCK_SELECT
  -------         PROC          _INITIALUART0_TIMER1_TYPE1
  D:0004H         SYMBOL        u32Baudrate
  C:3027H         LINE#         137
  C:3027H         LINE#         138
  C:3027H         LINE#         139
  C:302AH         LINE#         140
  C:302DH         LINE#         142
  C:3030H         LINE#         143
  C:3033H         LINE#         144
  C:3036H         LINE#         147
  C:304DH         LINE#         152
  C:304FH         LINE#         153
  -------         ENDPROC       _INITIALUART0_TIMER1_TYPE1
  -------         PROC          _INITIALUART0_TIMER1_TYPE2
  D:0004H         SYMBOL        u32Baudrate
  C:3050H         LINE#         158
  C:3050H         LINE#         159
  C:3050H         LINE#         160
  C:3053H         LINE#         161
  C:3056H         LINE#         163
  C:3059H         LINE#         164
  C:305CH         LINE#         165
  C:305FH         LINE#         168
  C:3075H         LINE#         173
  C:3077H         LINE#         174
  -------         ENDPROC       _INITIALUART0_TIMER1_TYPE2
  -------         PROC          _INITIALUART0_TIMER1_TYPE3
  D:0004H         SYMBOL        u32Baudrate
  C:2FAAH         LINE#         179
  C:2FAAH         LINE#         180
  C:2FAAH         LINE#         181
  C:2FADH         LINE#         182
  C:2FB0H         LINE#         184
  C:2FB3H         LINE#         185
BL51 BANKED LINKER/LOCATER V6.22                                                      09/05/2017  23:07:02  PAGE 62


  C:2FB6H         LINE#         186
  C:2FB9H         LINE#         189
  C:2FD1H         LINE#         194
  C:2FD3H         LINE#         195
  -------         ENDPROC       _INITIALUART0_TIMER1_TYPE3
  -------         PROC          _INITIALUART0_TIMER1_TYPE4
  D:0004H         SYMBOL        u32Baudrate
  C:2FD4H         LINE#         200
  C:2FD4H         LINE#         201
  C:2FD4H         LINE#         202
  C:2FD7H         LINE#         203
  C:2FDAH         LINE#         205
  C:2FDDH         LINE#         206
  C:2FE0H         LINE#         207
  C:2FE3H         LINE#         210
  C:2FFBH         LINE#         215
  C:2FFDH         LINE#         216
  -------         ENDPROC       _INITIALUART0_TIMER1_TYPE4
  -------         PROC          _INITIALUART0_TIMER3_TYPE5
  X:00B0H         SYMBOL        u32Baudrate
  C:29D1H         LINE#         218
  C:29D7H         LINE#         219
  C:29D7H         LINE#         220
  C:29DAH         LINE#         221
  C:29DDH         LINE#         222
  C:29E0H         LINE#         223
  C:29E3H         LINE#         226
  C:2A11H         LINE#         227
  C:2A30H         LINE#         233
  C:2A33H         LINE#         234
  -------         ENDPROC       _INITIALUART0_TIMER3_TYPE5
  -------         PROC          _INITIALUART0_TIMER3_TYPE6
  X:00B4H         SYMBOL        u32Baudrate
  C:2A34H         LINE#         236
  C:2A3AH         LINE#         237
  C:2A3AH         LINE#         238
  C:2A3DH         LINE#         239
  C:2A40H         LINE#         240
  C:2A43H         LINE#         241
  C:2A46H         LINE#         244
  C:2A74H         LINE#         245
  C:2A93H         LINE#         251
  C:2A96H         LINE#         252
  -------         ENDPROC       _INITIALUART0_TIMER3_TYPE6
  -------         PROC          _INITIALUART1_TIMER3
  X:00B8H         SYMBOL        u32Baudrate
  C:2B57H         LINE#         254
  C:2B5DH         LINE#         255
  C:2B5DH         LINE#         256
  C:2B60H         LINE#         257
  C:2B63H         LINE#         260
  C:2B91H         LINE#         261
  C:2BB0H         LINE#         267
  C:2BB3H         LINE#         268
  -------         ENDPROC       _INITIALUART1_TIMER3
  -------         PROC          RECEIVE_DATA_FROM_UART0
  -------         DO            
BL51 BANKED LINKER/LOCATER V6.22                                                      09/05/2017  23:07:02  PAGE 63


  D:0007H         SYMBOL        c
  -------         ENDDO         
  C:352DH         LINE#         280
  C:352DH         LINE#         283
  C:3530H         LINE#         285
  C:3532H         LINE#         286
  C:3534H         LINE#         287
  C:3534H         LINE#         288
  -------         ENDPROC       RECEIVE_DATA_FROM_UART0
  -------         PROC          _SEND_DATA_TO_UART0
  D:0007H         SYMBOL        c
  C:3535H         LINE#         300
  C:3535H         LINE#         301
  C:3537H         LINE#         302
  C:3539H         LINE#         303
  C:353CH         LINE#         305
  -------         ENDPROC       _SEND_DATA_TO_UART0
  -------         PROC          RECEIVE_DATA_FROM_UART1
  -------         DO            
  D:0007H         SYMBOL        c
  -------         ENDDO         
  C:353DH         LINE#         317
  C:353DH         LINE#         320
  C:3540H         LINE#         322
  C:3542H         LINE#         323
  C:3544H         LINE#         324
  C:3544H         LINE#         325
  -------         ENDPROC       RECEIVE_DATA_FROM_UART1
  -------         PROC          _SEND_DATA_TO_UART1
  D:0007H         SYMBOL        c
  C:3545H         LINE#         337
  C:3545H         LINE#         338
  C:3547H         LINE#         339
  C:3549H         LINE#         340
  C:354CH         LINE#         342
  -------         ENDPROC       _SEND_DATA_TO_UART1
  -------         PROC          SET_ALL_GPIO_QUASI_MODE
  C:3285H         LINE#         344
  C:3285H         LINE#         345
  C:3288H         LINE#         346
  C:328AH         LINE#         347
  C:328CH         LINE#         348
  C:328EH         LINE#         349
  C:3290H         LINE#         350
  C:3292H         LINE#         351
  C:3294H         LINE#         352
  C:3296H         LINE#         353
  C:3298H         LINE#         354
  C:329AH         LINE#         355
  C:329CH         LINE#         356
  C:329EH         LINE#         357
  -------         ENDPROC       SET_ALL_GPIO_QUASI_MODE
  -------         PROC          SET_ALL_GPIO_INPUT_MODE
  C:31DAH         LINE#         359
  C:31DAH         LINE#         360
  C:31DDH         LINE#         361
  C:31E0H         LINE#         362
BL51 BANKED LINKER/LOCATER V6.22                                                      09/05/2017  23:07:02  PAGE 64


  C:31E3H         LINE#         363
  C:31E5H         LINE#         364
  C:31E8H         LINE#         365
  C:31EAH         LINE#         366
  C:31EDH         LINE#         367
  C:31EFH         LINE#         368
  C:31F2H         LINE#         369
  C:31F4H         LINE#         370
  C:31F7H         LINE#         371
  C:31F9H         LINE#         372
  -------         ENDPROC       SET_ALL_GPIO_INPUT_MODE
  -------         PROC          SW_RESET
  C:329FH         LINE#         375
  C:329FH         LINE#         376
  C:32A2H         LINE#         377
  C:32A5H         LINE#         378
  C:32B8H         LINE#         380
  -------         ENDPROC       SW_RESET
  -------         PROC          FSYS_CLOCK_OUTPUT_ON_P26
  C:360AH         LINE#         382
  C:360AH         LINE#         383
  C:360DH         LINE#         384
  -------         ENDPROC       FSYS_CLOCK_OUTPUT_ON_P26
  -------         PROC          _PUTCHAR
  D:0007H         SYMBOL        c
  C:2E70H         LINE#         393
  C:2E70H         LINE#         431
  C:2E75H         LINE#         432
  C:2E78H         LINE#         433
  C:2E7DH         LINE#         434
  C:2E7DH         LINE#         435
  C:2E7FH         LINE#         436
  C:2E82H         LINE#         438
  C:2E87H         LINE#         439
  C:2E89H         LINE#         440
  C:2E89H         LINE#         441
  C:2E89H         LINE#         442
  C:2E8CH         LINE#         444
  C:2E8EH         LINE#         445
  C:2E91H         LINE#         446
  C:2E91H         LINE#         447
  C:2E94H         LINE#         448
  C:2E99H         LINE#         449
  C:2E99H         LINE#         450
  C:2E9BH         LINE#         451
  C:2E9EH         LINE#         453
  C:2EA3H         LINE#         454
  C:2EA5H         LINE#         455
  C:2EA5H         LINE#         456
  C:2EA5H         LINE#         457
  C:2EA8H         LINE#         459
  C:2EAAH         LINE#         460
  C:2EACH         LINE#         462
  -------         ENDPROC       _PUTCHAR
  -------         ENDMOD        COMMON

  -------         MODULE        DELAY
BL51 BANKED LINKER/LOCATER V6.22                                                      09/05/2017  23:07:02  PAGE 65


  C:0000H         SYMBOL        _ICE_DUMMY_
  D:0080H         PUBLIC        P0
  D:0090H         PUBLIC        P1
  D:00A0H         PUBLIC        P2
  D:00B0H         PUBLIC        P3
  D:008FH         PUBLIC        WKCON
  D:00D8H         PUBLIC        P5
  D:00A8H         PUBLIC        IE
  D:00B8H         PUBLIC        IP
  C:2C6BH         PUBLIC        _Timer0_Delay1ms
  C:2CC4H         PUBLIC        _Timer1_Delay1ms
  C:2C10H         PUBLIC        _Timer3_Delay1ms
  D:0098H         PUBLIC        SCON
  D:0089H         PUBLIC        TMOD
  D:0088H         PUBLIC        TCON
  C:286EH         PUBLIC        _?Random_Delay
  C:31B9H         PUBLIC        _Delay10us
  D:00F8H         PUBLIC        SCON_1
  B:0088H.5       PUBLIC        TF0
  B:0088H.7       PUBLIC        TF1
  D:008CH         PUBLIC        TH0
  D:00C6H         PUBLIC        R3H
  D:008DH         PUBLIC        TH1
  D:008AH         PUBLIC        TL0
  C:2A97H         PUBLIC        _WakeUp_Timer_Delay25ms
  D:00C5H         PUBLIC        R3L
  D:008BH         PUBLIC        TL1
  B:0088H.4       PUBLIC        TR0
  B:0088H.6       PUBLIC        TR1
  D:00E8H         PUBLIC        ADCCON0
  D:00C0H         PUBLIC        I2CON
  D:00C8H         PUBLIC        T2CON
  D:00C4H         PUBLIC        T3CON
  D:008EH         PUBLIC        CKCON
  D:0086H         PUBLIC        RWK
  D:00D0H         PUBLIC        PSW
  -------         PROC          _?RANDOM_DELAY
  -------         DO            
  x:0000H         SYMBOL        u32CNT
  x:0004H         SYMBOL        u32Tmp
  -------         ENDDO         
  C:286EH         LINE#         36
  C:2874H         LINE#         37
  C:2874H         LINE#         41
  C:289FH         LINE#         42
  C:289FH         LINE#         43
  C:28C4H         LINE#         44
  C:28EBH         LINE#         45
  -------         ENDPROC       _?RANDOM_DELAY
  -------         PROC          _DELAY10US
  D:0006H         SYMBOL        u16CNT
  C:31B9H         LINE#         47
  C:31B9H         LINE#         48
  C:31BCH         LINE#         49
  C:31BFH         LINE#         50
  C:31C1H         LINE#         51
  C:31C5H         LINE#         52
BL51 BANKED LINKER/LOCATER V6.22                                                      09/05/2017  23:07:02  PAGE 66


  C:31C8H         LINE#         53
  C:31CBH         LINE#         54
  C:31CEH         LINE#         56
  C:31D0H         LINE#         57
  C:31D5H         LINE#         58
  C:31D7H         LINE#         59
  C:31D9H         LINE#         60
  -------         ENDPROC       _DELAY10US
  -------         PROC          _TIMER0_DELAY1MS
  X:00BCH         SYMBOL        u32CNT
  C:2C6BH         LINE#         62
  C:2C71H         LINE#         63
  C:2C74H         LINE#         64
  C:2C77H         LINE#         65
  C:2C79H         LINE#         66
  C:2C92H         LINE#         67
  C:2C95H         LINE#         68
  C:2C98H         LINE#         69
  C:2C9BH         LINE#         71
  C:2C9DH         LINE#         72
  C:2CBFH         LINE#         73
  C:2CC1H         LINE#         74
  C:2CC3H         LINE#         75
  -------         ENDPROC       _TIMER0_DELAY1MS
  -------         PROC          _TIMER1_DELAY1MS
  X:00C0H         SYMBOL        u32CNT
  C:2CC4H         LINE#         77
  C:2CCAH         LINE#         78
  C:2CCDH         LINE#         79
  C:2CD0H         LINE#         80
  C:2CD2H         LINE#         81
  C:2CEBH         LINE#         82
  C:2CEEH         LINE#         83
  C:2CF1H         LINE#         84
  C:2CF4H         LINE#         86
  C:2CF6H         LINE#         87
  C:2D18H         LINE#         88
  C:2D1AH         LINE#         89
  C:2D1CH         LINE#         90
  -------         ENDPROC       _TIMER1_DELAY1MS
  -------         PROC          _TIMER3_DELAY1MS
  X:00C4H         SYMBOL        u32CNT
  C:2C10H         LINE#         92
  C:2C16H         LINE#         93
  C:2C19H         LINE#         94
  C:2C1CH         LINE#         95
  C:2C35H         LINE#         96
  C:2C38H         LINE#         97
  C:2C3BH         LINE#         98
  C:2C40H         LINE#         100
  C:2C43H         LINE#         101
  C:2C65H         LINE#         102
  C:2C67H         LINE#         103
  C:2C6AH         LINE#         104
  -------         ENDPROC       _TIMER3_DELAY1MS
  -------         PROC          _WAKEUP_TIMER_DELAY25MS
  X:00C8H         SYMBOL        u32CNT
BL51 BANKED LINKER/LOCATER V6.22                                                      09/05/2017  23:07:02  PAGE 67


  C:2A97H         LINE#         106
  C:2A9DH         LINE#         107
  C:2A9DH         LINE#         108
  C:2AA0H         LINE#         109
  C:2AA3H         LINE#         110
  C:2AA6H         LINE#         112
  C:2AA9H         LINE#         114
  C:2AACH         LINE#         115
  C:2AAFH         LINE#         116
  C:2AC8H         LINE#         117
  C:2ACDH         LINE#         119
  C:2AD0H         LINE#         120
  C:2AF2H         LINE#         121
  C:2AF4H         LINE#         122
  C:2AF7H         LINE#         123
  -------         ENDPROC       _WAKEUP_TIMER_DELAY25MS
  -------         ENDMOD        DELAY

  -------         MODULE        VERSION
  C:0000H         SYMBOL        _ICE_DUMMY_
  D:0080H         PUBLIC        P0
  D:0090H         PUBLIC        P1
  D:00A0H         PUBLIC        P2
  D:00B0H         PUBLIC        P3
  D:00D8H         PUBLIC        P5
  D:00A8H         PUBLIC        IE
  D:00B8H         PUBLIC        IP
  D:0098H         PUBLIC        SCON
  D:0088H         PUBLIC        TCON
  D:00F8H         PUBLIC        SCON_1
  C:2AF8H         PUBLIC        Show_FW_Version_Number_To_PC
  D:00E8H         PUBLIC        ADCCON0
  D:00C0H         PUBLIC        I2CON
  D:00C8H         PUBLIC        T2CON
  D:00D0H         PUBLIC        PSW
  -------         PROC          SHOW_FW_VERSION_NUMBER_TO_PC
  C:2AF8H         LINE#         32
  C:2AF8H         LINE#         33
  C:2AF8H         LINE#         34
  C:2B01H         LINE#         35
  C:2B0AH         LINE#         36
  C:2B13H         LINE#         37
  C:2B2DH         LINE#         38
  C:2B4EH         LINE#         39
  -------         ENDPROC       SHOW_FW_VERSION_NUMBER_TO_PC
  -------         ENDMOD        VERSION

  -------         MODULE        ?C_STARTUP
  C:26C2H         SEGMENT       ?C_C51STARTUP
  I:00BEH         SEGMENT       ?STACK
  C:0000H         PUBLIC        ?C_STARTUP
  D:00E0H         SYMBOL        ACC
  D:00F0H         SYMBOL        B
  D:0083H         SYMBOL        DPH
  D:0082H         SYMBOL        DPL
  N:0000H         SYMBOL        IBPSTACK
  N:0100H         SYMBOL        IBPSTACKTOP
BL51 BANKED LINKER/LOCATER V6.22                                                      09/05/2017  23:07:02  PAGE 68


  N:0080H         SYMBOL        IDATALEN
  C:26C5H         SYMBOL        IDATALOOP
  N:0000H         SYMBOL        PBPSTACK
  N:0000H         SYMBOL        PBPSTACKTOP
  N:0000H         SYMBOL        PDATALEN
  N:0000H         SYMBOL        PDATASTART
  N:0000H         SYMBOL        PPAGE
  N:0000H         SYMBOL        PPAGEENABLE
  D:00A0H         SYMBOL        PPAGE_SFR
  D:0081H         SYMBOL        SP
  C:26C2H         SYMBOL        STARTUP1
  N:0000H         SYMBOL        XBPSTACK
  N:0000H         SYMBOL        XBPSTACKTOP
  N:00FFH         SYMBOL        XDATALEN
  C:26D0H         SYMBOL        XDATALOOP
  N:0000H         SYMBOL        XDATASTART
  C:0000H         LINE#         92
  C:26C2H         LINE#         99
  C:26C4H         LINE#         100
  C:26C5H         LINE#         101
  C:26C6H         LINE#         102
  C:26C8H         LINE#         106
  C:26CBH         LINE#         107
  C:26CDH         LINE#         109
  C:26CFH         LINE#         113
  C:26D0H         LINE#         114
  C:26D1H         LINE#         115
  C:26D2H         LINE#         116
  C:26D4H         LINE#         117
  C:26D6H         LINE#         151
  C:26D9H         LINE#         155
  -------         ENDMOD        ?C_STARTUP

  -------         MODULE        ?C?COPY
  C:1090H         PUBLIC        ?C?COPY
  -------         ENDMOD        ?C?COPY

  -------         MODULE        ?C?CLDPTR
  C:10B6H         PUBLIC        ?C?CLDPTR
  -------         ENDMOD        ?C?CLDPTR

  -------         MODULE        ?C?CLDOPTR
  C:10CFH         PUBLIC        ?C?CLDOPTR
  -------         ENDMOD        ?C?CLDOPTR

  -------         MODULE        ?C?CILDOPTR
  C:10FCH         PUBLIC        ?C?CILDOPTR
  -------         ENDMOD        ?C?CILDOPTR

  -------         MODULE        ?C?CSTOPTR
  C:112FH         PUBLIC        ?C?CSTOPTR
  -------         ENDMOD        ?C?CSTOPTR

  -------         MODULE        ?C?UIDIV
  C:1151H         PUBLIC        ?C?UIDIV
  -------         ENDMOD        ?C?UIDIV

BL51 BANKED LINKER/LOCATER V6.22                                                      09/05/2017  23:07:02  PAGE 69


  -------         MODULE        ?C?IILDX
  C:11A6H         PUBLIC        ?C?IILDX
  -------         ENDMOD        ?C?IILDX

  -------         MODULE        ?C?ILDOPTR
  C:11BCH         PUBLIC        ?C?ILDOPTR
  -------         ENDMOD        ?C?ILDOPTR

  -------         MODULE        ?C?IILDOPTR
  C:11F4H         PUBLIC        ?C?IILDOPTR
  -------         ENDMOD        ?C?IILDOPTR

  -------         MODULE        ?C?ISTOPTR
  C:1241H         PUBLIC        ?C?ISTOPTR
  -------         ENDMOD        ?C?ISTOPTR

  -------         MODULE        ?C?ULDIV
  C:12AAH         PUBLIC        ?C?ULDIV
  -------         ENDMOD        ?C?ULDIV

  -------         MODULE        ?C?ULCMP
  C:133CH         PUBLIC        ?C?ULCMP
  -------         ENDMOD        ?C?ULCMP

  -------         MODULE        ?C?ULSHR
  C:134DH         PUBLIC        ?C?ULSHR
  -------         ENDMOD        ?C?ULSHR

  -------         MODULE        ?C?LSTXDATA
  C:1360H         PUBLIC        ?C?LSTXDATA
  -------         ENDMOD        ?C?LSTXDATA

  -------         MODULE        ?C?LSTKXDATA
  C:136CH         PUBLIC        ?C?LSTKXDATA
  -------         ENDMOD        ?C?LSTKXDATA

  -------         MODULE        ?C?PLDPTR
  C:139DH         PUBLIC        ?C?PLDPTR
  -------         ENDMOD        ?C?PLDPTR

  -------         MODULE        ?C?CCASE
  C:13BDH         PUBLIC        ?C?CCASE
  -------         ENDMOD        ?C?CCASE

  -------         MODULE        ?C?ICALL
  C:13E3H         PUBLIC        ?C?ICALL
  C:13E7H         PUBLIC        ?C?ICALL2
  -------         ENDMOD        ?C?ICALL

  -------         MODULE        ?C_XBP
  D:000DH         PUBLIC        ?C_XBP
  -------         ENDMOD        ?C_XBP

  -------         MODULE        ?C?ADDXBP
  C:13E9H         PUBLIC        ?C?ADDXBP
  -------         ENDMOD        ?C?ADDXBP

BL51 BANKED LINKER/LOCATER V6.22                                                      09/05/2017  23:07:02  PAGE 70


  -------         MODULE        ?C?XBPOFF
  C:140DH         PUBLIC        ?C?XBPOFF
  -------         ENDMOD        ?C?XBPOFF

  -------         MODULE        PRINTF
  X:001AH         PUBLIC        ?_PRINTF517?BYTE
  X:001AH         PUBLIC        ?_PRINTF?BYTE
  X:001AH         PUBLIC        ?_SPRINTF517?BYTE
  X:001AH         PUBLIC        ?_SPRINTF?BYTE
  C:1A42H         PUBLIC        _PRINTF
  C:1A42H         PUBLIC        _PRINTF517
  C:1A3CH         PUBLIC        _SPRINTF
  C:1A3CH         PUBLIC        _SPRINTF517
  -------         ENDMOD        PRINTF

  -------         MODULE        ?C?STRCPY
  C:14E6H         PUBLIC        ?C?STRCPY
  -------         ENDMOD        ?C?STRCPY

  -------         MODULE        STRLEN
  C:3316H         PUBLIC        _STRLEN
  -------         ENDMOD        STRLEN

  -------         MODULE        ?C?MEMSET
  C:1503H         PUBLIC        ?C?MEMSET
  -------         ENDMOD        ?C?MEMSET

  -------         MODULE        ?C?CSTPTR
  C:152FH         PUBLIC        ?C?CSTPTR
  -------         ENDMOD        ?C?CSTPTR

  -------         MODULE        ?C?PLDIDATA
  C:1541H         PUBLIC        ?C?PLDIDATA
  -------         ENDMOD        ?C?PLDIDATA

  -------         MODULE        ?C?PLDXDATA
  C:154AH         PUBLIC        ?C?PLDXDATA
  -------         ENDMOD        ?C?PLDXDATA

  -------         MODULE        ?C?PLDIXDATA
  C:1553H         PUBLIC        ?C?PLDIXDATA
  -------         ENDMOD        ?C?PLDIXDATA

  -------         MODULE        ?C?PSTXDATA
  C:156AH         PUBLIC        ?C?PSTXDATA
  -------         ENDMOD        ?C?PSTXDATA

  -------         MODULE        ?C?PLDPDATA
  C:1573H         PUBLIC        ?C?PLDPDATA
  -------         ENDMOD        ?C?PLDPDATA

  -------         MODULE        ?C?PLDCODE
  C:157CH         PUBLIC        ?C?PLDCODE
  -------         ENDMOD        ?C?PLDCODE

Program Size: data=184.2 xdata=204 code=13860
LINK/LOCATE RUN COMPLETE.  0 WARNING(S),  0 ERROR(S)
