BL51 BANKED LINKER/LOCATER V6.22                                                        09/03/2017  16:51:00  PAGE 1


BL51 BANKED LINKER/LOCATER V6.22, INVOKED BY:
C:\KEIL_V5\C51\BIN\BL51.EXE .\Out\Objects\main.obj, .\Out\Objects\app_key.obj, .\Out\Objects\app_work.obj, .\Out\Objects
>> \app_repeat_exe.obj, .\Out\Objects\app_2d4.obj, .\Out\Objects\app_lcd.obj, .\Out\Objects\bsp.obj, .\Out\Objects\bsp_k
>> ey.obj, .\Out\Objects\bsp_display.obj, .\Out\Objects\bsp_uart.obj, .\Out\Objects\bsp_timer0.obj, .\Out\Objects\bsp_ti
>> mer1.obj, .\Out\Objects\bsp_adc.obj, .\Out\Objects\bsp_keyBright.obj, .\Out\Objects\bsp_lcdBright.obj, .\Out\Objects\
>> bsp_2d4.obj, .\Out\Objects\Common.obj, .\Out\Objects\Delay.obj, .\Out\Objects\Version.obj, .\Out\Objects\STARTUP.obj 
>> TO .\Out\Objects\project PRINT (.\Out\Listings\project.m51) RAMSIZE (256) DISABLEWARNING (16)


MEMORY MODEL: LARGE


INPUT MODULES INCLUDED:
  .\Out\Objects\main.obj (MAIN)
  .\Out\Objects\app_key.obj (APP_KEY)
  .\Out\Objects\app_work.obj (APP_WORK)
  .\Out\Objects\app_repeat_exe.obj (APP_REPEAT_EXE)
  .\Out\Objects\app_2d4.obj (APP_2D4)
  .\Out\Objects\app_lcd.obj (APP_LCD)
  .\Out\Objects\bsp.obj (BSP)
  .\Out\Objects\bsp_key.obj (BSP_KEY)
  .\Out\Objects\bsp_display.obj (BSP_DISPLAY)
  .\Out\Objects\bsp_uart.obj (BSP_UART)
  .\Out\Objects\bsp_timer0.obj (BSP_TIMER0)
  .\Out\Objects\bsp_timer1.obj (BSP_TIMER1)
  .\Out\Objects\bsp_adc.obj (BSP_ADC)
  .\Out\Objects\bsp_keyBright.obj (BSP_KEYBRIGHT)
  .\Out\Objects\bsp_lcdBright.obj (BSP_LCDBRIGHT)
  .\Out\Objects\bsp_2d4.obj (BSP_2D4)
  .\Out\Objects\Common.obj (COMMON)
  .\Out\Objects\Delay.obj (DELAY)
  .\Out\Objects\Version.obj (VERSION)
  .\Out\Objects\STARTUP.obj (?C_STARTUP)
  C:\KEIL_V5\C51\LIB\C51L.LIB (?C_INIT)
  C:\KEIL_V5\C51\LIB\C51L.LIB (?C?COPY)
  C:\KEIL_V5\C51\LIB\C51L.LIB (?C?CLDPTR)
  C:\KEIL_V5\C51\LIB\C51L.LIB (?C?CLDOPTR)
  C:\KEIL_V5\C51\LIB\C51L.LIB (?C?CILDOPTR)
  C:\KEIL_V5\C51\LIB\C51L.LIB (?C?CSTPTR)
  C:\KEIL_V5\C51\LIB\C51L.LIB (?C?CSTOPTR)
  C:\KEIL_V5\C51\LIB\C51L.LIB (?C?IILDX)
  C:\KEIL_V5\C51\LIB\C51L.LIB (?C?ILDOPTR)
  C:\KEIL_V5\C51\LIB\C51L.LIB (?C?IILDOPTR)
  C:\KEIL_V5\C51\LIB\C51L.LIB (?C?ISTOPTR)
  C:\KEIL_V5\C51\LIB\C51L.LIB (?C?ULDIV)
  C:\KEIL_V5\C51\LIB\C51L.LIB (?C?ULCMP)
  C:\KEIL_V5\C51\LIB\C51L.LIB (?C?ULSHR)
  C:\KEIL_V5\C51\LIB\C51L.LIB (?C?LSTXDATA)
  C:\KEIL_V5\C51\LIB\C51L.LIB (?C?LSTKXDATA)
  C:\KEIL_V5\C51\LIB\C51L.LIB (?C?PLDPTR)
  C:\KEIL_V5\C51\LIB\C51L.LIB (?C?CCASE)
  C:\KEIL_V5\C51\LIB\C51L.LIB (?C?ICALL)
  C:\KEIL_V5\C51\LIB\C51L.LIB (?C_XBP)
  C:\KEIL_V5\C51\LIB\C51L.LIB (?C?ADDXBP)
  C:\KEIL_V5\C51\LIB\C51L.LIB (?C?XBPOFF)
  C:\KEIL_V5\C51\LIB\C51L.LIB (PRINTF)
  C:\KEIL_V5\C51\LIB\C51L.LIB (STRLEN)
  C:\KEIL_V5\C51\LIB\C51L.LIB (?C?MEMSET)
BL51 BANKED LINKER/LOCATER V6.22                                                      09/03/2017  16:51:00  PAGE 2


  C:\KEIL_V5\C51\LIB\C51L.LIB (?C?PLDIDATA)
  C:\KEIL_V5\C51\LIB\C51L.LIB (?C?PLDXDATA)
  C:\KEIL_V5\C51\LIB\C51L.LIB (?C?PLDIXDATA)
  C:\KEIL_V5\C51\LIB\C51L.LIB (?C?PSTXDATA)
  C:\KEIL_V5\C51\LIB\C51L.LIB (?C?PLDPDATA)
  C:\KEIL_V5\C51\LIB\C51L.LIB (?C?PLDCODE)


LINK MAP OF MODULE:  .\Out\Objects\project (MAIN)


            TYPE    BASE      LENGTH    RELOCATION   SEGMENT NAME
            -----------------------------------------------------

            * * * * * * *   D A T A   M E M O R Y   * * * * * * *
            REG     0000H     0008H     ABSOLUTE     "REG BANK 0"
            DATA    0008H     0005H     UNIT         _DATA_GROUP_
            DATA    000DH     0002H     UNIT         ?C?LIB_DATA
            IDATA   000FH     0010H     UNIT         ?ID?APP_KEY
                    001FH     0001H                  *** GAP ***
            BIT     0020H.0   0001H.1   UNIT         _BIT_GROUP_
            BIT     0021H.1   0000H.1   UNIT         ?BI?BSP
            BIT     0021H.2   0000H.1   UNIT         ?BI?_GET_DATA_FROM_UART1?BSP_UART
            BIT     0021H.3   0000H.1   UNIT         ?BI?BSP_UART
                    0021H.4   0000H.4                *** GAP ***
            IDATA   0022H     007BH     UNIT         ?ID?BSP_KEY
            IDATA   009DH     0021H     UNIT         ?ID?APP_2D4
            IDATA   00BEH     0005H     UNIT         ?ID?APP_WORK
            IDATA   00C3H     0005H     UNIT         ?ID?BSP_ADC
            IDATA   00C8H     0001H     UNIT         ?STACK

            * * * * * * *  X D A T A   M E M O R Y  * * * * * * *
            XDATA   0000H     0040H     UNIT         _XDATA_GROUP_
            XDATA   0040H     0013H     UNIT         ?XD?_RF_CARRIER?BSP_2D4
            XDATA   0053H     0012H     UNIT         ?XD?APP_REPEAT_EXE
            XDATA   0065H     0011H     UNIT         ?XD?MAIN
            XDATA   0076H     0010H     UNIT         ?XD?MODE_RESP?APP_2D4
            XDATA   0086H     0010H     UNIT         ?XD?APP_LCD
            XDATA   0096H     000BH     UNIT         ?XD?BSP_TIMER0
            XDATA   00A1H     0007H     UNIT         ?XD?BSP_KEY
            XDATA   00A8H     0005H     UNIT         ?XD?BSP_2D4
            XDATA   00ADH     0004H     UNIT         ?XD?_INITIALUART0_TIMER3_TYPE5?COMMON
            XDATA   00B1H     0004H     UNIT         ?XD?_INITIALUART0_TIMER3_TYPE6?COMMON
            XDATA   00B5H     0004H     UNIT         ?XD?_INITIALUART1_TIMER3?COMMON
            XDATA   00B9H     0004H     UNIT         ?XD?_TIMER0_DELAY1MS?DELAY
            XDATA   00BDH     0004H     UNIT         ?XD?_TIMER1_DELAY1MS?DELAY
            XDATA   00C1H     0004H     UNIT         ?XD?_TIMER3_DELAY1MS?DELAY
            XDATA   00C5H     0004H     UNIT         ?XD?_WAKEUP_TIMER_DELAY25MS?DELAY
            XDATA   00C9H     0001H     UNIT         ?XD?_APP_LCD_DEFAULT_STRING_SET?APP_LCD

            * * * * * * *   C O D E   M E M O R Y   * * * * * * *
            CODE    0000H     0003H     ABSOLUTE     
            CODE    0003H     0008H     UNIT         ?CO?APP_LCD
            CODE    000BH     0003H     ABSOLUTE     
            CODE    000EH     000DH     UNIT         ?PR?LCD_CLEAR_ALL?BSP_DISPLAY
            CODE    001BH     0003H     ABSOLUTE     
            CODE    001EH     003DH     UNIT         ?PR?VOL_RESP?APP_2D4
BL51 BANKED LINKER/LOCATER V6.22                                                      09/03/2017  16:51:00  PAGE 3


            CODE    005BH     0003H     ABSOLUTE     
            CODE    005EH     08FAH     UNIT         ?PR?_LCD_SHOWCHAR?BSP_DISPLAY
            CODE    0958H     048AH     UNIT         ?C?LIB_CODE
            CODE    0DE2H     0452H     UNIT         ?PR?_APP_KEY_PRO?APP_KEY
            CODE    1234H     037CH     UNIT         ?PR?_APP_2D4_RCV?APP_2D4
            CODE    15B0H     0365H     UNIT         ?PR?PRINTF?PRINTF
            CODE    1915H     0154H     UNIT         ?PR?_BSP_DETECTKEY?BSP_KEY
            CODE    1A69H     0145H     UNIT         ?PR?_SYSTEM_CLOCK_SELECT?COMMON
            CODE    1BAEH     012EH     UNIT         ?PR?RF_INIT?BSP_2D4
            CODE    1CDCH     0112H     UNIT         ?CO?VERSION
            CODE    1DEEH     00E4H     UNIT         ?PR?_LCD_CLEAR_MI?BSP_DISPLAY
            CODE    1ED2H     00E3H     UNIT         ?PR?_RF_CARRIER?BSP_2D4
            CODE    1FB5H     00B5H     UNIT         ?PR?REPEAT_PRO?APP_REPEAT_EXE
            CODE    206AH     00A8H     UNIT         ?PR?BSP_INITKEYVAR?BSP_KEY
            CODE    2112H     00A2H     UNIT         ?PR?_LCD_SHOWSTRING?BSP_DISPLAY
            CODE    21B4H     009DH     UNIT         ?CO?APP_2D4
            CODE    2251H     009AH     UNIT         ?C_C51STARTUP
            CODE    22EBH     008CH     UNIT         ?PR?MAIN?MAIN
            CODE    2377H     0083H     UNIT         ?PR?_?RANDOM_DELAY?DELAY
            CODE    23FAH     007EH     UNIT         ?C_INITSEG
            CODE    2478H     0079H     UNIT         ?PR?TIMER0_ISR?BSP_TIMER0
            CODE    24F1H     0067H     UNIT         ?PR?_ISKEYDOWN?BSP_KEY
            CODE    2558H     0066H     UNIT         ?PR?MODE_RESP?APP_2D4
            CODE    25BEH     0063H     UNIT         ?PR?_INITIALUART0_TIMER3_TYPE5?COMMON
            CODE    2621H     0063H     UNIT         ?PR?_INITIALUART0_TIMER3_TYPE6?COMMON
            CODE    2684H     0061H     UNIT         ?PR?_WAKEUP_TIMER_DELAY25MS?DELAY
            CODE    26E5H     005FH     UNIT         ?PR?SHOW_FW_VERSION_NUMBER_TO_PC?VERSION
            CODE    2744H     005DH     UNIT         ?PR?_INITIALUART1_TIMER3?COMMON
            CODE    27A1H     005CH     UNIT         ?PR?ADC_ISR?MAIN
            CODE    27FDH     005BH     UNIT         ?PR?_TIMER3_DELAY1MS?DELAY
            CODE    2858H     0059H     UNIT         ?PR?_TIMER0_DELAY1MS?DELAY
            CODE    28B1H     0059H     UNIT         ?PR?_TIMER1_DELAY1MS?DELAY
            CODE    290AH     0058H     UNIT         ?PR?APP_2D4_1S_PRO?APP_2D4
            CODE    2962H     0056H     UNIT         ?PR?APP_2D4_PRO?APP_2D4
            CODE    29B8H     0051H     UNIT         ?PR?_APP_2D4_SEND?APP_2D4
            CODE    2A09H     0043H     UNIT         ?PR?_RF_WRITEBUF?BSP_2D4
            CODE    2A4CH     0043H     UNIT         ?PR?_RF_TXDATA?BSP_2D4
            CODE    2A8FH     003FH     UNIT         ?PR?_RF_READBUF?BSP_2D4
            CODE    2ACEH     003DH     UNIT         ?PR?_PUTCHAR?COMMON
            CODE    2B0BH     0036H     UNIT         ?PR?LCD_DISPLAY_INITHARD?BSP_DISPLAY
            CODE    2B41H     0033H     UNIT         ?PR?ADC_INIT?BSP_ADC
            CODE    2B74H     0032H     UNIT         ?PR?_REPEAT_START?APP_REPEAT_EXE
            CODE    2BA6H     002AH     UNIT         ?PR?_INITIALUART0_TIMER1_TYPE3?COMMON
            CODE    2BD0H     002AH     UNIT         ?PR?_INITIALUART0_TIMER1_TYPE4?COMMON
            CODE    2BFAH     0029H     UNIT         ?PR?_UCRF_DUMPRXDATA?BSP_2D4
            CODE    2C23H     0029H     UNIT         ?PR?_INITIALUART0_TIMER1_TYPE1?COMMON
            CODE    2C4CH     0028H     UNIT         ?PR?_INITIALUART0_TIMER1_TYPE2?COMMON
            CODE    2C74H     0026H     UNIT         ?PR?TIMER0_PARAMINIT?BSP_TIMER0
            CODE    2C9AH     0026H     UNIT         ?PR?RF_RXMODE?BSP_2D4
            CODE    2CC0H     0025H     UNIT         ?PR?APP_2D4_INIT?APP_2D4
            CODE    2CE5H     0024H     UNIT         ?PR?_BSP_SETKEYPARAM?BSP_KEY
            CODE    2D09H     0024H     UNIT         ?CO?BSP_2D4
            CODE    2D2DH     0023H     UNIT         ?PR?TIMER0_INITHARD?BSP_TIMER0
            CODE    2D50H     0023H     UNIT         ?PR?_SPI_WR?BSP_2D4
            CODE    2D73H     0021H     UNIT         ?PR?_APP_LCD_DEFAULT_STRING_SET?APP_LCD
            CODE    2D94H     0021H     UNIT         ?PR?ADC_START?BSP_ADC
            CODE    2DB5H     0021H     UNIT         ?PR?_DELAY10US?DELAY
BL51 BANKED LINKER/LOCATER V6.22                                                      09/03/2017  16:51:00  PAGE 4


            CODE    2DD6H     0020H     UNIT         ?PR?SET_ALL_GPIO_INPUT_MODE?COMMON
            CODE    2DF6H     001DH     UNIT         ?PR?_SPI_WW?BSP_2D4
            CODE    2E13H     001CH     UNIT         ?PR?BSP_GETKEY?BSP_KEY
            CODE    2E2FH     001CH     UNIT         ?PR?BSP_GETKEY2?BSP_KEY
            CODE    2E4BH     001BH     UNIT         ?PR?BSP_INIT?BSP
            CODE    2E66H     001BH     UNIT         ?PR?BSP_KEYSCAN?BSP_KEY
            CODE    2E81H     001AH     UNIT         ?PR?SET_ALL_GPIO_QUASI_MODE?COMMON
            CODE    2E9BH     001AH     UNIT         ?PR?SW_RESET?COMMON
            CODE    2EB5H     0019H     UNIT         ?PR?UCSPI_READ?BSP_2D4
            CODE    2ECEH     0018H     UNIT         ?PR?APP_LCD_INIT?APP_LCD
            CODE    2EE6H     0016H     UNIT         ?PR?SPEAKER_STATUS_RESP?APP_2D4
            CODE    2EFCH     0016H     UNIT         ?PR?RELAY_STATUS_RESP?APP_2D4
            CODE    2F12H     0015H     UNIT         ?PR?_STRLEN?STRLEN
            CODE    2F27H     0014H     UNIT         ?PR?REPEAT_STOP?APP_REPEAT_EXE
            CODE    2F3BH     0014H     UNIT         ?PR?_BSP_PUTKEY?BSP_KEY
            CODE    2F4FH     0013H     UNIT         ?PR?_GET_DATA_FROM_UART1?BSP_UART
            CODE    2F62H     0013H     UNIT         ?PR?TIMER1_INITHARD?BSP_TIMER1
            CODE    2F75H     0013H     UNIT         ?PR?WIRELESS2D4_INITHARD?BSP_2D4
            CODE    2F88H     0013H     UNIT         ?PR?_RF_WRITEREG?BSP_2D4
            CODE    2F9BH     0013H     UNIT         ?PR?_UCRF_READREG?BSP_2D4
            CODE    2FAEH     0012H     UNIT         ?PR?FM_SCANNING_SHOW_LCD_RESP?APP_2D4
            CODE    2FC0H     0012H     UNIT         ?PR?FM_OK_SHOW_LCD_RESP?APP_2D4
            CODE    2FD2H     0012H     UNIT         ?PR?ISKEYDOWN_1AND6?BSP_KEY
            CODE    2FE4H     0011H     UNIT         ?PR?UART_INITHARD?BSP_UART
            CODE    2FF5H     0010H     UNIT         ?PR?REPEAT_START_EXE?APP_REPEAT_EXE
            CODE    3005H     0010H     UNIT         ?PR?REPEAT_STOP_EXE?APP_REPEAT_EXE
            CODE    3015H     000FH     UNIT         ?PR?CLEAR_LCD_RESP?APP_2D4
            CODE    3024H     000FH     UNIT         ?PR?USB_PAUSE_SHOW_LCD_RESP?APP_2D4
            CODE    3033H     000FH     UNIT         ?PR?USB_TIME_SHOW_LCD_RESP?APP_2D4
            CODE    3042H     000FH     UNIT         ?PR?APP_LCD_PRO?APP_LCD
            CODE    3051H     000FH     UNIT         ?PR?ISKEYDOWN2?BSP_KEY
            CODE    3060H     000FH     UNIT         ?PR?ISKEYDOWN3?BSP_KEY
            CODE    306FH     000FH     UNIT         ?PR?ISKEYDOWN4?BSP_KEY
            CODE    307EH     000FH     UNIT         ?PR?ISKEYDOWN8?BSP_KEY
            CODE    308DH     000FH     UNIT         ?PR?ISKEYDOWN9?BSP_KEY
            CODE    309CH     000FH     UNIT         ?PR?RF_TXMODE?BSP_2D4
            CODE    30ABH     000EH     UNIT         ?PR?ISKEYDOWN5?BSP_KEY
            CODE    30B9H     000EH     UNIT         ?PR?_RF_SETCHANNEL?BSP_2D4
            CODE    30C7H     000DH     UNIT         ?PR?LCD_CLEAR_MI_ALL?BSP_DISPLAY
            CODE    30D4H     000CH     UNIT         ?PR?_REPEAT_SETSTART?APP_REPEAT_EXE
            CODE    30E0H     000CH     UNIT         ?PR?_REPEAT_SETSTOP?APP_REPEAT_EXE
            CODE    30ECH     000CH     UNIT         ?PR?RF_CLEARFIFO?BSP_2D4
            CODE    30F8H     000BH     UNIT         ?PR?_BSP_GETKEYSTATE?BSP_KEY
            CODE    3103H     000AH     UNIT         ?PR?APP_REPEAT_ISENABLE?APP_REPEAT_EXE
            CODE    310DH     000AH     UNIT         ?PR?UCRF_GETSTATUS?BSP_2D4
            CODE    3117H     0009H     UNIT         ?PR?BT_PAUSE_SHOW_LCD_RESP?APP_2D4
            CODE    3120H     0009H     UNIT         ?PR?BT_PLAY_SHOW_LCD_RESP?APP_2D4
            CODE    3129H     0009H     UNIT         ?PR?AUX_MUTE_SHOW_LCD_RESP?APP_2D4
            CODE    3132H     0009H     UNIT         ?PR?AUX_PLAY_SHOW_LCD_RESP?APP_2D4
            CODE    313BH     0009H     UNIT         ?PR?ISKEYDOWN1?BSP_KEY
            CODE    3144H     0009H     UNIT         ?PR?KEY_BRIGHT_INITHARD?BSP_KEYBRIGHT
            CODE    314DH     0009H     UNIT         ?PR?LCD_BRIGHT_INITHARD?BSP_LCDBRIGHT
            CODE    3156H     0008H     UNIT         ?PR?RECEIVE_DATA_FROM_UART0?COMMON
            CODE    315EH     0008H     UNIT         ?PR?_SEND_DATA_TO_UART0?COMMON
            CODE    3166H     0008H     UNIT         ?PR?RECEIVE_DATA_FROM_UART1?COMMON
            CODE    316EH     0008H     UNIT         ?PR?_SEND_DATA_TO_UART1?COMMON
            CODE    3176H     0007H     UNIT         ?CO?MAIN
BL51 BANKED LINKER/LOCATER V6.22                                                      09/03/2017  16:51:00  PAGE 5


            CODE    317DH     0007H     UNIT         ?PR?APP_WORK_INIT?APP_WORK
            CODE    3184H     0007H     UNIT         ?PR?BSP_INITKEYHARD?BSP_KEY
            CODE    318BH     0007H     UNIT         ?PR?LCD_CLEAR_LED_ICO?BSP_DISPLAY
            CODE    3192H     0007H     UNIT         ?PR?LCD_SHOW_LED_ICO?BSP_DISPLAY
            CODE    3199H     0007H     UNIT         ?PR?LCD_CLEAR_FM_ICO?BSP_DISPLAY
            CODE    31A0H     0007H     UNIT         ?PR?LCD_SHOW_FM_ICO?BSP_DISPLAY
            CODE    31A7H     0007H     UNIT         ?PR?LCD_CLEAR_BLUETOOTH_ICO?BSP_DISPLAY
            CODE    31AEH     0007H     UNIT         ?PR?LCD_SHOW_BLUETOOTH_ICO?BSP_DISPLAY
            CODE    31B5H     0007H     UNIT         ?PR?LCD_CLEAR_AUX_ICO?BSP_DISPLAY
            CODE    31BCH     0007H     UNIT         ?PR?LCD_SHOW_AUX_ICO?BSP_DISPLAY
            CODE    31C3H     0007H     UNIT         ?PR?LCD_CLEAR_USB_ICO?BSP_DISPLAY
            CODE    31CAH     0007H     UNIT         ?PR?LCD_SHOW_USB_ICO?BSP_DISPLAY
            CODE    31D1H     0007H     UNIT         ?PR?LCD_CLEAR_MHZ_ICO?BSP_DISPLAY
            CODE    31D8H     0007H     UNIT         ?PR?LCD_SHOW_MHZ_ICO?BSP_DISPLAY
            CODE    31DFH     0007H     UNIT         ?PR?LCD_CLEAR_BAZOOKA_ICO?BSP_DISPLAY
            CODE    31E6H     0007H     UNIT         ?PR?LCD_SHOW_BAZOOKA_ICO?BSP_DISPLAY
            CODE    31EDH     0007H     UNIT         ?PR?LCD_CLEAR_UPCOLON_ICO?BSP_DISPLAY
            CODE    31F4H     0007H     UNIT         ?PR?LCD_SHOW_UPCOLON_ICO?BSP_DISPLAY
            CODE    31FBH     0007H     UNIT         ?PR?LCD_CLEAR_DOWNCOLON_ICO?BSP_DISPLAY
            CODE    3202H     0007H     UNIT         ?PR?LCD_SHOW_DOWNCOLON_ICO?BSP_DISPLAY
            CODE    3209H     0007H     UNIT         ?PR?RF_CLEARSTATUS?BSP_2D4
            CODE    3210H     0006H     UNIT         ?PR?APP_POWER_OFF?APP_KEY
            CODE    3216H     0006H     UNIT         ?PR?ISKEYDOWN6?BSP_KEY
            CODE    321CH     0006H     UNIT         ?PR?ISKEYDOWN7?BSP_KEY
            CODE    3222H     0006H     UNIT         ?PR?BSP_INITKEY?BSP_KEY
            CODE    3228H     0006H     UNIT         ?PR?BSP_CLEARKEY?BSP_KEY
            CODE    322EH     0006H     UNIT         ?PR?LCD_CLEAR_COLON_ICO?BSP_DISPLAY
            CODE    3234H     0006H     UNIT         ?PR?LCD_SHOW_COLON_ICO?BSP_DISPLAY
            CODE    323AH     0006H     UNIT         ?PR?UCRF_GETRSSI?BSP_2D4
            CODE    3240H     0004H     UNIT         ?PR?FSYS_CLOCK_OUTPUT_ON_P26?COMMON
            CODE    3244H     0003H     UNIT         ?PR?APP_POWER_ON?APP_KEY
            CODE    3247H     0003H     UNIT         ?PR?KEY_BRIGHT_OFF?BSP_KEYBRIGHT
            CODE    324AH     0003H     UNIT         ?PR?KEY_BRIGHT_ON?BSP_KEYBRIGHT
            CODE    324DH     0003H     UNIT         ?PR?KEY_BRIGHT_TOGGLE?BSP_KEYBRIGHT
            CODE    3250H     0003H     UNIT         ?PR?LCD_BRIGHT_OFF?BSP_LCDBRIGHT
            CODE    3253H     0003H     UNIT         ?PR?LCD_BRIGHT_ON?BSP_LCDBRIGHT
            CODE    3256H     0001H     UNIT         ?PR?APP_KEY_INIT?APP_KEY
            CODE    3257H     0001H     UNIT         ?PR?APP_KEY_100MS_PRO?APP_KEY
            CODE    3258H     0001H     UNIT         ?PR?APP_KEY_1S_PRO?APP_KEY
            CODE    3259H     0001H     UNIT         ?PR?APP_KEY_CLEAR_NOOPS_TIMEOUTCNT?APP_KEY
            CODE    325AH     0001H     UNIT         ?PR?APP_WORK_1S_PRO?APP_WORK
            CODE    325BH     0001H     UNIT         ?PR?APP_WORK_100MS_PRO?APP_WORK
            CODE    325CH     0001H     UNIT         ?PR?APP_WORK_PRO?APP_WORK
            CODE    325DH     0001H     UNIT         ?PR?TIMER1_ISR?BSP_TIMER1
            CODE    325EH     0001H     UNIT         ?PR?SPI_INIT?BSP_2D4



OVERLAY MAP OF MODULE:   .\Out\Objects\project (MAIN)


SEGMENT                                             BIT_GROUP          DATA_GROUP          XDATA_GROUP
  +--> CALLED SEGMENT                            START    LENGTH     START    LENGTH     START    LENGTH
--------------------------------------------------------------------------------------------------------
?C_C51STARTUP                                    -----    -----      -----    -----      -----    -----
  +--> ?PR?MAIN?MAIN
  +--> ?C_INITSEG
BL51 BANKED LINKER/LOCATER V6.22                                                      09/03/2017  16:51:00  PAGE 6



?PR?MAIN?MAIN                                    -----    -----      -----    -----      0000H    0002H
  +--> ?PR?_SYSTEM_CLOCK_SELECT?COMMON
  +--> ?PR?BSP_INIT?BSP
  +--> ?PR?APP_KEY_INIT?APP_KEY
  +--> ?PR?APP_2D4_INIT?APP_2D4
  +--> ?PR?APP_LCD_INIT?APP_LCD
  +--> ?PR?APP_WORK_INIT?APP_WORK
  +--> ?PR?ADC_START?BSP_ADC
  +--> ?PR?BSP_KEYSCAN?BSP_KEY
  +--> ?PR?REPEAT_PRO?APP_REPEAT_EXE
  +--> ?PR?APP_LCD_PRO?APP_LCD
  +--> ?CO?MAIN
  +--> ?PR?PRINTF?PRINTF
  +--> ?PR?APP_2D4_PRO?APP_2D4
  +--> ?PR?BSP_GETKEY?BSP_KEY
  +--> ?PR?_APP_KEY_PRO?APP_KEY

?PR?BSP_INIT?BSP                                 -----    -----      -----    -----      -----    -----
  +--> ?PR?SET_ALL_GPIO_INPUT_MODE?COMMON
  +--> ?PR?ADC_INIT?BSP_ADC
  +--> ?PR?BSP_INITKEY?BSP_KEY
  +--> ?PR?KEY_BRIGHT_INITHARD?BSP_KEYBRIGHT
  +--> ?PR?LCD_BRIGHT_INITHARD?BSP_LCDBRIGHT
  +--> ?PR?LCD_DISPLAY_INITHARD?BSP_DISPLAY
  +--> ?PR?TIMER0_INITHARD?BSP_TIMER0
  +--> ?PR?WIRELESS2D4_INITHARD?BSP_2D4

?PR?BSP_INITKEY?BSP_KEY                          -----    -----      -----    -----      -----    -----
  +--> ?PR?BSP_INITKEYVAR?BSP_KEY
  +--> ?PR?BSP_INITKEYHARD?BSP_KEY

?PR?BSP_INITKEYVAR?BSP_KEY                       -----    -----      -----    -----      -----    -----
  +--> ?PR?ISKEYDOWN1?BSP_KEY
  +--> ?PR?ISKEYDOWN2?BSP_KEY
  +--> ?PR?ISKEYDOWN3?BSP_KEY
  +--> ?PR?ISKEYDOWN4?BSP_KEY
  +--> ?PR?ISKEYDOWN5?BSP_KEY
  +--> ?PR?ISKEYDOWN6?BSP_KEY
  +--> ?PR?ISKEYDOWN7?BSP_KEY
  +--> ?PR?ISKEYDOWN8?BSP_KEY
  +--> ?PR?ISKEYDOWN9?BSP_KEY
  +--> ?PR?ISKEYDOWN_1AND6?BSP_KEY

?PR?ISKEYDOWN2?BSP_KEY                           -----    -----      -----    -----      -----    -----
  +--> ?PR?_ISKEYDOWN?BSP_KEY

?PR?ISKEYDOWN3?BSP_KEY                           -----    -----      -----    -----      -----    -----
  +--> ?PR?_ISKEYDOWN?BSP_KEY

?PR?ISKEYDOWN4?BSP_KEY                           -----    -----      -----    -----      -----    -----
  +--> ?PR?_ISKEYDOWN?BSP_KEY

?PR?ISKEYDOWN5?BSP_KEY                           -----    -----      -----    -----      -----    -----
  +--> ?PR?_ISKEYDOWN?BSP_KEY

?PR?ISKEYDOWN6?BSP_KEY                           -----    -----      -----    -----      -----    -----
BL51 BANKED LINKER/LOCATER V6.22                                                      09/03/2017  16:51:00  PAGE 7


  +--> ?PR?_ISKEYDOWN?BSP_KEY

?PR?ISKEYDOWN7?BSP_KEY                           -----    -----      -----    -----      -----    -----
  +--> ?PR?_ISKEYDOWN?BSP_KEY

?PR?ISKEYDOWN8?BSP_KEY                           -----    -----      -----    -----      -----    -----
  +--> ?PR?_ISKEYDOWN?BSP_KEY

?PR?ISKEYDOWN9?BSP_KEY                           -----    -----      -----    -----      -----    -----
  +--> ?PR?_ISKEYDOWN?BSP_KEY

?PR?ISKEYDOWN_1AND6?BSP_KEY                      -----    -----      -----    -----      -----    -----
  +--> ?PR?ISKEYDOWN1?BSP_KEY
  +--> ?PR?ISKEYDOWN6?BSP_KEY

?PR?KEY_BRIGHT_INITHARD?BSP_KEYBRIGHT            -----    -----      -----    -----      -----    -----
  +--> ?PR?KEY_BRIGHT_OFF?BSP_KEYBRIGHT

?PR?LCD_BRIGHT_INITHARD?BSP_LCDBRIGHT            -----    -----      -----    -----      -----    -----
  +--> ?PR?LCD_BRIGHT_ON?BSP_LCDBRIGHT

?PR?LCD_DISPLAY_INITHARD?BSP_DISPLAY             -----    -----      -----    -----      -----    -----
  +--> ?PR?LCD_CLEAR_ALL?BSP_DISPLAY

?PR?TIMER0_INITHARD?BSP_TIMER0                   -----    -----      -----    -----      -----    -----
  +--> ?PR?TIMER0_PARAMINIT?BSP_TIMER0

?PR?APP_2D4_INIT?APP_2D4                         -----    -----      -----    -----      -----    -----
  +--> ?PR?RF_INIT?BSP_2D4
  +--> ?PR?RF_RXMODE?BSP_2D4

?PR?RF_INIT?BSP_2D4                              -----    -----      -----    -----      0002H    0012H
  +--> ?CO?BSP_2D4
  +--> ?PR?SPI_INIT?BSP_2D4
  +--> ?PR?_RF_WRITEREG?BSP_2D4
  +--> ?PR?_RF_WRITEBUF?BSP_2D4

?PR?_RF_WRITEREG?BSP_2D4                         -----    -----      -----    -----      -----    -----
  +--> ?PR?_SPI_WW?BSP_2D4

?PR?_RF_WRITEBUF?BSP_2D4                         -----    -----      -----    -----      0014H    0005H
  +--> ?PR?_SPI_WW?BSP_2D4

?PR?RF_RXMODE?BSP_2D4                            -----    -----      -----    -----      -----    -----
  +--> ?PR?_RF_WRITEREG?BSP_2D4

?PR?APP_LCD_INIT?APP_LCD                         -----    -----      -----    -----      -----    -----
  +--> ?CO?APP_LCD
  +--> ?PR?_STRLEN?STRLEN

?PR?APP_WORK_INIT?APP_WORK                       -----    -----      -----    -----      -----    -----
  +--> ?PR?LCD_SHOW_BAZOOKA_ICO?BSP_DISPLAY

?PR?BSP_KEYSCAN?BSP_KEY                          -----    -----      -----    -----      0002H    0001H
  +--> ?PR?_BSP_DETECTKEY?BSP_KEY

?PR?_BSP_DETECTKEY?BSP_KEY                       -----    -----      -----    -----      0003H    0001H
BL51 BANKED LINKER/LOCATER V6.22                                                      09/03/2017  16:51:00  PAGE 8


  +--> ?PR?_BSP_PUTKEY?BSP_KEY

?PR?REPEAT_PRO?APP_REPEAT_EXE                    -----    -----      -----    -----      -----    -----
  +--> ?PR?REPEAT_STOP_EXE?APP_REPEAT_EXE
  +--> ?PR?REPEAT_START_EXE?APP_REPEAT_EXE

?PR?APP_LCD_PRO?APP_LCD                          -----    -----      -----    -----      -----    -----
  +--> ?PR?APP_REPEAT_ISENABLE?APP_REPEAT_EXE
  +--> ?PR?_LCD_SHOWSTRING?BSP_DISPLAY

?PR?_LCD_SHOWSTRING?BSP_DISPLAY                  0020H.0  0000H.1    -----    -----      0018H    0004H
  +--> ?PR?_STRLEN?STRLEN
  +--> ?PR?_LCD_SHOWCHAR?BSP_DISPLAY

?PR?_LCD_SHOWCHAR?BSP_DISPLAY                    -----    -----      -----    -----      -----    -----
  +--> ?PR?_LCD_CLEAR_MI?BSP_DISPLAY

?PR?PRINTF?PRINTF                                0020H.0  0001H.1    0008H    0005H      0018H    0028H
  +--> ?PR?_PUTCHAR?COMMON

?PR?APP_2D4_PRO?APP_2D4                          -----    -----      -----    -----      -----    -----
  +--> ?PR?UCRF_GETSTATUS?BSP_2D4
  +--> ?PR?RF_CLEARFIFO?BSP_2D4
  +--> ?PR?RF_CLEARSTATUS?BSP_2D4
  +--> ?PR?RF_RXMODE?BSP_2D4
  +--> ?PR?_RF_TXDATA?BSP_2D4
  +--> ?PR?_UCRF_DUMPRXDATA?BSP_2D4
  +--> ?PR?LCD_CLEAR_MHZ_ICO?BSP_DISPLAY
  +--> ?PR?LCD_CLEAR_UPCOLON_ICO?BSP_DISPLAY
  +--> ?PR?LCD_CLEAR_DOWNCOLON_ICO?BSP_DISPLAY
  +--> ?PR?_APP_2D4_RCV?APP_2D4

?PR?UCRF_GETSTATUS?BSP_2D4                       -----    -----      -----    -----      -----    -----
  +--> ?PR?_UCRF_READREG?BSP_2D4

?PR?_UCRF_READREG?BSP_2D4                        -----    -----      -----    -----      -----    -----
  +--> ?PR?_SPI_WR?BSP_2D4
  +--> ?PR?UCSPI_READ?BSP_2D4

?PR?RF_CLEARFIFO?BSP_2D4                         -----    -----      -----    -----      -----    -----
  +--> ?PR?_RF_WRITEREG?BSP_2D4

?PR?RF_CLEARSTATUS?BSP_2D4                       -----    -----      -----    -----      -----    -----
  +--> ?PR?_RF_WRITEREG?BSP_2D4

?PR?_RF_TXDATA?BSP_2D4                           -----    -----      -----    -----      0002H    0002H
  +--> ?PR?UCRF_GETSTATUS?BSP_2D4
  +--> ?PR?_RF_WRITEBUF?BSP_2D4
  +--> ?PR?_RF_WRITEREG?BSP_2D4

?PR?_UCRF_DUMPRXDATA?BSP_2D4                     -----    -----      -----    -----      -----    -----
  +--> ?PR?UCRF_GETSTATUS?BSP_2D4
  +--> ?PR?_RF_WRITEREG?BSP_2D4
  +--> ?PR?_RF_READBUF?BSP_2D4
  +--> ?PR?RF_CLEARFIFO?BSP_2D4
  +--> ?PR?RF_CLEARSTATUS?BSP_2D4

BL51 BANKED LINKER/LOCATER V6.22                                                      09/03/2017  16:51:00  PAGE 9


?PR?_RF_READBUF?BSP_2D4                          -----    -----      -----    -----      0002H    0005H
  +--> ?PR?_SPI_WR?BSP_2D4
  +--> ?PR?UCSPI_READ?BSP_2D4

?PR?_APP_2D4_RCV?APP_2D4                         -----    -----      -----    -----      0002H    0006H
  +--> ?PR?KEY_BRIGHT_TOGGLE?BSP_KEYBRIGHT
  +--> ?PR?SPEAKER_STATUS_RESP?APP_2D4
  +--> ?PR?RELAY_STATUS_RESP?APP_2D4
  +--> ?PR?VOL_RESP?APP_2D4
  +--> ?PR?BT_PLAY_SHOW_LCD_RESP?APP_2D4
  +--> ?PR?_REPEAT_SETSTART?APP_REPEAT_EXE
  +--> ?PR?_REPEAT_SETSTOP?APP_REPEAT_EXE
  +--> ?PR?BT_PAUSE_SHOW_LCD_RESP?APP_2D4
  +--> ?PR?FM_SCANNING_SHOW_LCD_RESP?APP_2D4
  +--> ?PR?FM_OK_SHOW_LCD_RESP?APP_2D4
  +--> ?PR?AUX_PLAY_SHOW_LCD_RESP?APP_2D4
  +--> ?PR?AUX_MUTE_SHOW_LCD_RESP?APP_2D4
  +--> ?PR?CLEAR_LCD_RESP?APP_2D4
  +--> ?PR?USB_TIME_SHOW_LCD_RESP?APP_2D4
  +--> ?PR?USB_PAUSE_SHOW_LCD_RESP?APP_2D4
  +--> ?PR?_REPEAT_START?APP_REPEAT_EXE
  +--> ?PR?LCD_CLEAR_FM_ICO?BSP_DISPLAY
  +--> ?PR?LCD_SHOW_BLUETOOTH_ICO?BSP_DISPLAY
  +--> ?PR?LCD_SHOW_FM_ICO?BSP_DISPLAY
  +--> ?PR?LCD_CLEAR_BLUETOOTH_ICO?BSP_DISPLAY
  +--> ?PR?LCD_CLEAR_AUX_ICO?BSP_DISPLAY
  +--> ?PR?LCD_SHOW_AUX_ICO?BSP_DISPLAY
  +--> ?PR?LCD_CLEAR_USB_ICO?BSP_DISPLAY
  +--> ?PR?LCD_SHOW_USB_ICO?BSP_DISPLAY

?PR?SPEAKER_STATUS_RESP?APP_2D4                  -----    -----      -----    -----      -----    -----
  +--> ?CO?APP_2D4
  +--> ?PR?_LCD_SHOWSTRING?BSP_DISPLAY

?PR?RELAY_STATUS_RESP?APP_2D4                    -----    -----      -----    -----      -----    -----
  +--> ?CO?APP_2D4
  +--> ?PR?_LCD_SHOWSTRING?BSP_DISPLAY

?PR?VOL_RESP?APP_2D4                             -----    -----      -----    -----      0008H    0010H
  +--> ?CO?APP_2D4
  +--> ?PR?PRINTF?PRINTF
  +--> ?PR?_LCD_SHOWSTRING?BSP_DISPLAY

?PR?BT_PLAY_SHOW_LCD_RESP?APP_2D4                -----    -----      -----    -----      -----    -----
  +--> ?CO?APP_2D4
  +--> ?PR?_LCD_SHOWSTRING?BSP_DISPLAY

?PR?BT_PAUSE_SHOW_LCD_RESP?APP_2D4               -----    -----      -----    -----      -----    -----
  +--> ?CO?APP_2D4
  +--> ?PR?_LCD_SHOWSTRING?BSP_DISPLAY

?PR?FM_SCANNING_SHOW_LCD_RESP?APP_2D4            -----    -----      -----    -----      -----    -----
  +--> ?CO?APP_2D4
  +--> ?PR?_LCD_SHOWSTRING?BSP_DISPLAY
  +--> ?PR?LCD_CLEAR_UPCOLON_ICO?BSP_DISPLAY
  +--> ?PR?LCD_CLEAR_DOWNCOLON_ICO?BSP_DISPLAY
  +--> ?PR?LCD_CLEAR_MHZ_ICO?BSP_DISPLAY
BL51 BANKED LINKER/LOCATER V6.22                                                      09/03/2017  16:51:00  PAGE 10



?PR?FM_OK_SHOW_LCD_RESP?APP_2D4                  -----    -----      -----    -----      -----    -----
  +--> ?CO?APP_2D4
  +--> ?PR?_LCD_SHOWSTRING?BSP_DISPLAY
  +--> ?PR?LCD_CLEAR_UPCOLON_ICO?BSP_DISPLAY
  +--> ?PR?LCD_SHOW_DOWNCOLON_ICO?BSP_DISPLAY
  +--> ?PR?LCD_SHOW_MHZ_ICO?BSP_DISPLAY

?PR?AUX_PLAY_SHOW_LCD_RESP?APP_2D4               -----    -----      -----    -----      -----    -----
  +--> ?CO?APP_2D4
  +--> ?PR?_LCD_SHOWSTRING?BSP_DISPLAY

?PR?AUX_MUTE_SHOW_LCD_RESP?APP_2D4               -----    -----      -----    -----      -----    -----
  +--> ?CO?APP_2D4
  +--> ?PR?_LCD_SHOWSTRING?BSP_DISPLAY

?PR?CLEAR_LCD_RESP?APP_2D4                       -----    -----      -----    -----      -----    -----
  +--> ?CO?APP_2D4
  +--> ?PR?_LCD_SHOWSTRING?BSP_DISPLAY
  +--> ?PR?LCD_CLEAR_UPCOLON_ICO?BSP_DISPLAY
  +--> ?PR?LCD_CLEAR_DOWNCOLON_ICO?BSP_DISPLAY

?PR?USB_TIME_SHOW_LCD_RESP?APP_2D4               -----    -----      -----    -----      -----    -----
  +--> ?CO?APP_2D4
  +--> ?PR?_LCD_SHOWSTRING?BSP_DISPLAY
  +--> ?PR?LCD_SHOW_UPCOLON_ICO?BSP_DISPLAY
  +--> ?PR?LCD_SHOW_DOWNCOLON_ICO?BSP_DISPLAY

?PR?USB_PAUSE_SHOW_LCD_RESP?APP_2D4              -----    -----      -----    -----      -----    -----
  +--> ?CO?APP_2D4
  +--> ?PR?_LCD_SHOWSTRING?BSP_DISPLAY
  +--> ?PR?LCD_CLEAR_UPCOLON_ICO?BSP_DISPLAY
  +--> ?PR?LCD_CLEAR_DOWNCOLON_ICO?BSP_DISPLAY

?PR?_REPEAT_START?APP_REPEAT_EXE                 -----    -----      -----    -----      -----    -----
  +--> ?PR?REPEAT_START_EXE?APP_REPEAT_EXE

?PR?_APP_KEY_PRO?APP_KEY                         -----    -----      -----    -----      0002H    0003H
  +--> ?PR?APP_KEY_CLEAR_NOOPS_TIMEOUTCNT?AP...
  +--> ?PR?_APP_2D4_SEND?APP_2D4

?PR?_APP_2D4_SEND?APP_2D4                        -----    -----      -----    -----      0005H    0004H
  +--> ?PR?RF_TXMODE?BSP_2D4

?PR?RF_TXMODE?BSP_2D4                            -----    -----      -----    -----      -----    -----
  +--> ?PR?_RF_WRITEREG?BSP_2D4



SYMBOL TABLE OF MODULE:  .\Out\Objects\project (MAIN)

  VALUE           TYPE          NAME
  ----------------------------------

  -------         MODULE        MAIN
  C:0000H         SYMBOL        _ICE_DUMMY_
  D:0080H         PUBLIC        P0
BL51 BANKED LINKER/LOCATER V6.22                                                      09/03/2017  16:51:00  PAGE 11


  D:0090H         PUBLIC        P1
  D:00A0H         PUBLIC        P2
  D:00B0H         PUBLIC        P3
  D:00D8H         PUBLIC        P5
  D:00A8H         PUBLIC        IE
  B:00E8H.7       PUBLIC        ADCF
  C:27A1H         PUBLIC        ADC_ISR
  D:00B8H         PUBLIC        IP
  C:22EBH         PUBLIC        main
  D:0098H         PUBLIC        SCON
  D:0088H         PUBLIC        TCON
  D:00F8H         PUBLIC        SCON_1
  D:00E8H         PUBLIC        ADCCON0
  D:00C0H         PUBLIC        I2CON
  D:00C3H         PUBLIC        ADCRH
  X:0066H         SYMBOL        ss
  D:00C8H         PUBLIC        T2CON
  D:00C2H         PUBLIC        ADCRL
  D:00D0H         PUBLIC        PSW
  -------         PROC          ADC_ISR
  C:27A1H         LINE#         8
  C:27B2H         LINE#         9
  C:27B2H         LINE#         11
  C:27B4H         LINE#         13
  C:27C4H         LINE#         14
  C:27E0H         LINE#         15
  C:27EEH         LINE#         17
  -------         ENDPROC       ADC_ISR
  -------         PROC          MAIN
  -------         DO            
  X:0000H         SYMBOL        ucKeyCode
  -------         DO            
  X:0001H         SYMBOL        i
  X:0065H         SYMBOL        n
  -------         ENDDO         
  -------         ENDDO         
  C:22EBH         LINE#         19
  C:22EBH         LINE#         21
  C:22F0H         LINE#         24
  C:22F3H         LINE#         28
  C:22F6H         LINE#         29
  C:22F9H         LINE#         30
  C:22FCH         LINE#         31
  C:22FFH         LINE#         35
  C:22FFH         LINE#         36
  C:2305H         LINE#         37
  C:2307H         LINE#         39
  C:230AH         LINE#         40
  C:230AH         LINE#         41
  C:2310H         LINE#         42
  C:2312H         LINE#         45
  C:2315H         LINE#         46
  C:2315H         LINE#         47
  C:231BH         LINE#         48
  C:2320H         LINE#         51
  C:2324H         LINE#         56
  C:2327H         LINE#         60
BL51 BANKED LINKER/LOCATER V6.22                                                      09/03/2017  16:51:00  PAGE 12


  C:232AH         LINE#         62
  C:2330H         LINE#         63
  C:2336H         LINE#         64
  C:2338H         LINE#         66
  C:235BH         LINE#         72
  C:235BH         LINE#         73
  C:235EH         LINE#         74
  C:235EH         LINE#         75
  C:2364H         LINE#         76
  C:2366H         LINE#         85
  C:2366H         LINE#         89
  C:236EH         LINE#         90
  C:2370H         LINE#         91
  C:2375H         LINE#         92
  C:2375H         LINE#         94
  -------         ENDPROC       MAIN
  -------         ENDMOD        MAIN

  -------         MODULE        APP_KEY
  C:0000H         SYMBOL        _ICE_DUMMY_
  D:0080H         PUBLIC        P0
  D:0090H         PUBLIC        P1
  D:00A0H         PUBLIC        P2
  D:00B0H         PUBLIC        P3
  C:3256H         PUBLIC        app_key_init
  D:00D8H         PUBLIC        P5
  D:00A8H         PUBLIC        IE
  C:3244H         PUBLIC        app_power_on
  D:00B8H         PUBLIC        IP
  C:0DE2H         PUBLIC        _app_key_pro
  C:3258H         PUBLIC        app_key_1s_pro
  D:0098H         PUBLIC        SCON
  D:0088H         PUBLIC        TCON
  I:000FH         SYMBOL        buf
  D:00F8H         PUBLIC        SCON_1
  D:00E8H         PUBLIC        ADCCON0
  D:00C0H         PUBLIC        I2CON
  C:3259H         PUBLIC        app_key_clear_noOps_timeoutCnt
  D:00C8H         PUBLIC        T2CON
  C:3210H         PUBLIC        app_power_off
  C:3257H         PUBLIC        app_key_100ms_pro
  D:00D0H         PUBLIC        PSW
  -------         PROC          APP_KEY_INIT
  C:3256H         LINE#         12
  C:3256H         LINE#         14
  -------         ENDPROC       APP_KEY_INIT
  -------         PROC          APP_POWER_ON
  C:3244H         LINE#         16
  C:3244H         LINE#         17
  -------         ENDPROC       APP_POWER_ON
  -------         PROC          APP_POWER_OFF
  C:3210H         LINE#         19
  C:3210H         LINE#         20
  C:3213H         LINE#         21
  -------         ENDPROC       APP_POWER_OFF
  -------         PROC          APP_KEY_100MS_PRO
  C:3257H         LINE#         24
BL51 BANKED LINKER/LOCATER V6.22                                                      09/03/2017  16:51:00  PAGE 13


  C:3257H         LINE#         26
  -------         ENDPROC       APP_KEY_100MS_PRO
  -------         PROC          APP_KEY_1S_PRO
  C:3258H         LINE#         28
  C:3258H         LINE#         30
  -------         ENDPROC       APP_KEY_1S_PRO
  -------         PROC          APP_KEY_CLEAR_NOOPS_TIMEOUTCNT
  C:3259H         LINE#         31
  C:3259H         LINE#         32
  -------         ENDPROC       APP_KEY_CLEAR_NOOPS_TIMEOUTCNT
  -------         PROC          _APP_KEY_PRO
  X:0002H         SYMBOL        keyCode
  -------         DO            
  X:0003H         SYMBOL        index
  X:0004H         SYMBOL        i
  -------         ENDDO         
  C:0DE2H         LINE#         34
  C:0DE7H         LINE#         35
  C:0DEAH         LINE#         36
  C:0DECH         LINE#         38
  C:0DEFH         LINE#         42
  C:0DF3H         LINE#         43
  C:0DFFH         LINE#         44
  C:0E66H         LINE#         45
  C:0E66H         LINE#         46
  C:0E73H         LINE#         47
  C:0E7DH         LINE#         48
  C:0E87H         LINE#         49
  C:0E91H         LINE#         50
  C:0EB0H         LINE#         51
  C:0EC0H         LINE#         52
  C:0EC6H         LINE#         54
  C:0EC6H         LINE#         55
  C:0EC6H         LINE#         57
  C:0EC6H         LINE#         58
  C:0EC6H         LINE#         59
  C:0ED3H         LINE#         60
  C:0EDDH         LINE#         61
  C:0EE7H         LINE#         62
  C:0EF1H         LINE#         63
  C:0F10H         LINE#         64
  C:0F20H         LINE#         65
  C:0F26H         LINE#         67
  C:0F26H         LINE#         68
  C:0F26H         LINE#         69
  C:0F33H         LINE#         70
  C:0F3DH         LINE#         71
  C:0F47H         LINE#         72
  C:0F51H         LINE#         73
  C:0F70H         LINE#         74
  C:0F80H         LINE#         75
  C:0F86H         LINE#         77
  C:0F86H         LINE#         78
  C:0F86H         LINE#         80
  C:0F86H         LINE#         81
  C:0F86H         LINE#         83
  C:0F86H         LINE#         84
BL51 BANKED LINKER/LOCATER V6.22                                                      09/03/2017  16:51:00  PAGE 14


  C:0F86H         LINE#         85
  C:0F93H         LINE#         86
  C:0F9DH         LINE#         87
  C:0FA7H         LINE#         88
  C:0FB1H         LINE#         89
  C:0FD0H         LINE#         90
  C:0FE0H         LINE#         91
  C:0FE6H         LINE#         92
  C:0FE6H         LINE#         93
  C:0FE6H         LINE#         95
  C:0FE6H         LINE#         96
  C:0FE6H         LINE#         98
  C:0FE6H         LINE#         99
  C:0FE6H         LINE#         100
  C:0FF3H         LINE#         101
  C:0FFDH         LINE#         102
  C:1007H         LINE#         103
  C:1011H         LINE#         104
  C:1030H         LINE#         105
  C:1040H         LINE#         106
  C:1046H         LINE#         107
  C:1046H         LINE#         108
  C:1046H         LINE#         110
  C:1046H         LINE#         111
  C:1046H         LINE#         113
  C:1046H         LINE#         114
  C:1046H         LINE#         115
  C:1053H         LINE#         116
  C:105DH         LINE#         117
  C:1067H         LINE#         118
  C:1071H         LINE#         119
  C:1090H         LINE#         120
  C:10A0H         LINE#         121
  C:10A6H         LINE#         123
  C:10A6H         LINE#         124
  C:10A6H         LINE#         126
  C:10A6H         LINE#         127
  C:10A6H         LINE#         129
  C:10A6H         LINE#         130
  C:10A6H         LINE#         132
  C:10B3H         LINE#         133
  C:10BDH         LINE#         134
  C:10C7H         LINE#         135
  C:10D1H         LINE#         136
  C:10F0H         LINE#         137
  C:1100H         LINE#         138
  C:1106H         LINE#         140
  C:1106H         LINE#         141
  C:1106H         LINE#         143
  C:1106H         LINE#         144
  C:1106H         LINE#         146
  C:1106H         LINE#         147
  C:1106H         LINE#         148
  C:1113H         LINE#         149
  C:111DH         LINE#         150
  C:1127H         LINE#         151
  C:1131H         LINE#         152
BL51 BANKED LINKER/LOCATER V6.22                                                      09/03/2017  16:51:00  PAGE 15


  C:1150H         LINE#         153
  C:1160H         LINE#         154
  C:1166H         LINE#         156
  C:1166H         LINE#         157
  C:1166H         LINE#         159
  C:1166H         LINE#         160
  C:1166H         LINE#         162
  C:1166H         LINE#         163
  C:1166H         LINE#         165
  C:1173H         LINE#         166
  C:117DH         LINE#         167
  C:1187H         LINE#         168
  C:1191H         LINE#         169
  C:11ADH         LINE#         170
  C:11BDH         LINE#         171
  C:11C3H         LINE#         173
  C:11C3H         LINE#         174
  C:11C3H         LINE#         176
  C:11C3H         LINE#         177
  C:11C3H         LINE#         179
  C:11C3H         LINE#         180
  C:11C3H         LINE#         181
  C:11D0H         LINE#         182
  C:11DAH         LINE#         183
  C:11E4H         LINE#         184
  C:11EEH         LINE#         185
  C:120AH         LINE#         186
  C:121AH         LINE#         187
  C:1220H         LINE#         189
  C:1220H         LINE#         190
  C:1220H         LINE#         192
  C:1220H         LINE#         193
  C:1220H         LINE#         195
  C:1220H         LINE#         196
  C:1220H         LINE#         198
  C:1220H         LINE#         199
  C:1220H         LINE#         201
  C:1220H         LINE#         202
  C:1220H         LINE#         204
  C:1220H         LINE#         205
  C:1220H         LINE#         207
  C:1220H         LINE#         209
  C:1220H         LINE#         210
  C:1226H         LINE#         211
  C:1228H         LINE#         212
  C:1233H         LINE#         213
  C:1233H         LINE#         215
  -------         ENDPROC       _APP_KEY_PRO
  -------         ENDMOD        APP_KEY

  -------         MODULE        APP_WORK
  C:0000H         SYMBOL        _ICE_DUMMY_
  D:0080H         PUBLIC        P0
  D:0090H         PUBLIC        P1
  D:00A0H         PUBLIC        P2
  D:00B0H         PUBLIC        P3
  D:00D8H         PUBLIC        P5
BL51 BANKED LINKER/LOCATER V6.22                                                      09/03/2017  16:51:00  PAGE 16


  D:00A8H         PUBLIC        IE
  D:00B8H         PUBLIC        IP
  C:325CH         SYMBOL        app_work_pro
  C:325AH         PUBLIC        app_work_1s_pro
  D:0098H         PUBLIC        SCON
  D:0088H         PUBLIC        TCON
  D:00F8H         PUBLIC        SCON_1
  D:00E8H         PUBLIC        ADCCON0
  D:00C0H         PUBLIC        I2CON
  C:317DH         PUBLIC        app_work_Init
  I:00BEH         PUBLIC        g_tWork
  D:00C8H         PUBLIC        T2CON
  C:325BH         PUBLIC        app_work_100ms_pro
  D:00D0H         PUBLIC        PSW
  -------         PROC          APP_WORK_INIT
  C:317DH         LINE#         14
  C:317DH         LINE#         15
  C:3181H         LINE#         17
  -------         ENDPROC       APP_WORK_INIT
  -------         PROC          APP_WORK_1S_PRO
  C:325AH         LINE#         20
  C:325AH         LINE#         22
  -------         ENDPROC       APP_WORK_1S_PRO
  -------         PROC          APP_WORK_100MS_PRO
  C:325BH         LINE#         23
  C:325BH         LINE#         25
  -------         ENDPROC       APP_WORK_100MS_PRO
  -------         PROC          APP_WORK_PRO
  C:325CH         LINE#         27
  C:325CH         LINE#         29
  -------         ENDPROC       APP_WORK_PRO
  -------         ENDMOD        APP_WORK

  -------         MODULE        APP_REPEAT_EXE
  C:0000H         SYMBOL        _ICE_DUMMY_
  D:0080H         PUBLIC        P0
  D:0090H         PUBLIC        P1
  D:00A0H         PUBLIC        P2
  D:00B0H         PUBLIC        P3
  C:30D4H         PUBLIC        _Repeat_SetStart
  D:00D8H         PUBLIC        P5
  D:00A8H         PUBLIC        IE
  C:3103H         PUBLIC        app_repeat_IsEnable
  C:3005H         SYMBOL        Repeat_Stop_exe
  D:00B8H         PUBLIC        IP
  C:30E0H         PUBLIC        _Repeat_SetStop
  X:0053H         SYMBOL        g_tRepeat
  D:0098H         PUBLIC        SCON
  D:0088H         PUBLIC        TCON
  D:00F8H         PUBLIC        SCON_1
  C:2B74H         PUBLIC        _Repeat_Start
  D:00E8H         PUBLIC        ADCCON0
  D:00C0H         PUBLIC        I2CON
  D:00C8H         PUBLIC        T2CON
  C:2F27H         PUBLIC        Repeat_Stop
  C:1FB5H         PUBLIC        Repeat_Pro
  C:2FF5H         SYMBOL        Repeat_Start_exe
BL51 BANKED LINKER/LOCATER V6.22                                                      09/03/2017  16:51:00  PAGE 17


  D:00D0H         PUBLIC        PSW
  -------         PROC          _REPEAT_SETSTART
  D:0001H         SYMBOL        fun
  C:30D4H         LINE#         12
  C:30D4H         LINE#         13
  C:30DFH         LINE#         14
  -------         ENDPROC       _REPEAT_SETSTART
  -------         PROC          _REPEAT_SETSTOP
  D:0001H         SYMBOL        fun
  C:30E0H         LINE#         16
  C:30E0H         LINE#         17
  C:30EBH         LINE#         18
  -------         ENDPROC       _REPEAT_SETSTOP
  -------         PROC          REPEAT_START_EXE
  C:2FF5H         LINE#         20
  C:2FF5H         LINE#         21
  C:3001H         LINE#         22
  C:3004H         LINE#         23
  C:3004H         LINE#         24
  -------         ENDPROC       REPEAT_START_EXE
  -------         PROC          REPEAT_STOP_EXE
  C:3005H         LINE#         26
  C:3005H         LINE#         27
  C:3011H         LINE#         28
  C:3014H         LINE#         29
  C:3014H         LINE#         30
  -------         ENDPROC       REPEAT_STOP_EXE
  -------         PROC          _REPEAT_START
  D:0006H         SYMBOL        _usStartTime
  D:0004H         SYMBOL        _usStopTime
  D:0002H         SYMBOL        _usCycle
  C:2B74H         LINE#         42
  C:2B74H         LINE#         43
  C:2B74H         LINE#         44
  C:2B78H         LINE#         46
  C:2B78H         LINE#         48
  C:2B80H         LINE#         49
  C:2B88H         LINE#         50
  C:2B90H         LINE#         51
  C:2B95H         LINE#         52
  C:2B99H         LINE#         53
  C:2B9DH         LINE#         54
  C:2BA2H         LINE#         56
  C:2BA5H         LINE#         57
  -------         ENDPROC       _REPEAT_START
  -------         PROC          REPEAT_STOP
  C:2F27H         LINE#         67
  C:2F27H         LINE#         68
  C:2F2CH         LINE#         69
  C:2F2FH         LINE#         70
  C:2F38H         LINE#         71
  -------         ENDPROC       REPEAT_STOP
  -------         PROC          APP_REPEAT_ISENABLE
  C:3103H         LINE#         75
  C:3103H         LINE#         76
  C:3109H         LINE#         77
  C:310BH         LINE#         78
BL51 BANKED LINKER/LOCATER V6.22                                                      09/03/2017  16:51:00  PAGE 18


  C:310BH         LINE#         79
  C:310CH         LINE#         80
  -------         ENDPROC       APP_REPEAT_ISENABLE
  -------         PROC          REPEAT_PRO
  C:1FB5H         LINE#         90
  C:1FB5H         LINE#         92
  C:1FCCH         LINE#         94
  C:1FCCH         LINE#         96
  C:1FD2H         LINE#         97
  C:1FDEH         LINE#         98
  C:1FDEH         LINE#         99
  C:1FF7H         LINE#         100
  C:1FFAH         LINE#         101
  C:2001H         LINE#         102
  C:2006H         LINE#         103
  C:2006H         LINE#         104
  C:2007H         LINE#         106
  C:2007H         LINE#         107
  C:200FH         LINE#         108
  C:2027H         LINE#         110
  C:2036H         LINE#         111
  C:2049H         LINE#         113
  C:204EH         LINE#         114
  C:204EH         LINE#         116
  C:2054H         LINE#         117
  C:205BH         LINE#         119
  C:205BH         LINE#         120
  C:205BH         LINE#         121
  C:2062H         LINE#         122
  C:2066H         LINE#         124
  C:2069H         LINE#         125
  C:2069H         LINE#         126
  C:2069H         LINE#         128
  -------         ENDPROC       REPEAT_PRO
  -------         ENDMOD        APP_REPEAT_EXE

  -------         MODULE        APP_2D4
  C:0000H         SYMBOL        _ICE_DUMMY_
  D:0080H         PUBLIC        P0
  D:0090H         PUBLIC        P1
  D:00A0H         PUBLIC        P2
  D:00B0H         PUBLIC        P3
  C:2CC0H         PUBLIC        app_2d4_init
  D:00D8H         PUBLIC        P5
  C:3120H         SYMBOL        BT_play_show_lcd_resp
  C:290AH         PUBLIC        app_2d4_1S_pro
  D:00A8H         PUBLIC        IE
  C:2EE6H         SYMBOL        speaker_status_resp
  D:00B8H         PUBLIC        IP
  C:2FAEH         SYMBOL        FM_scanning_show_lcd_resp
  C:2962H         PUBLIC        app_2d4_pro
  C:2FC0H         SYMBOL        FM_ok_show_lcd_resp
  D:0098H         PUBLIC        SCON
  D:0088H         PUBLIC        TCON
  C:3015H         SYMBOL        clear_lcd_resp
  C:3024H         SYMBOL        USB_pause_show_lcd_resp
  C:2231H         SYMBOL        _?ix1000
BL51 BANKED LINKER/LOCATER V6.22                                                      09/03/2017  16:51:00  PAGE 19


  C:2241H         SYMBOL        _?ix1001
  C:2558H         SYMBOL        mode_resp
  D:00F8H         PUBLIC        SCON_1
  C:2EFCH         SYMBOL        relay_status_resp
  I:009DH         SYMBOL        sendBuf
  C:3033H         SYMBOL        USB_time_show_lcd_resp
  I:00ADH         SYMBOL        sendRcv_flag
  D:00E8H         PUBLIC        ADCCON0
  D:00C0H         PUBLIC        I2CON
  C:3132H         SYMBOL        AUX_play_show_lcd_resp
  C:3129H         SYMBOL        AUX_mute_show_lcd_resp
  D:00C8H         PUBLIC        T2CON
  I:00AEH         SYMBOL        rcvBuf
  C:3117H         SYMBOL        BT_pause_show_lcd_resp
  C:001EH         SYMBOL        vol_resp
  C:1234H         SYMBOL        _app_2d4_Rcv
  C:29B8H         PUBLIC        _app_2d4_send
  D:00D0H         PUBLIC        PSW
  -------         PROC          APP_2D4_INIT
  C:2CC0H         LINE#         14
  C:2CC0H         LINE#         16
  C:2CC4H         LINE#         17
  C:2CD0H         LINE#         18
  C:2CDFH         LINE#         20
  C:2CE2H         LINE#         21
  -------         ENDPROC       APP_2D4_INIT
  -------         PROC          _APP_2D4_SEND
  X:0005H         SYMBOL        d
  X:0008H         SYMBOL        len
  C:29B8H         LINE#         26
  C:29C6H         LINE#         28
  C:29CBH         LINE#         30
  C:29CBH         LINE#         32
  C:29CEH         LINE#         33
  C:29D2H         LINE#         35
  C:29EDH         LINE#         36
  C:2A08H         LINE#         37
  C:2A08H         LINE#         39
  -------         ENDPROC       _APP_2D4_SEND
  -------         PROC          SPEAKER_STATUS_RESP
  C:2EE6H         LINE#         40
  C:2EE6H         LINE#         41
  C:2EEEH         LINE#         42
  C:2EF2H         LINE#         43
  C:2EF4H         LINE#         44
  C:2EFBH         LINE#         45
  C:2EFBH         LINE#         47
  -------         ENDPROC       SPEAKER_STATUS_RESP
  -------         PROC          RELAY_STATUS_RESP
  C:2EFCH         LINE#         48
  C:2EFCH         LINE#         49
  C:2F04H         LINE#         50
  C:2F08H         LINE#         51
  C:2F0AH         LINE#         52
  C:2F11H         LINE#         53
  C:2F11H         LINE#         55
  -------         ENDPROC       RELAY_STATUS_RESP
BL51 BANKED LINKER/LOCATER V6.22                                                      09/03/2017  16:51:00  PAGE 20


  -------         PROC          VOL_RESP
  -------         DO            
  X:0008H         SYMBOL        str
  -------         ENDDO         
  C:001EH         LINE#         56
  C:001EH         LINE#         57
  C:0031H         LINE#         59
  C:0052H         LINE#         60
  -------         ENDPROC       VOL_RESP
  -------         PROC          MODE_RESP
  -------         DO            
  X:0076H         SYMBOL        str
  -------         ENDDO         
  C:2558H         LINE#         62
  C:2558H         LINE#         63
  C:256BH         LINE#         65
  C:257EH         LINE#         66
  C:257EH         LINE#         67
  C:2582H         LINE#         68
  C:2584H         LINE#         69
  C:2584H         LINE#         70
  C:2588H         LINE#         71
  C:258AH         LINE#         72
  C:258AH         LINE#         73
  C:258EH         LINE#         74
  C:2590H         LINE#         75
  C:2590H         LINE#         76
  C:2594H         LINE#         77
  C:2594H         LINE#         78
  C:2594H         LINE#         80
  C:25B5H         LINE#         81
  -------         ENDPROC       MODE_RESP
  -------         PROC          CLEAR_LCD_RESP
  C:3015H         LINE#         83
  C:3015H         LINE#         84
  C:301EH         LINE#         86
  C:3021H         LINE#         87
  -------         ENDPROC       CLEAR_LCD_RESP
  -------         PROC          BT_PAUSE_SHOW_LCD_RESP
  C:3117H         LINE#         89
  C:3117H         LINE#         90
  -------         ENDPROC       BT_PAUSE_SHOW_LCD_RESP
  -------         PROC          BT_PLAY_SHOW_LCD_RESP
  C:3120H         LINE#         93
  C:3120H         LINE#         94
  -------         ENDPROC       BT_PLAY_SHOW_LCD_RESP
  -------         PROC          FM_SCANNING_SHOW_LCD_RESP
  C:2FAEH         LINE#         96
  C:2FAEH         LINE#         97
  C:2FB7H         LINE#         98
  C:2FBAH         LINE#         99
  C:2FBDH         LINE#         100
  -------         ENDPROC       FM_SCANNING_SHOW_LCD_RESP
  -------         PROC          FM_OK_SHOW_LCD_RESP
  C:2FC0H         LINE#         103
  C:2FC0H         LINE#         104
  C:2FC9H         LINE#         105
BL51 BANKED LINKER/LOCATER V6.22                                                      09/03/2017  16:51:00  PAGE 21


  C:2FCCH         LINE#         106
  C:2FCFH         LINE#         107
  -------         ENDPROC       FM_OK_SHOW_LCD_RESP
  -------         PROC          AUX_MUTE_SHOW_LCD_RESP
  C:3129H         LINE#         110
  C:3129H         LINE#         111
  -------         ENDPROC       AUX_MUTE_SHOW_LCD_RESP
  -------         PROC          AUX_PLAY_SHOW_LCD_RESP
  C:3132H         LINE#         114
  C:3132H         LINE#         115
  -------         ENDPROC       AUX_PLAY_SHOW_LCD_RESP
  -------         PROC          USB_PAUSE_SHOW_LCD_RESP
  C:3024H         LINE#         118
  C:3024H         LINE#         119
  C:302DH         LINE#         120
  C:3030H         LINE#         121
  -------         ENDPROC       USB_PAUSE_SHOW_LCD_RESP
  -------         PROC          USB_TIME_SHOW_LCD_RESP
  C:3033H         LINE#         124
  C:3033H         LINE#         125
  C:303CH         LINE#         126
  C:303FH         LINE#         127
  -------         ENDPROC       USB_TIME_SHOW_LCD_RESP
  -------         PROC          _APP_2D4_RCV
  X:0002H         SYMBOL        buf
  -------         DO            
  X:0005H         SYMBOL        i
  X:0006H         SYMBOL        index
  X:0007H         SYMBOL        check
  -------         ENDDO         
  C:1234H         LINE#         129
  C:123FH         LINE#         130
  C:1242H         LINE#         131
  C:1244H         LINE#         132
  C:1246H         LINE#         134
  C:1250H         LINE#         136
  C:1253H         LINE#         137
  C:126CH         LINE#         139
  C:126CH         LINE#         140
  C:1298H         LINE#         141
  C:12ADH         LINE#         142
  C:12B5H         LINE#         143
  C:12DBH         LINE#         145
  C:12DBH         LINE#         148
  C:12EAH         LINE#         149
  C:12EFH         LINE#         150
  C:131EH         LINE#         151
  C:131EH         LINE#         153
  C:131EH         LINE#         154
  C:131EH         LINE#         156
  C:1328H         LINE#         157
  C:132CH         LINE#         158
  C:1332H         LINE#         159
  C:1332H         LINE#         161
  C:1332H         LINE#         162
  C:1335H         LINE#         163
  C:1339H         LINE#         164
BL51 BANKED LINKER/LOCATER V6.22                                                      09/03/2017  16:51:00  PAGE 22


  C:133FH         LINE#         165
  C:133FH         LINE#         167
  C:133FH         LINE#         168
  C:133FH         LINE#         170
  C:1342H         LINE#         171
  C:1342H         LINE#         173
  C:1358H         LINE#         174
  C:135CH         LINE#         175
  C:135EH         LINE#         176
  C:1362H         LINE#         177
  C:1362H         LINE#         179
  C:1368H         LINE#         180
  C:1368H         LINE#         182
  C:1368H         LINE#         184
  C:136BH         LINE#         185
  C:136BH         LINE#         187
  C:136BH         LINE#         188
  C:136BH         LINE#         190
  C:136BH         LINE#         191
  C:136BH         LINE#         192
  C:136BH         LINE#         193
  C:136BH         LINE#         194
  C:137FH         LINE#         196
  C:1385H         LINE#         197
  C:1385H         LINE#         199
  C:1385H         LINE#         200
  C:1387H         LINE#         201
  C:1387H         LINE#         202
  C:139BH         LINE#         204
  C:13A1H         LINE#         205
  C:13A1H         LINE#         207
  C:13A1H         LINE#         208
  C:13A3H         LINE#         209
  C:13A3H         LINE#         211
  C:13B7H         LINE#         213
  C:13D0H         LINE#         214
  C:13D0H         LINE#         215
  C:13F5H         LINE#         216
  C:13FBH         LINE#         217
  C:1402H         LINE#         218
  C:140BH         LINE#         219
  C:1415H         LINE#         220
  C:1418H         LINE#         221
  C:141CH         LINE#         222
  C:141CH         LINE#         223
  C:141CH         LINE#         224
  C:141CH         LINE#         225
  C:141FH         LINE#         226
  C:141FH         LINE#         227
  C:144FH         LINE#         228
  C:1455H         LINE#         229
  C:145CH         LINE#         230
  C:1465H         LINE#         231
  C:146DH         LINE#         232
  C:1470H         LINE#         233
  C:1477H         LINE#         234
  C:1480H         LINE#         235
BL51 BANKED LINKER/LOCATER V6.22                                                      09/03/2017  16:51:00  PAGE 23


  C:148AH         LINE#         236
  C:148AH         LINE#         237
  C:148DH         LINE#         238
  C:148DH         LINE#         239
  C:14BEH         LINE#         240
  C:14C4H         LINE#         241
  C:14C8H         LINE#         242
  C:14C8H         LINE#         243
  C:14C8H         LINE#         244
  C:14CAH         LINE#         245
  C:14D1H         LINE#         246
  C:14DAH         LINE#         247
  C:14E2H         LINE#         248
  C:14E2H         LINE#         250
  C:14E4H         LINE#         251
  C:14E4H         LINE#         252
  C:1514H         LINE#         253
  C:151AH         LINE#         254
  C:1521H         LINE#         255
  C:152AH         LINE#         256
  C:1536H         LINE#         257
  C:1538H         LINE#         258
  C:153FH         LINE#         259
  C:1548H         LINE#         260
  C:1554H         LINE#         261
  C:1554H         LINE#         262
  C:1556H         LINE#         263
  C:1556H         LINE#         265
  C:1556H         LINE#         266
  C:1556H         LINE#         267
  C:156AH         LINE#         269
  C:157AH         LINE#         270
  C:157AH         LINE#         271
  C:157DH         LINE#         274
  C:1580H         LINE#         275
  C:1580H         LINE#         277
  C:1580H         LINE#         279
  C:1582H         LINE#         280
  C:1582H         LINE#         282
  C:1585H         LINE#         283
  C:1588H         LINE#         285
  C:158BH         LINE#         287
  C:158BH         LINE#         289
  C:158DH         LINE#         290
  C:158DH         LINE#         291
  C:1590H         LINE#         293
  C:1593H         LINE#         296
  C:1596H         LINE#         297
  C:1599H         LINE#         299
  C:159BH         LINE#         300
  C:159BH         LINE#         301
  C:159EH         LINE#         303
  C:15A1H         LINE#         305
  C:15A4H         LINE#         308
  C:15A7H         LINE#         309
  C:15A7H         LINE#         310
  C:15A7H         LINE#         311
BL51 BANKED LINKER/LOCATER V6.22                                                      09/03/2017  16:51:00  PAGE 24


  C:15A7H         LINE#         312
  C:15A7H         LINE#         313
  C:15ADH         LINE#         314
  C:15AFH         LINE#         316
  C:15AFH         LINE#         318
  -------         ENDPROC       _APP_2D4_RCV
  -------         PROC          APP_2D4_PRO
  C:2962H         LINE#         320
  C:2962H         LINE#         321
  C:2967H         LINE#         323
  C:2977H         LINE#         324
  C:2977H         LINE#         326
  C:297AH         LINE#         327
  C:297DH         LINE#         329
  C:2981H         LINE#         330
  C:2984H         LINE#         334
  C:2984H         LINE#         335
  C:2984H         LINE#         337
  C:2984H         LINE#         338
  C:2984H         LINE#         339
  C:2986H         LINE#         340
  C:2986H         LINE#         342
  C:2989H         LINE#         343
  C:298CH         LINE#         344
  C:298CH         LINE#         345
  C:298CH         LINE#         347
  C:2997H         LINE#         349
  C:2997H         LINE#         350
  C:2997H         LINE#         352
  C:2997H         LINE#         353
  C:29A5H         LINE#         357
  C:29A8H         LINE#         358
  C:29ABH         LINE#         359
  C:29AEH         LINE#         361
  C:29B7H         LINE#         362
  C:29B7H         LINE#         364
  C:29B7H         LINE#         366
  -------         ENDPROC       APP_2D4_PRO
  -------         PROC          APP_2D4_1S_PRO
  C:290AH         LINE#         368
  C:290AH         LINE#         370
  C:291DH         LINE#         371
  C:291DH         LINE#         373
  C:2923H         LINE#         374
  C:2923H         LINE#         376
  C:2923H         LINE#         377
  C:2923H         LINE#         379
  C:2925H         LINE#         380
  C:2925H         LINE#         381
  C:2930H         LINE#         382
  C:2933H         LINE#         383
  C:2936H         LINE#         385
  C:2939H         LINE#         386
  C:2939H         LINE#         387
  C:2939H         LINE#         388
  C:2944H         LINE#         389
  C:2947H         LINE#         390
BL51 BANKED LINKER/LOCATER V6.22                                                      09/03/2017  16:51:00  PAGE 25


  C:294AH         LINE#         391
  C:294DH         LINE#         392
  C:294DH         LINE#         393
  C:294DH         LINE#         394
  C:2958H         LINE#         395
  C:295BH         LINE#         396
  C:295EH         LINE#         398
  C:2961H         LINE#         399
  C:2961H         LINE#         400
  C:2961H         LINE#         402
  -------         ENDPROC       APP_2D4_1S_PRO
  -------         ENDMOD        APP_2D4

  -------         MODULE        APP_LCD
  C:0000H         SYMBOL        _ICE_DUMMY_
  D:0080H         PUBLIC        P0
  D:0090H         PUBLIC        P1
  D:00A0H         PUBLIC        P2
  D:00B0H         PUBLIC        P3
  D:00D8H         PUBLIC        P5
  C:3042H         PUBLIC        app_lcd_pro
  D:00A8H         PUBLIC        IE
  D:00B8H         PUBLIC        IP
  D:0098H         PUBLIC        SCON
  D:0088H         PUBLIC        TCON
  D:00F8H         PUBLIC        SCON_1
  C:2D73H         PUBLIC        _app_lcd_default_string_set
  D:00E8H         PUBLIC        ADCCON0
  D:00C0H         PUBLIC        I2CON
  D:00C8H         PUBLIC        T2CON
  C:2ECEH         PUBLIC        app_lcd_init
  X:0086H         SYMBOL        lcd_default_string
  D:00D0H         PUBLIC        PSW
  -------         PROC          APP_LCD_INIT
  C:2ECEH         LINE#         13
  C:2ECEH         LINE#         14
  -------         ENDPROC       APP_LCD_INIT
  -------         PROC          _APP_LCD_DEFAULT_STRING_SET
  D:0001H         SYMBOL        s
  X:00C9H         SYMBOL        len
  C:2D73H         LINE#         20
  C:2D78H         LINE#         21
  C:2D84H         LINE#         22
  C:2D93H         LINE#         23
  -------         ENDPROC       _APP_LCD_DEFAULT_STRING_SET
  -------         PROC          APP_LCD_PRO
  C:3042H         LINE#         25
  C:3042H         LINE#         27
  C:3047H         LINE#         29
  C:3050H         LINE#         31
  C:3050H         LINE#         33
  -------         ENDPROC       APP_LCD_PRO
  -------         ENDMOD        APP_LCD

  -------         MODULE        BSP
  C:0000H         SYMBOL        _ICE_DUMMY_
  D:0080H         PUBLIC        P0
BL51 BANKED LINKER/LOCATER V6.22                                                      09/03/2017  16:51:00  PAGE 26


  D:0090H         PUBLIC        P1
  D:00A0H         PUBLIC        P2
  D:00B0H         PUBLIC        P3
  D:00D8H         PUBLIC        P5
  B:00A8H.7       PUBLIC        EA
  D:00A8H         PUBLIC        IE
  D:00B8H         PUBLIC        IP
  B:0021H.1       PUBLIC        BIT_TMP
  D:0098H         PUBLIC        SCON
  D:0088H         PUBLIC        TCON
  C:2E4BH         PUBLIC        bsp_Init
  D:00F8H         PUBLIC        SCON_1
  D:00E8H         PUBLIC        ADCCON0
  D:00C0H         PUBLIC        I2CON
  D:00C8H         PUBLIC        T2CON
  D:00D0H         PUBLIC        PSW
  -------         PROC          BSP_INIT
  C:2E4BH         LINE#         5
  C:2E4BH         LINE#         10
  C:2E4EH         LINE#         12
  C:2E51H         LINE#         13
  C:2E54H         LINE#         14
  C:2E57H         LINE#         15
  C:2E5AH         LINE#         17
  C:2E5DH         LINE#         18
  C:2E60H         LINE#         23
  C:2E63H         LINE#         25
  C:2E65H         LINE#         27
  -------         ENDPROC       BSP_INIT
  -------         ENDMOD        BSP

  -------         MODULE        BSP_KEY
  C:0000H         SYMBOL        _ICE_DUMMY_
  D:00B1H         PUBLIC        P0M1
  D:00B2H         PUBLIC        P0M2
  D:0080H         PUBLIC        P0
  D:0090H         PUBLIC        P1
  D:00A0H         PUBLIC        P2
  C:24FAH         SYMBOL        _IsKeyDown
  D:00B0H         PUBLIC        P3
  D:00D8H         PUBLIC        P5
  C:2F3BH         PUBLIC        _bsp_PutKey
  D:00A8H         PUBLIC        IE
  C:206AH         SYMBOL        bsp_InitKeyVar
  X:00A1H         PUBLIC        pBtn
  D:00B8H         PUBLIC        IP
  C:2FD2H         SYMBOL        IsKeyDown_1AND6
  C:2E2FH         PUBLIC        bsp_GetKey2
  C:1915H         SYMBOL        _bsp_DetectKey
  B:0080H.2       PUBLIC        P02
  C:313BH         SYMBOL        IsKeyDown1
  D:0098H         PUBLIC        SCON
  C:3051H         SYMBOL        IsKeyDown2
  D:0088H         PUBLIC        TCON
  C:3060H         SYMBOL        IsKeyDown3
  C:306FH         SYMBOL        IsKeyDown4
  C:30ABH         SYMBOL        IsKeyDown5
BL51 BANKED LINKER/LOCATER V6.22                                                      09/03/2017  16:51:00  PAGE 27


  C:3216H         SYMBOL        IsKeyDown6
  C:321CH         SYMBOL        IsKeyDown7
  C:307EH         SYMBOL        IsKeyDown8
  C:308DH         SYMBOL        IsKeyDown9
  C:3228H         PUBLIC        bsp_ClearKey
  X:00A4H         PUBLIC        min
  D:00F8H         PUBLIC        SCON_1
  X:00A6H         PUBLIC        max
  C:2E66H         PUBLIC        bsp_KeyScan
  D:00E8H         PUBLIC        ADCCON0
  D:00C0H         PUBLIC        I2CON
  D:00C8H         PUBLIC        T2CON
  C:3222H         PUBLIC        bsp_InitKey
  C:3184H         SYMBOL        bsp_InitKeyHard
  I:0022H         SYMBOL        s_tBtn
  I:0090H         SYMBOL        s_tKey
  C:2E13H         PUBLIC        bsp_GetKey
  C:2CE5H         PUBLIC        _bsp_SetKeyParam
  C:30F8H         PUBLIC        _bsp_GetKeyState
  D:00D0H         PUBLIC        PSW
  -------         PROC          ISKEYDOWN1
  C:313BH         LINE#         46
  C:313BH         LINE#         47
  C:313EH         LINE#         48
  C:3141H         LINE#         49
  C:3141H         LINE#         50
  C:3143H         LINE#         51
  C:3143H         LINE#         52
  -------         ENDPROC       ISKEYDOWN1
  -------         PROC          L?0067
  -------         ENDPROC       L?0067
  -------         PROC          _ISKEYDOWN
  D:0006H         SYMBOL        key_ad
  D:0004H         SYMBOL        result_ad
  C:24FAH         LINE#         55
  C:24FAH         LINE#         57
  C:251FH         LINE#         58
  C:253EH         LINE#         60
  C:2557H         LINE#         61
  -------         ENDPROC       _ISKEYDOWN
  -------         PROC          ISKEYDOWN2
  C:3051H         LINE#         64
  C:3051H         LINE#         66
  C:305FH         LINE#         67
  -------         ENDPROC       ISKEYDOWN2
  -------         PROC          ISKEYDOWN3
  C:3060H         LINE#         69
  C:3060H         LINE#         70
  C:306EH         LINE#         71
  -------         ENDPROC       ISKEYDOWN3
  -------         PROC          ISKEYDOWN4
  C:306FH         LINE#         73
  C:306FH         LINE#         74
  C:307DH         LINE#         75
  -------         ENDPROC       ISKEYDOWN4
  -------         PROC          ISKEYDOWN5
  C:30ABH         LINE#         77
BL51 BANKED LINKER/LOCATER V6.22                                                      09/03/2017  16:51:00  PAGE 28


  C:30ABH         LINE#         79
  C:30B8H         LINE#         80
  -------         ENDPROC       ISKEYDOWN5
  -------         PROC          ISKEYDOWN6
  C:3216H         LINE#         82
  C:3216H         LINE#         83
  C:321BH         LINE#         84
  -------         ENDPROC       ISKEYDOWN6
  -------         PROC          ISKEYDOWN7
  C:321CH         LINE#         86
  C:321CH         LINE#         87
  C:3221H         LINE#         88
  -------         ENDPROC       ISKEYDOWN7
  -------         PROC          ISKEYDOWN8
  C:307EH         LINE#         90
  C:307EH         LINE#         91
  C:308CH         LINE#         92
  -------         ENDPROC       ISKEYDOWN8
  -------         PROC          ISKEYDOWN9
  C:308DH         LINE#         94
  C:308DH         LINE#         95
  C:309BH         LINE#         96
  -------         ENDPROC       ISKEYDOWN9
  -------         PROC          ISKEYDOWN_1AND6
  C:2FD2H         LINE#         98
  C:2FD2H         LINE#         99
  C:2FDEH         LINE#         100
  C:2FE1H         LINE#         101
  C:2FE1H         LINE#         102
  C:2FE3H         LINE#         103
  C:2FE3H         LINE#         105
  -------         ENDPROC       ISKEYDOWN_1AND6
  -------         PROC          BSP_INITKEY
  C:3222H         LINE#         114
  C:3222H         LINE#         115
  C:3225H         LINE#         116
  -------         ENDPROC       BSP_INITKEY
  -------         PROC          _BSP_PUTKEY
  D:0007H         SYMBOL        _KeyCode
  C:2F3BH         LINE#         127
  C:2F3BH         LINE#         128
  C:2F43H         LINE#         130
  C:2F4CH         LINE#         131
  C:2F4EH         LINE#         132
  C:2F4EH         LINE#         133
  -------         ENDPROC       _BSP_PUTKEY
  -------         PROC          BSP_GETKEY
  -------         DO            
  D:0007H         SYMBOL        ret
  -------         ENDDO         
  C:2E13H         LINE#         143
  C:2E13H         LINE#         146
  C:2E1BH         LINE#         147
  C:2E1DH         LINE#         148
  C:2E1DH         LINE#         149
  C:2E23H         LINE#         151
  C:2E2CH         LINE#         152
BL51 BANKED LINKER/LOCATER V6.22                                                      09/03/2017  16:51:00  PAGE 29


  C:2E2EH         LINE#         153
  C:2E2EH         LINE#         154
  C:2E2EH         LINE#         155
  C:2E2EH         LINE#         156
  -------         ENDPROC       BSP_GETKEY
  -------         PROC          BSP_GETKEY2
  -------         DO            
  D:0007H         SYMBOL        ret
  -------         ENDDO         
  C:2E2FH         LINE#         166
  C:2E2FH         LINE#         169
  C:2E37H         LINE#         170
  C:2E39H         LINE#         171
  C:2E39H         LINE#         172
  C:2E3FH         LINE#         174
  C:2E48H         LINE#         175
  C:2E4AH         LINE#         176
  C:2E4AH         LINE#         177
  C:2E4AH         LINE#         178
  C:2E4AH         LINE#         179
  -------         ENDPROC       BSP_GETKEY2
  -------         PROC          _BSP_GETKEYSTATE
  D:0007H         SYMBOL        _ucKeyID
  C:30F8H         LINE#         189
  C:30F8H         LINE#         190
  C:3102H         LINE#         191
  -------         ENDPROC       _BSP_GETKEYSTATE
  -------         PROC          _BSP_SETKEYPARAM
  D:0007H         SYMBOL        _ucKeyID
  D:0004H         SYMBOL        _LongTime
  D:0003H         SYMBOL        _RepeatSpeed
  C:2CE5H         LINE#         203
  C:2CE5H         LINE#         204
  C:2CF2H         LINE#         205
  C:2CFEH         LINE#         206
  C:2D08H         LINE#         207
  -------         ENDPROC       _BSP_SETKEYPARAM
  -------         PROC          BSP_CLEARKEY
  C:3228H         LINE#         217
  C:3228H         LINE#         218
  C:322DH         LINE#         219
  -------         ENDPROC       BSP_CLEARKEY
  -------         PROC          BSP_INITKEYHARD
  C:3184H         LINE#         229
  C:3184H         LINE#         231
  C:3187H         LINE#         232
  C:318AH         LINE#         234
  -------         ENDPROC       BSP_INITKEYHARD
  -------         PROC          BSP_INITKEYVAR
  -------         DO            
  D:0007H         SYMBOL        i
  -------         ENDDO         
  C:206AH         LINE#         244
  C:206AH         LINE#         249
  C:206EH         LINE#         250
  C:2070H         LINE#         251
  C:2072H         LINE#         254
BL51 BANKED LINKER/LOCATER V6.22                                                      09/03/2017  16:51:00  PAGE 30


  C:2073H         LINE#         255
  C:2080H         LINE#         256
  C:208AH         LINE#         257
  C:2094H         LINE#         261
  C:209EH         LINE#         262
  C:20A8H         LINE#         263
  C:20ADH         LINE#         266
  C:20B7H         LINE#         267
  C:20C1H         LINE#         268
  C:20CBH         LINE#         269
  C:20D5H         LINE#         270
  C:20DFH         LINE#         271
  C:20E9H         LINE#         272
  C:20F3H         LINE#         273
  C:20FDH         LINE#         274
  C:2107H         LINE#         275
  C:2111H         LINE#         276
  -------         ENDPROC       BSP_INITKEYVAR
  -------         PROC          _BSP_DETECTKEY
  X:0003H         SYMBOL        i
  C:1915H         LINE#         287
  C:191AH         LINE#         288
  C:192EH         LINE#         289
  C:193AH         LINE#         290
  C:1951H         LINE#         291
  C:1956H         LINE#         292
  C:195FH         LINE#         293
  C:1967H         LINE#         294
  C:1967H         LINE#         295
  C:196FH         LINE#         296
  C:1976H         LINE#         299
  C:1983H         LINE#         300
  C:1983H         LINE#         302
  C:19A2H         LINE#         303
  C:19AFH         LINE#         305
  C:19C6H         LINE#         307
  C:19D0H         LINE#         308
  C:19D0H         LINE#         309
  C:19D2H         LINE#         310
  C:19E1H         LINE#         311
  C:19EDH         LINE#         312
  C:19F4H         LINE#         314
  C:1A01H         LINE#         315
  C:1A01H         LINE#         316
  C:1A01H         LINE#         317
  C:1A01H         LINE#         318
  C:1A01H         LINE#         319
  C:1A01H         LINE#         320
  C:1A01H         LINE#         321
  C:1A18H         LINE#         322
  C:1A20H         LINE#         323
  C:1A25H         LINE#         324
  C:1A2DH         LINE#         325
  C:1A2FH         LINE#         326
  C:1A38H         LINE#         327
  C:1A3FH         LINE#         330
  C:1A4DH         LINE#         331
BL51 BANKED LINKER/LOCATER V6.22                                                      09/03/2017  16:51:00  PAGE 31


  C:1A4DH         LINE#         332
  C:1A4DH         LINE#         333
  C:1A61H         LINE#         334
  C:1A68H         LINE#         335
  C:1A68H         LINE#         336
  -------         ENDPROC       _BSP_DETECTKEY
  -------         PROC          BSP_KEYSCAN
  -------         DO            
  X:0002H         SYMBOL        i
  -------         ENDDO         
  C:2E66H         LINE#         346
  C:2E66H         LINE#         349
  C:2E75H         LINE#         350
  C:2E78H         LINE#         351
  C:2E80H         LINE#         352
  -------         ENDPROC       BSP_KEYSCAN
  -------         ENDMOD        BSP_KEY

  -------         MODULE        BSP_DISPLAY
  C:0000H         SYMBOL        _ICE_DUMMY_
  C:31E6H         PUBLIC        LCD_Show_BAZOOKA_ICO
  D:00B1H         PUBLIC        P0M1
  D:00B3H         PUBLIC        P1M1
  D:00B2H         PUBLIC        P0M2
  D:0080H         PUBLIC        P0
  D:00B5H         PUBLIC        P2M1
  D:00B4H         PUBLIC        P1M2
  D:0090H         PUBLIC        P1
  D:00B6H         PUBLIC        P2M2
  D:00ACH         PUBLIC        P3M1
  D:00A0H         PUBLIC        P2
  D:00DAH         PUBLIC        P4M1
  D:00B0H         PUBLIC        P3
  D:00ADH         PUBLIC        P3M2
  D:00DCH         PUBLIC        P5M1
  D:00DBH         PUBLIC        P4M2
  D:00DDH         PUBLIC        P5M2
  D:00D8H         PUBLIC        P5
  C:31A0H         PUBLIC        LCD_Show_FM_ICO
  D:00A8H         PUBLIC        IE
  C:318BH         PUBLIC        LCD_Clear_LED_ICO
  C:000EH         PUBLIC        LCD_Clear_All
  D:00B8H         PUBLIC        IP
  C:31EDH         PUBLIC        LCD_Clear_upColon_ICO
  C:31C3H         PUBLIC        LCD_Clear_USB_ICO
  C:2B0BH         PUBLIC        LCD_display_InitHard
  C:31B5H         PUBLIC        LCD_Clear_AUX_ICO
  C:31D1H         PUBLIC        LCD_Clear_MHZ_ICO
  C:3202H         PUBLIC        LCD_Show_downColon_ICO
  D:00FCH         PUBLIC        LCDDAT
  D:00FAH         PUBLIC        LCDCLK
  D:0098H         PUBLIC        SCON
  D:00F9H         PUBLIC        LCDCON
  D:0088H         PUBLIC        TCON
  C:31A7H         PUBLIC        LCD_Clear_BLUETooTH_ICO
  C:322EH         PUBLIC        LCD_Clear_Colon_ICO
  C:31DFH         PUBLIC        LCD_Clear_BAZOOKA_ICO
BL51 BANKED LINKER/LOCATER V6.22                                                      09/03/2017  16:51:00  PAGE 32


  D:00F8H         PUBLIC        SCON_1
  C:3192H         PUBLIC        LCD_Show_LED_ICO
  D:00FBH         PUBLIC        LCDPTR
  C:3199H         PUBLIC        LCD_Clear_FM_ICO
  C:2112H         PUBLIC        _LCD_ShowString
  C:1DEEH         SYMBOL        _LCD_Clear_mi
  C:005EH         PUBLIC        _LCD_ShowChar
  C:31F4H         PUBLIC        LCD_Show_upColon_ICO
  D:00E8H         PUBLIC        ADCCON0
  D:00C0H         PUBLIC        I2CON
  C:31CAH         PUBLIC        LCD_Show_USB_ICO
  C:31BCH         PUBLIC        LCD_Show_AUX_ICO
  C:31D8H         PUBLIC        LCD_Show_MHZ_ICO
  D:00E5H         PUBLIC        LCDSEG0
  D:00E6H         PUBLIC        LCDSEG1
  D:00E7H         PUBLIC        LCDSEG2
  D:00EEH         PUBLIC        LCDSEG3
  D:00C8H         PUBLIC        T2CON
  C:31AEH         PUBLIC        LCD_Show_BLUETooTH_ICO
  C:30C7H         PUBLIC        LCD_Clear_mi_all
  C:3234H         PUBLIC        LCD_Show_Colon_ICO
  C:31FBH         PUBLIC        LCD_Clear_downColon_ICO
  D:00D0H         PUBLIC        PSW
  -------         PROC          LCD_DISPLAY_INITHARD
  C:2B0BH         LINE#         16
  C:2B0BH         LINE#         19
  C:2B0EH         LINE#         20
  C:2B11H         LINE#         22
  C:2B13H         LINE#         23
  C:2B16H         LINE#         25
  C:2B18H         LINE#         26
  C:2B1BH         LINE#         28
  C:2B1DH         LINE#         29
  C:2B20H         LINE#         31
  C:2B22H         LINE#         32
  C:2B25H         LINE#         34
  C:2B27H         LINE#         35
  C:2B2AH         LINE#         39
  C:2B2CH         LINE#         41
  C:2B2FH         LINE#         44
  C:2B32H         LINE#         45
  C:2B35H         LINE#         46
  C:2B38H         LINE#         47
  C:2B3BH         LINE#         49
  C:2B3EH         LINE#         51
  -------         ENDPROC       LCD_DISPLAY_INITHARD
  -------         PROC          LCD_CLEAR_ALL
  -------         DO            
  D:0007H         SYMBOL        i
  -------         ENDDO         
  C:000EH         LINE#         54
  C:000EH         LINE#         56
  C:0010H         LINE#         57
  C:0012H         LINE#         58
  C:0015H         LINE#         59
  C:001AH         LINE#         60
  -------         ENDPROC       LCD_CLEAR_ALL
BL51 BANKED LINKER/LOCATER V6.22                                                      09/03/2017  16:51:00  PAGE 33


  -------         PROC          LCD_CLEAR_LED_ICO
  C:318BH         LINE#         62
  C:318BH         LINE#         63
  C:318EH         LINE#         64
  C:3191H         LINE#         65
  -------         ENDPROC       LCD_CLEAR_LED_ICO
  -------         PROC          LCD_SHOW_LED_ICO
  C:3192H         LINE#         66
  C:3192H         LINE#         67
  C:3195H         LINE#         68
  C:3198H         LINE#         69
  -------         ENDPROC       LCD_SHOW_LED_ICO
  -------         PROC          LCD_CLEAR_FM_ICO
  C:3199H         LINE#         70
  C:3199H         LINE#         71
  C:319CH         LINE#         72
  C:319FH         LINE#         73
  -------         ENDPROC       LCD_CLEAR_FM_ICO
  -------         PROC          LCD_SHOW_FM_ICO
  C:31A0H         LINE#         74
  C:31A0H         LINE#         75
  C:31A3H         LINE#         76
  C:31A6H         LINE#         77
  -------         ENDPROC       LCD_SHOW_FM_ICO
  -------         PROC          LCD_CLEAR_BLUETOOTH_ICO
  C:31A7H         LINE#         78
  C:31A7H         LINE#         79
  C:31AAH         LINE#         80
  C:31ADH         LINE#         81
  -------         ENDPROC       LCD_CLEAR_BLUETOOTH_ICO
  -------         PROC          LCD_SHOW_BLUETOOTH_ICO
  C:31AEH         LINE#         82
  C:31AEH         LINE#         83
  C:31B1H         LINE#         84
  C:31B4H         LINE#         85
  -------         ENDPROC       LCD_SHOW_BLUETOOTH_ICO
  -------         PROC          LCD_CLEAR_AUX_ICO
  C:31B5H         LINE#         86
  C:31B5H         LINE#         87
  C:31B8H         LINE#         88
  C:31BBH         LINE#         89
  -------         ENDPROC       LCD_CLEAR_AUX_ICO
  -------         PROC          LCD_SHOW_AUX_ICO
  C:31BCH         LINE#         90
  C:31BCH         LINE#         91
  C:31BFH         LINE#         92
  C:31C2H         LINE#         93
  -------         ENDPROC       LCD_SHOW_AUX_ICO
  -------         PROC          LCD_CLEAR_USB_ICO
  C:31C3H         LINE#         94
  C:31C3H         LINE#         95
  C:31C6H         LINE#         96
  C:31C9H         LINE#         97
  -------         ENDPROC       LCD_CLEAR_USB_ICO
  -------         PROC          LCD_SHOW_USB_ICO
  C:31CAH         LINE#         98
  C:31CAH         LINE#         99
BL51 BANKED LINKER/LOCATER V6.22                                                      09/03/2017  16:51:00  PAGE 34


  C:31CDH         LINE#         100
  C:31D0H         LINE#         101
  -------         ENDPROC       LCD_SHOW_USB_ICO
  -------         PROC          LCD_CLEAR_MHZ_ICO
  C:31D1H         LINE#         102
  C:31D1H         LINE#         103
  C:31D4H         LINE#         104
  C:31D7H         LINE#         105
  -------         ENDPROC       LCD_CLEAR_MHZ_ICO
  -------         PROC          LCD_SHOW_MHZ_ICO
  C:31D8H         LINE#         106
  C:31D8H         LINE#         107
  C:31DBH         LINE#         108
  C:31DEH         LINE#         109
  -------         ENDPROC       LCD_SHOW_MHZ_ICO
  -------         PROC          LCD_CLEAR_BAZOOKA_ICO
  C:31DFH         LINE#         110
  C:31DFH         LINE#         111
  C:31E2H         LINE#         112
  C:31E5H         LINE#         113
  -------         ENDPROC       LCD_CLEAR_BAZOOKA_ICO
  -------         PROC          LCD_SHOW_BAZOOKA_ICO
  C:31E6H         LINE#         114
  C:31E6H         LINE#         115
  C:31E9H         LINE#         116
  C:31ECH         LINE#         117
  -------         ENDPROC       LCD_SHOW_BAZOOKA_ICO
  -------         PROC          LCD_CLEAR_UPCOLON_ICO
  C:31EDH         LINE#         123
  C:31EDH         LINE#         124
  C:31F0H         LINE#         125
  C:31F3H         LINE#         126
  -------         ENDPROC       LCD_CLEAR_UPCOLON_ICO
  -------         PROC          LCD_SHOW_UPCOLON_ICO
  C:31F4H         LINE#         127
  C:31F4H         LINE#         128
  C:31F7H         LINE#         129
  C:31FAH         LINE#         130
  -------         ENDPROC       LCD_SHOW_UPCOLON_ICO
  -------         PROC          LCD_CLEAR_DOWNCOLON_ICO
  C:31FBH         LINE#         131
  C:31FBH         LINE#         132
  C:31FEH         LINE#         133
  C:3201H         LINE#         134
  -------         ENDPROC       LCD_CLEAR_DOWNCOLON_ICO
  -------         PROC          LCD_SHOW_DOWNCOLON_ICO
  C:3202H         LINE#         135
  C:3202H         LINE#         136
  C:3205H         LINE#         137
  C:3208H         LINE#         138
  -------         ENDPROC       LCD_SHOW_DOWNCOLON_ICO
  -------         PROC          LCD_CLEAR_COLON_ICO
  C:322EH         LINE#         139
  C:322EH         LINE#         140
  C:3231H         LINE#         141
  -------         ENDPROC       LCD_CLEAR_COLON_ICO
  -------         PROC          LCD_SHOW_COLON_ICO
BL51 BANKED LINKER/LOCATER V6.22                                                      09/03/2017  16:51:00  PAGE 35


  C:3234H         LINE#         143
  C:3234H         LINE#         144
  C:3237H         LINE#         145
  -------         ENDPROC       LCD_SHOW_COLON_ICO
  -------         PROC          _LCD_CLEAR_MI
  D:0007H         SYMBOL        n
  C:1DEEH         LINE#         147
  C:1DEEH         LINE#         148
  C:1E16H         LINE#         149
  C:1E16H         LINE#         150
  C:1E19H         LINE#         151
  C:1E1CH         LINE#         153
  C:1E1FH         LINE#         154
  C:1E22H         LINE#         156
  C:1E25H         LINE#         157
  C:1E28H         LINE#         159
  C:1E2BH         LINE#         160
  C:1E2BH         LINE#         161
  C:1E2EH         LINE#         162
  C:1E2EH         LINE#         163
  C:1E31H         LINE#         164
  C:1E34H         LINE#         166
  C:1E37H         LINE#         167
  C:1E3AH         LINE#         169
  C:1E3DH         LINE#         170
  C:1E40H         LINE#         172
  C:1E43H         LINE#         173
  C:1E43H         LINE#         174
  C:1E46H         LINE#         175
  C:1E46H         LINE#         176
  C:1E49H         LINE#         177
  C:1E4CH         LINE#         179
  C:1E4FH         LINE#         180
  C:1E52H         LINE#         182
  C:1E55H         LINE#         183
  C:1E58H         LINE#         185
  C:1E5BH         LINE#         186
  C:1E5BH         LINE#         187
  C:1E5DH         LINE#         188
  C:1E5DH         LINE#         189
  C:1E60H         LINE#         190
  C:1E63H         LINE#         192
  C:1E66H         LINE#         193
  C:1E69H         LINE#         195
  C:1E6CH         LINE#         196
  C:1E6FH         LINE#         198
  C:1E72H         LINE#         199
  C:1E72H         LINE#         200
  C:1E74H         LINE#         201
  C:1E74H         LINE#         202
  C:1E77H         LINE#         203
  C:1E7AH         LINE#         205
  C:1E7DH         LINE#         206
  C:1E80H         LINE#         208
  C:1E83H         LINE#         209
  C:1E86H         LINE#         211
  C:1E89H         LINE#         212
BL51 BANKED LINKER/LOCATER V6.22                                                      09/03/2017  16:51:00  PAGE 36


  C:1E89H         LINE#         213
  C:1E8BH         LINE#         214
  C:1E8BH         LINE#         215
  C:1E8EH         LINE#         216
  C:1E91H         LINE#         218
  C:1E94H         LINE#         219
  C:1E97H         LINE#         221
  C:1E9AH         LINE#         222
  C:1E9DH         LINE#         224
  C:1EA0H         LINE#         225
  C:1EA0H         LINE#         226
  C:1EA2H         LINE#         227
  C:1EA2H         LINE#         228
  C:1EA5H         LINE#         229
  C:1EA8H         LINE#         231
  C:1EABH         LINE#         232
  C:1EAEH         LINE#         234
  C:1EB1H         LINE#         235
  C:1EB4H         LINE#         237
  C:1EB7H         LINE#         238
  C:1EB7H         LINE#         239
  C:1EB9H         LINE#         240
  C:1EB9H         LINE#         241
  C:1EBCH         LINE#         242
  C:1EBFH         LINE#         244
  C:1EC2H         LINE#         245
  C:1EC5H         LINE#         247
  C:1EC8H         LINE#         248
  C:1ECBH         LINE#         250
  C:1ECEH         LINE#         251
  C:1ED1H         LINE#         252
  C:1ED1H         LINE#         253
  C:1ED1H         LINE#         254
  -------         ENDPROC       _LCD_CLEAR_MI
  -------         PROC          LCD_CLEAR_MI_ALL
  -------         DO            
  D:0006H         SYMBOL        i
  -------         ENDDO         
  C:30C7H         LINE#         255
  C:30C7H         LINE#         256
  C:30C9H         LINE#         257
  C:30C9H         LINE#         258
  C:30CEH         LINE#         259
  C:30D3H         LINE#         260
  -------         ENDPROC       LCD_CLEAR_MI_ALL
  -------         PROC          _LCD_SHOWCHAR
  D:0007H         SYMBOL        n
  D:0005H         SYMBOL        c
  C:005EH         LINE#         261
  C:005EH         LINE#         262
  C:0067H         LINE#         264
  C:0067H         LINE#         266
  C:0070H         LINE#         267
  C:0072H         LINE#         268
  C:0078H         LINE#         269
  C:007AH         LINE#         270
  C:0080H         LINE#         271
BL51 BANKED LINKER/LOCATER V6.22                                                      09/03/2017  16:51:00  PAGE 37


  C:0082H         LINE#         272
  C:0088H         LINE#         273
  C:008AH         LINE#         274
  C:0090H         LINE#         275
  C:0092H         LINE#         276
  C:0092H         LINE#         277
  C:0145H         LINE#         278
  C:0145H         LINE#         279
  C:0151H         LINE#         280
  C:0154H         LINE#         281
  C:0157H         LINE#         283
  C:015DH         LINE#         284
  C:0160H         LINE#         285
  C:0163H         LINE#         287
  C:0169H         LINE#         288
  C:016CH         LINE#         290
  C:016CH         LINE#         291
  C:016CH         LINE#         292
  C:016FH         LINE#         293
  C:016FH         LINE#         294
  C:017BH         LINE#         295
  C:017EH         LINE#         297
  C:0184H         LINE#         298
  C:0187H         LINE#         300
  C:018DH         LINE#         301
  C:0190H         LINE#         303
  C:0190H         LINE#         304
  C:0190H         LINE#         305
  C:0193H         LINE#         306
  C:0193H         LINE#         307
  C:019FH         LINE#         308
  C:01A2H         LINE#         309
  C:01A5H         LINE#         311
  C:01A5H         LINE#         312
  C:01A5H         LINE#         313
  C:01A5H         LINE#         315
  C:01A5H         LINE#         316
  C:01A5H         LINE#         318
  C:01A5H         LINE#         319
  C:01A5H         LINE#         320
  C:01A8H         LINE#         321
  C:01A8H         LINE#         322
  C:01B4H         LINE#         323
  C:01B7H         LINE#         324
  C:01BAH         LINE#         326
  C:01BAH         LINE#         327
  C:01BAH         LINE#         328
  C:01BAH         LINE#         330
  C:01BAH         LINE#         331
  C:01BAH         LINE#         333
  C:01BAH         LINE#         334
  C:01BAH         LINE#         335
  C:01BDH         LINE#         336
  C:01BDH         LINE#         337
  C:01C9H         LINE#         338
  C:01CCH         LINE#         339
  C:01CFH         LINE#         341
BL51 BANKED LINKER/LOCATER V6.22                                                      09/03/2017  16:51:00  PAGE 38


  C:01CFH         LINE#         342
  C:01CFH         LINE#         344
  C:01CFH         LINE#         345
  C:01CFH         LINE#         347
  C:01CFH         LINE#         348
  C:01CFH         LINE#         349
  C:01D2H         LINE#         350
  C:01D2H         LINE#         351
  C:01DEH         LINE#         352
  C:01E1H         LINE#         353
  C:01E4H         LINE#         355
  C:01E4H         LINE#         356
  C:01E4H         LINE#         357
  C:01E4H         LINE#         359
  C:01E4H         LINE#         360
  C:01E4H         LINE#         362
  C:01E4H         LINE#         363
  C:01E4H         LINE#         364
  C:01E7H         LINE#         365
  C:01E7H         LINE#         366
  C:01F3H         LINE#         367
  C:01F6H         LINE#         369
  C:01F6H         LINE#         370
  C:01F6H         LINE#         371
  C:01F6H         LINE#         373
  C:01F6H         LINE#         374
  C:01F6H         LINE#         376
  C:01F6H         LINE#         377
  C:01F6H         LINE#         378
  C:01F9H         LINE#         379
  C:01F9H         LINE#         380
  C:0205H         LINE#         381
  C:0208H         LINE#         383
  C:020EH         LINE#         384
  C:0211H         LINE#         385
  C:0214H         LINE#         387
  C:021AH         LINE#         388
  C:021DH         LINE#         390
  C:021DH         LINE#         391
  C:021DH         LINE#         392
  C:0220H         LINE#         393
  C:0220H         LINE#         394
  C:022CH         LINE#         395
  C:022FH         LINE#         397
  C:022FH         LINE#         398
  C:022FH         LINE#         399
  C:022FH         LINE#         401
  C:022FH         LINE#         402
  C:022FH         LINE#         404
  C:022FH         LINE#         405
  C:022FH         LINE#         406
  C:0232H         LINE#         407
  C:0232H         LINE#         408
  C:023EH         LINE#         409
  C:0241H         LINE#         410
  C:0244H         LINE#         412
  C:0244H         LINE#         413
BL51 BANKED LINKER/LOCATER V6.22                                                      09/03/2017  16:51:00  PAGE 39


  C:0244H         LINE#         414
  C:0244H         LINE#         416
  C:0244H         LINE#         417
  C:0244H         LINE#         419
  C:0244H         LINE#         420
  C:0244H         LINE#         421
  C:0247H         LINE#         422
  C:0247H         LINE#         423
  C:024AH         LINE#         424
  C:024AH         LINE#         425
  C:024AH         LINE#         426
  C:0256H         LINE#         427
  C:0259H         LINE#         429
  C:0259H         LINE#         430
  C:0259H         LINE#         431
  C:0259H         LINE#         433
  C:0259H         LINE#         434
  C:0259H         LINE#         436
  C:0259H         LINE#         437
  C:0259H         LINE#         438
  C:025CH         LINE#         439
  C:025CH         LINE#         440
  C:0268H         LINE#         441
  C:026BH         LINE#         443
  C:0271H         LINE#         444
  C:0274H         LINE#         445
  C:0277H         LINE#         447
  C:027DH         LINE#         448
  C:0280H         LINE#         450
  C:0280H         LINE#         451
  C:0280H         LINE#         452
  C:0283H         LINE#         453
  C:0283H         LINE#         454
  C:028FH         LINE#         455
  C:0292H         LINE#         456
  C:0295H         LINE#         458
  C:029BH         LINE#         459
  C:029EH         LINE#         460
  C:02A1H         LINE#         462
  C:02A1H         LINE#         463
  C:02A1H         LINE#         465
  C:02A1H         LINE#         466
  C:02A1H         LINE#         467
  C:02A4H         LINE#         468
  C:02A4H         LINE#         469
  C:02B0H         LINE#         470
  C:02B3H         LINE#         472
  C:02B9H         LINE#         473
  C:02BCH         LINE#         474
  C:02BFH         LINE#         476
  C:02C5H         LINE#         477
  C:02C8H         LINE#         479
  C:02C8H         LINE#         480
  C:02C8H         LINE#         481
  C:02CBH         LINE#         482
  C:02CBH         LINE#         483
  C:02D7H         LINE#         484
BL51 BANKED LINKER/LOCATER V6.22                                                      09/03/2017  16:51:00  PAGE 40


  C:02DAH         LINE#         486
  C:02E0H         LINE#         487
  C:02E3H         LINE#         488
  C:02E6H         LINE#         490
  C:02E6H         LINE#         491
  C:02E6H         LINE#         493
  C:02E6H         LINE#         494
  C:02E6H         LINE#         495
  C:02E9H         LINE#         496
  C:02E9H         LINE#         497
  C:02F5H         LINE#         498
  C:02F8H         LINE#         500
  C:02FEH         LINE#         501
  C:0301H         LINE#         502
  C:0304H         LINE#         504
  C:030AH         LINE#         505
  C:030DH         LINE#         507
  C:030DH         LINE#         508
  C:030DH         LINE#         509
  C:0310H         LINE#         510
  C:0310H         LINE#         511
  C:031CH         LINE#         512
  C:031FH         LINE#         513
  C:0322H         LINE#         515
  C:0328H         LINE#         516
  C:032BH         LINE#         517
  C:032EH         LINE#         519
  C:032EH         LINE#         520
  C:032EH         LINE#         522
  C:032EH         LINE#         523
  C:032EH         LINE#         524
  C:0331H         LINE#         525
  C:0331H         LINE#         526
  C:033DH         LINE#         527
  C:0340H         LINE#         529
  C:0346H         LINE#         530
  C:0349H         LINE#         532
  C:034FH         LINE#         533
  C:0352H         LINE#         535
  C:0352H         LINE#         536
  C:0352H         LINE#         537
  C:0355H         LINE#         538
  C:0355H         LINE#         539
  C:0361H         LINE#         540
  C:0364H         LINE#         542
  C:036AH         LINE#         543
  C:036DH         LINE#         544
  C:0370H         LINE#         546
  C:0376H         LINE#         547
  C:0379H         LINE#         549
  C:0379H         LINE#         550
  C:0379H         LINE#         551
  C:037CH         LINE#         552
  C:037CH         LINE#         553
  C:0388H         LINE#         554
  C:038BH         LINE#         555
  C:038EH         LINE#         557
BL51 BANKED LINKER/LOCATER V6.22                                                      09/03/2017  16:51:00  PAGE 41


  C:0394H         LINE#         558
  C:0397H         LINE#         560
  C:039DH         LINE#         561
  C:03A0H         LINE#         563
  C:03A0H         LINE#         564
  C:03A0H         LINE#         565
  C:03A3H         LINE#         566
  C:03A3H         LINE#         567
  C:03AFH         LINE#         568
  C:03B2H         LINE#         570
  C:03B8H         LINE#         571
  C:03BBH         LINE#         573
  C:03C1H         LINE#         574
  C:03C4H         LINE#         576
  C:03C4H         LINE#         577
  C:03C4H         LINE#         578
  C:03C7H         LINE#         579
  C:03C7H         LINE#         580
  C:03D3H         LINE#         581
  C:03D6H         LINE#         582
  C:03D9H         LINE#         584
  C:03DFH         LINE#         585
  C:03E2H         LINE#         587
  C:03E8H         LINE#         588
  C:03EBH         LINE#         590
  C:03EBH         LINE#         591
  C:03EBH         LINE#         592
  C:03EEH         LINE#         593
  C:03EEH         LINE#         594
  C:03FAH         LINE#         595
  C:03FDH         LINE#         596
  C:0400H         LINE#         598
  C:0406H         LINE#         599
  C:0409H         LINE#         600
  C:040CH         LINE#         602
  C:0412H         LINE#         603
  C:0415H         LINE#         605
  C:0415H         LINE#         606
  C:0415H         LINE#         607
  C:0418H         LINE#         608
  C:0418H         LINE#         609
  C:0424H         LINE#         610
  C:0427H         LINE#         611
  C:042AH         LINE#         613
  C:0430H         LINE#         614
  C:0433H         LINE#         615
  C:0436H         LINE#         617
  C:043CH         LINE#         618
  C:043FH         LINE#         620
  C:043FH         LINE#         621
  C:043FH         LINE#         622
  C:0442H         LINE#         623
  C:0442H         LINE#         624
  C:044EH         LINE#         625
  C:0451H         LINE#         626
  C:0454H         LINE#         628
  C:045AH         LINE#         629
BL51 BANKED LINKER/LOCATER V6.22                                                      09/03/2017  16:51:00  PAGE 42


  C:045DH         LINE#         630
  C:0460H         LINE#         632
  C:0466H         LINE#         633
  C:0469H         LINE#         635
  C:0469H         LINE#         636
  C:0469H         LINE#         637
  C:046CH         LINE#         638
  C:046CH         LINE#         639
  C:0478H         LINE#         640
  C:047BH         LINE#         642
  C:0481H         LINE#         643
  C:0484H         LINE#         644
  C:0487H         LINE#         646
  C:048DH         LINE#         647
  C:0490H         LINE#         649
  C:0490H         LINE#         650
  C:0490H         LINE#         651
  C:0493H         LINE#         652
  C:0493H         LINE#         653
  C:049FH         LINE#         654
  C:04A2H         LINE#         655
  C:04A5H         LINE#         657
  C:04ABH         LINE#         658
  C:04AEH         LINE#         659
  C:04B1H         LINE#         661
  C:04B7H         LINE#         662
  C:04BAH         LINE#         664
  C:04BAH         LINE#         665
  C:04BAH         LINE#         666
  C:04BDH         LINE#         667
  C:04BDH         LINE#         668
  C:04C9H         LINE#         669
  C:04CCH         LINE#         671
  C:04D2H         LINE#         672
  C:04D5H         LINE#         673
  C:04D8H         LINE#         675
  C:04DEH         LINE#         676
  C:04E1H         LINE#         678
  C:04E7H         LINE#         679
  C:04EAH         LINE#         680
  C:04EBH         LINE#         681
  C:04EBH         LINE#         682
  C:04EBH         LINE#         683
  C:04EBH         LINE#         684
  C:04F7H         LINE#         685
  C:04FAH         LINE#         687
  C:0500H         LINE#         688
  C:0503H         LINE#         689
  C:0506H         LINE#         691
  C:050CH         LINE#         692
  C:050FH         LINE#         694
  C:050FH         LINE#         695
  C:050FH         LINE#         696
  C:0512H         LINE#         697
  C:0512H         LINE#         698
  C:051EH         LINE#         699
  C:0521H         LINE#         700
BL51 BANKED LINKER/LOCATER V6.22                                                      09/03/2017  16:51:00  PAGE 43


  C:0524H         LINE#         702
  C:052AH         LINE#         703
  C:052DH         LINE#         705
  C:0533H         LINE#         706
  C:0536H         LINE#         708
  C:0536H         LINE#         709
  C:0536H         LINE#         710
  C:0539H         LINE#         711
  C:0539H         LINE#         712
  C:0545H         LINE#         713
  C:0548H         LINE#         715
  C:054EH         LINE#         716
  C:0551H         LINE#         717
  C:0554H         LINE#         719
  C:055AH         LINE#         720
  C:055DH         LINE#         722
  C:0563H         LINE#         723
  C:0566H         LINE#         724
  C:0567H         LINE#         725
  C:0567H         LINE#         726
  C:0573H         LINE#         727
  C:0576H         LINE#         728
  C:0579H         LINE#         730
  C:057FH         LINE#         731
  C:0582H         LINE#         733
  C:0588H         LINE#         734
  C:058BH         LINE#         736
  C:058BH         LINE#         737
  C:058BH         LINE#         738
  C:058EH         LINE#         739
  C:058EH         LINE#         740
  C:059AH         LINE#         741
  C:059DH         LINE#         743
  C:05A3H         LINE#         744
  C:05A6H         LINE#         745
  C:05A9H         LINE#         747
  C:05A9H         LINE#         748
  C:05A9H         LINE#         750
  C:05A9H         LINE#         751
  C:05A9H         LINE#         752
  C:05ACH         LINE#         753
  C:05ACH         LINE#         754
  C:05B8H         LINE#         755
  C:05BBH         LINE#         756
  C:05BEH         LINE#         758
  C:05C4H         LINE#         759
  C:05C7H         LINE#         761
  C:05CDH         LINE#         762
  C:05D0H         LINE#         764
  C:05D0H         LINE#         765
  C:05D0H         LINE#         766
  C:05D3H         LINE#         767
  C:05D3H         LINE#         768
  C:05DFH         LINE#         769
  C:05E2H         LINE#         770
  C:05E5H         LINE#         772
  C:05EBH         LINE#         773
BL51 BANKED LINKER/LOCATER V6.22                                                      09/03/2017  16:51:00  PAGE 44


  C:05EEH         LINE#         774
  C:05F1H         LINE#         776
  C:05F7H         LINE#         777
  C:05FAH         LINE#         779
  C:05FAH         LINE#         780
  C:05FAH         LINE#         781
  C:05FDH         LINE#         782
  C:05FDH         LINE#         783
  C:0609H         LINE#         784
  C:060CH         LINE#         785
  C:060FH         LINE#         787
  C:0615H         LINE#         788
  C:0618H         LINE#         789
  C:061BH         LINE#         791
  C:0621H         LINE#         792
  C:0624H         LINE#         794
  C:0624H         LINE#         795
  C:0624H         LINE#         796
  C:0627H         LINE#         797
  C:0627H         LINE#         798
  C:0633H         LINE#         799
  C:0636H         LINE#         801
  C:063CH         LINE#         802
  C:063FH         LINE#         804
  C:0645H         LINE#         805
  C:0648H         LINE#         807
  C:0648H         LINE#         808
  C:0648H         LINE#         809
  C:064BH         LINE#         810
  C:064BH         LINE#         811
  C:0657H         LINE#         812
  C:065AH         LINE#         813
  C:065DH         LINE#         815
  C:0663H         LINE#         816
  C:0666H         LINE#         818
  C:066CH         LINE#         819
  C:066FH         LINE#         821
  C:066FH         LINE#         822
  C:066FH         LINE#         823
  C:0672H         LINE#         824
  C:0672H         LINE#         825
  C:067EH         LINE#         826
  C:0681H         LINE#         827
  C:0684H         LINE#         829
  C:068AH         LINE#         830
  C:068DH         LINE#         832
  C:0693H         LINE#         833
  C:0696H         LINE#         835
  C:0696H         LINE#         836
  C:0696H         LINE#         837
  C:0699H         LINE#         838
  C:0699H         LINE#         839
  C:06A5H         LINE#         840
  C:06A8H         LINE#         842
  C:06AEH         LINE#         843
  C:06B1H         LINE#         844
  C:06B4H         LINE#         846
BL51 BANKED LINKER/LOCATER V6.22                                                      09/03/2017  16:51:00  PAGE 45


  C:06BAH         LINE#         847
  C:06BDH         LINE#         849
  C:06C3H         LINE#         850
  C:06C6H         LINE#         851
  C:06C7H         LINE#         852
  C:06C7H         LINE#         853
  C:06D3H         LINE#         854
  C:06D6H         LINE#         856
  C:06DCH         LINE#         857
  C:06DFH         LINE#         858
  C:06E2H         LINE#         860
  C:06E8H         LINE#         861
  C:06EBH         LINE#         863
  C:06EBH         LINE#         864
  C:06EBH         LINE#         865
  C:06EEH         LINE#         866
  C:06EEH         LINE#         867
  C:06EEH         LINE#         868
  C:06EEH         LINE#         869
  C:06FAH         LINE#         870
  C:06FDH         LINE#         872
  C:0703H         LINE#         873
  C:0706H         LINE#         875
  C:070CH         LINE#         876
  C:070FH         LINE#         878
  C:070FH         LINE#         879
  C:070FH         LINE#         880
  C:0712H         LINE#         881
  C:0712H         LINE#         882
  C:071EH         LINE#         883
  C:0721H         LINE#         885
  C:0727H         LINE#         886
  C:072AH         LINE#         888
  C:0730H         LINE#         889
  C:0733H         LINE#         891
  C:0733H         LINE#         892
  C:0733H         LINE#         893
  C:0736H         LINE#         894
  C:0736H         LINE#         895
  C:0742H         LINE#         896
  C:0745H         LINE#         898
  C:074BH         LINE#         899
  C:074EH         LINE#         901
  C:0754H         LINE#         902
  C:0757H         LINE#         904
  C:075DH         LINE#         905
  C:0760H         LINE#         906
  C:0761H         LINE#         907
  C:0761H         LINE#         908
  C:076DH         LINE#         909
  C:0770H         LINE#         911
  C:0776H         LINE#         912
  C:0779H         LINE#         914
  C:077FH         LINE#         915
  C:0782H         LINE#         917
  C:0788H         LINE#         918
  C:078BH         LINE#         919
BL51 BANKED LINKER/LOCATER V6.22                                                      09/03/2017  16:51:00  PAGE 46


  C:078CH         LINE#         920
  C:078CH         LINE#         921
  C:078CH         LINE#         922
  C:078CH         LINE#         923
  C:0798H         LINE#         924
  C:079BH         LINE#         925
  C:079EH         LINE#         927
  C:07A4H         LINE#         928
  C:07A7H         LINE#         930
  C:07ADH         LINE#         931
  C:07B0H         LINE#         933
  C:07B0H         LINE#         934
  C:07B0H         LINE#         935
  C:07B2H         LINE#         936
  C:07B2H         LINE#         937
  C:07BEH         LINE#         938
  C:07C1H         LINE#         939
  C:07C4H         LINE#         941
  C:07CAH         LINE#         942
  C:07CDH         LINE#         944
  C:07D3H         LINE#         945
  C:07D6H         LINE#         947
  C:07D6H         LINE#         948
  C:07D6H         LINE#         949
  C:07D8H         LINE#         950
  C:07D8H         LINE#         951
  C:07E4H         LINE#         952
  C:07E7H         LINE#         953
  C:07EAH         LINE#         955
  C:07F0H         LINE#         956
  C:07F3H         LINE#         958
  C:07F9H         LINE#         959
  C:07FCH         LINE#         961
  C:0802H         LINE#         962
  C:0805H         LINE#         963
  C:0806H         LINE#         964
  C:0806H         LINE#         965
  C:0806H         LINE#         966
  C:0806H         LINE#         967
  C:0812H         LINE#         968
  C:0815H         LINE#         969
  C:0818H         LINE#         971
  C:081EH         LINE#         972
  C:0821H         LINE#         973
  C:0824H         LINE#         975
  C:082AH         LINE#         976
  C:082DH         LINE#         978
  C:0833H         LINE#         979
  C:0836H         LINE#         980
  C:0837H         LINE#         981
  C:0837H         LINE#         982
  C:0843H         LINE#         983
  C:0846H         LINE#         985
  C:084CH         LINE#         986
  C:084FH         LINE#         988
  C:0855H         LINE#         989
  C:0858H         LINE#         991
BL51 BANKED LINKER/LOCATER V6.22                                                      09/03/2017  16:51:00  PAGE 47


  C:0858H         LINE#         992
  C:0858H         LINE#         993
  C:085AH         LINE#         994
  C:085AH         LINE#         995
  C:085AH         LINE#         996
  C:085AH         LINE#         997
  C:0866H         LINE#         998
  C:0869H         LINE#         1000
  C:086FH         LINE#         1001
  C:0872H         LINE#         1003
  C:0878H         LINE#         1004
  C:087BH         LINE#         1006
  C:0881H         LINE#         1007
  C:0884H         LINE#         1008
  C:0885H         LINE#         1009
  C:0885H         LINE#         1010
  C:0891H         LINE#         1011
  C:0894H         LINE#         1012
  C:0897H         LINE#         1014
  C:089DH         LINE#         1015
  C:08A0H         LINE#         1017
  C:08A6H         LINE#         1018
  C:08A9H         LINE#         1020
  C:08A9H         LINE#         1021
  C:08A9H         LINE#         1022
  C:08ABH         LINE#         1023
  C:08ABH         LINE#         1024
  C:08B7H         LINE#         1025
  C:08BAH         LINE#         1027
  C:08C0H         LINE#         1028
  C:08C3H         LINE#         1030
  C:08C9H         LINE#         1031
  C:08CCH         LINE#         1033
  C:08D2H         LINE#         1034
  C:08D5H         LINE#         1035
  C:08D6H         LINE#         1036
  C:08D6H         LINE#         1037
  C:08E2H         LINE#         1038
  C:08E5H         LINE#         1039
  C:08E8H         LINE#         1041
  C:08EEH         LINE#         1042
  C:08F1H         LINE#         1044
  C:08F7H         LINE#         1045
  C:08FAH         LINE#         1047
  C:0900H         LINE#         1048
  C:0903H         LINE#         1049
  C:0904H         LINE#         1050
  C:0904H         LINE#         1051
  C:0904H         LINE#         1052
  C:0904H         LINE#         1053
  C:0910H         LINE#         1054
  C:0913H         LINE#         1056
  C:0919H         LINE#         1057
  C:091CH         LINE#         1058
  C:091FH         LINE#         1060
  C:0925H         LINE#         1061
  C:0928H         LINE#         1063
BL51 BANKED LINKER/LOCATER V6.22                                                      09/03/2017  16:51:00  PAGE 48


  C:0928H         LINE#         1064
  C:0928H         LINE#         1065
  C:092AH         LINE#         1066
  C:092AH         LINE#         1067
  C:0936H         LINE#         1068
  C:0939H         LINE#         1070
  C:093FH         LINE#         1071
  C:0942H         LINE#         1072
  C:0945H         LINE#         1074
  C:094BH         LINE#         1075
  C:094EH         LINE#         1077
  C:0954H         LINE#         1078
  C:0957H         LINE#         1079
  C:0957H         LINE#         1081
  C:0957H         LINE#         1082
  -------         ENDPROC       _LCD_SHOWCHAR
  -------         PROC          _LCD_SHOWSTRING
  X:0018H         SYMBOL        s
  -------         DO            
  X:001BH         SYMBOL        i
  D:0007H         SYMBOL        len
  B:0020H.0       SYMBOL        b
  -------         ENDDO         
  C:2112H         LINE#         1084
  C:211DH         LINE#         1085
  C:2120H         LINE#         1086
  C:2121H         LINE#         1087
  C:2123H         LINE#         1089
  C:212AH         LINE#         1091
  C:212AH         LINE#         1092
  C:2138H         LINE#         1093
  C:213EH         LINE#         1094
  C:2143H         LINE#         1095
  C:215FH         LINE#         1096
  C:216CH         LINE#         1097
  C:216CH         LINE#         1098
  C:217BH         LINE#         1099
  C:217EH         LINE#         1100
  C:2194H         LINE#         1101
  C:2194H         LINE#         1102
  C:2196H         LINE#         1103
  C:2198H         LINE#         1104
  C:219FH         LINE#         1105
  C:219FH         LINE#         1106
  C:21A1H         LINE#         1107
  C:21ABH         LINE#         1108
  C:21ABH         LINE#         1109
  C:21B3H         LINE#         1110
  C:21B3H         LINE#         1112
  -------         ENDPROC       _LCD_SHOWSTRING
  -------         ENDMOD        BSP_DISPLAY

  -------         MODULE        BSP_UART
  C:0000H         SYMBOL        _ICE_DUMMY_
  D:0080H         PUBLIC        P0
  D:0090H         PUBLIC        P1
  D:00A0H         PUBLIC        P2
BL51 BANKED LINKER/LOCATER V6.22                                                      09/03/2017  16:51:00  PAGE 49


  D:00B0H         PUBLIC        P3
  D:00DCH         PUBLIC        P5M1
  D:00DDH         PUBLIC        P5M2
  D:00D8H         PUBLIC        P5
  D:00A8H         PUBLIC        IE
  C:2FE4H         PUBLIC        Uart_InitHard
  D:00B8H         PUBLIC        IP
  B:00F8H.0       PUBLIC        RI_1
  D:0098H         PUBLIC        SCON
  D:0088H         PUBLIC        TCON
  D:009AH         PUBLIC        SBUF_1
  C:2F4FH         PUBLIC        _Get_Data_From_UART1
  D:00F8H         PUBLIC        SCON_1
  D:00E8H         PUBLIC        ADCCON0
  D:00C0H         PUBLIC        I2CON
  D:00C8H         PUBLIC        T2CON
  B:0021H.3       PUBLIC        riflag
  D:00D0H         PUBLIC        PSW
  -------         PROC          UART_INITHARD
  C:2FE4H         LINE#         12
  C:2FE4H         LINE#         14
  C:2FE7H         LINE#         15
  C:2FEAH         LINE#         17
  -------         ENDPROC       UART_INITHARD
  -------         PROC          _GET_DATA_FROM_UART1
  D:0001H         SYMBOL        c
  -------         DO            
  B:0021H.2       SYMBOL        b
  -------         ENDDO         
  C:2F4FH         LINE#         22
  C:2F4FH         LINE#         25
  C:2F52H         LINE#         26
  C:2F57H         LINE#         27
  C:2F59H         LINE#         28
  C:2F5BH         LINE#         29
  C:2F5DH         LINE#         30
  C:2F5FH         LINE#         31
  C:2F5FH         LINE#         32
  C:2F61H         LINE#         33
  -------         ENDPROC       _GET_DATA_FROM_UART1
  -------         ENDMOD        BSP_UART

  -------         MODULE        BSP_TIMER0
  C:0000H         SYMBOL        _ICE_DUMMY_
  D:0080H         PUBLIC        P0
  D:0090H         PUBLIC        P1
  D:00A0H         PUBLIC        P2
  D:00B0H         PUBLIC        P3
  C:2478H         PUBLIC        Timer0_ISR
  D:00D8H         PUBLIC        P5
  D:00A8H         PUBLIC        IE
  D:00B8H         PUBLIC        IP
  X:0096H         PUBLIC        Task_time
  C:2D2DH         PUBLIC        Timer0_InitHard
  X:009FH         SYMBOL        u8TH0_tmp
  X:00A0H         SYMBOL        u8TL0_tmp
  D:0098H         PUBLIC        SCON
BL51 BANKED LINKER/LOCATER V6.22                                                      09/03/2017  16:51:00  PAGE 50


  D:0089H         PUBLIC        TMOD
  D:0088H         PUBLIC        TCON
  C:2C74H         SYMBOL        timer0_ParamInit
  D:00F8H         PUBLIC        SCON_1
  B:00A8H.1       PUBLIC        ET0
  D:008CH         PUBLIC        TH0
  D:008AH         PUBLIC        TL0
  B:0088H.4       PUBLIC        TR0
  D:00E8H         PUBLIC        ADCCON0
  D:00C0H         PUBLIC        I2CON
  D:00C8H         PUBLIC        T2CON
  D:00D0H         PUBLIC        PSW
  -------         PROC          TIMER0_INITHARD
  C:2D2DH         LINE#         18
  C:2D2DH         LINE#         20
  C:2D30H         LINE#         22
  C:2D33H         LINE#         23
  C:2D36H         LINE#         24
  C:2D39H         LINE#         25
  C:2D3CH         LINE#         27
  C:2D42H         LINE#         28
  C:2D46H         LINE#         30
  C:2D49H         LINE#         31
  C:2D4BH         LINE#         33
  C:2D4DH         LINE#         34
  C:2D4FH         LINE#         36
  -------         ENDPROC       TIMER0_INITHARD
  -------         PROC          TIMER0_PARAMINIT
  C:2C74H         LINE#         38
  C:2C74H         LINE#         39
  C:2C7AH         LINE#         40
  C:2C7FH         LINE#         41
  C:2C83H         LINE#         42
  C:2C89H         LINE#         44
  C:2C8DH         LINE#         45
  C:2C91H         LINE#         46
  C:2C95H         LINE#         47
  C:2C99H         LINE#         49
  -------         ENDPROC       TIMER0_PARAMINIT
  -------         PROC          TIMER0_ISR
  C:2478H         LINE#         51
  C:2489H         LINE#         52
  C:2489H         LINE#         54
  C:248FH         LINE#         55
  C:2493H         LINE#         57
  C:249EH         LINE#         58
  C:24A0H         LINE#         59
  C:24A3H         LINE#         61
  C:24A3H         LINE#         63
  C:24AEH         LINE#         64
  C:24B0H         LINE#         65
  C:24B3H         LINE#         67
  C:24B3H         LINE#         68
  C:24BEH         LINE#         69
  C:24C0H         LINE#         70
  C:24C3H         LINE#         71
  C:24C3H         LINE#         72
BL51 BANKED LINKER/LOCATER V6.22                                                      09/03/2017  16:51:00  PAGE 51


  C:24D8H         LINE#         73
  C:24DFH         LINE#         74
  C:24E2H         LINE#         76
  C:24E2H         LINE#         78
  -------         ENDPROC       TIMER0_ISR
  -------         ENDMOD        BSP_TIMER0

  -------         MODULE        BSP_TIMER1
  C:0000H         SYMBOL        _ICE_DUMMY_
  D:0080H         PUBLIC        P0
  D:0090H         PUBLIC        P1
  D:00A0H         PUBLIC        P2
  D:00B0H         PUBLIC        P3
  C:325DH         PUBLIC        Timer1_ISR
  D:00D8H         PUBLIC        P5
  D:00A8H         PUBLIC        IE
  D:00B8H         PUBLIC        IP
  C:2F62H         PUBLIC        Timer1_InitHard
  D:0098H         PUBLIC        SCON
  D:0089H         PUBLIC        TMOD
  D:0088H         PUBLIC        TCON
  D:00F8H         PUBLIC        SCON_1
  D:008DH         PUBLIC        TH1
  D:008BH         PUBLIC        TL1
  D:00E8H         PUBLIC        ADCCON0
  D:00C0H         PUBLIC        I2CON
  D:00C8H         PUBLIC        T2CON
  D:00D0H         PUBLIC        PSW
  -------         PROC          TIMER1_INITHARD
  C:2F62H         LINE#         10
  C:2F62H         LINE#         11
  C:2F65H         LINE#         12
  C:2F68H         LINE#         13
  C:2F6BH         LINE#         14
  C:2F6EH         LINE#         16
  C:2F71H         LINE#         17
  C:2F74H         LINE#         23
  -------         ENDPROC       TIMER1_INITHARD
  -------         PROC          TIMER1_ISR
  C:325DH         LINE#         27
  C:325DH         LINE#         28
  C:325DH         LINE#         32
  -------         ENDPROC       TIMER1_ISR
  -------         ENDMOD        BSP_TIMER1

  -------         MODULE        BSP_ADC
  C:0000H         SYMBOL        _ICE_DUMMY_
  D:00B1H         PUBLIC        P0M1
  D:00B2H         PUBLIC        P0M2
  D:0080H         PUBLIC        P0
  D:0090H         PUBLIC        P1
  D:00A0H         PUBLIC        P2
  D:00B0H         PUBLIC        P3
  D:00D8H         PUBLIC        P5
  B:00A8H.6       PUBLIC        EADC
  D:00A8H         PUBLIC        IE
  B:00E8H.0       PUBLIC        ADCHS0
BL51 BANKED LINKER/LOCATER V6.22                                                      09/03/2017  16:51:00  PAGE 52


  B:00E8H.1       PUBLIC        ADCHS1
  B:00E8H.2       PUBLIC        ADCHS2
  B:00E8H.3       PUBLIC        ADCHS3
  D:00B8H         PUBLIC        IP
  B:00E8H.6       PUBLIC        ADCS
  D:00F6H         PUBLIC        P0DIDS
  D:0098H         PUBLIC        SCON
  D:0088H         PUBLIC        TCON
  C:2D94H         PUBLIC        ADC_Start
  C:2B41H         PUBLIC        ADC_Init
  D:00F8H         PUBLIC        SCON_1
  D:00E8H         PUBLIC        ADCCON0
  D:00E1H         PUBLIC        ADCCON1
  D:00C0H         PUBLIC        I2CON
  D:00C8H         PUBLIC        T2CON
  I:00C3H         PUBLIC        g_tADC_Result
  D:00D0H         PUBLIC        PSW
  -------         PROC          ADC_INIT
  C:2B41H         LINE#         12
  C:2B41H         LINE#         13
  C:2B45H         LINE#         14
  C:2B4BH         LINE#         15
  C:2B51H         LINE#         24
  C:2B54H         LINE#         26
  C:2B56H         LINE#         34
  C:2B59H         LINE#         35
  C:2B5CH         LINE#         37
  C:2B5FH         LINE#         38
  C:2B62H         LINE#         42
  C:2B65H         LINE#         43
  C:2B68H         LINE#         45
  C:2B6BH         LINE#         46
  C:2B6EH         LINE#         47
  C:2B71H         LINE#         49
  C:2B73H         LINE#         51
  -------         ENDPROC       ADC_INIT
  -------         PROC          ADC_START
  C:2D94H         LINE#         53
  C:2D94H         LINE#         54
  C:2D99H         LINE#         55
  C:2D9BH         LINE#         56
  C:2D9DH         LINE#         57
  C:2D9FH         LINE#         58
  C:2DA1H         LINE#         59
  C:2DA3H         LINE#         60
  C:2DA5H         LINE#         61
  C:2DA6H         LINE#         62
  C:2DAAH         LINE#         63
  C:2DACH         LINE#         64
  C:2DAEH         LINE#         65
  C:2DB0H         LINE#         66
  C:2DB2H         LINE#         67
  C:2DB4H         LINE#         68
  C:2DB4H         LINE#         70
  -------         ENDPROC       ADC_START
  -------         ENDMOD        BSP_ADC

BL51 BANKED LINKER/LOCATER V6.22                                                      09/03/2017  16:51:00  PAGE 53


  -------         MODULE        BSP_KEYBRIGHT
  C:0000H         SYMBOL        _ICE_DUMMY_
  D:00B1H         PUBLIC        P0M1
  D:00B2H         PUBLIC        P0M2
  D:0080H         PUBLIC        P0
  D:0090H         PUBLIC        P1
  D:00A0H         PUBLIC        P2
  D:00B0H         PUBLIC        P3
  D:00D8H         PUBLIC        P5
  D:00A8H         PUBLIC        IE
  C:324DH         PUBLIC        key_bright_toggle
  D:00B8H         PUBLIC        IP
  C:3144H         PUBLIC        KEY_Bright_InitHard
  D:0098H         PUBLIC        SCON
  B:0080H.5       PUBLIC        P05
  D:0088H         PUBLIC        TCON
  D:00F8H         PUBLIC        SCON_1
  C:3247H         PUBLIC        key_bright_off
  D:00E8H         PUBLIC        ADCCON0
  D:00C0H         PUBLIC        I2CON
  D:00C8H         PUBLIC        T2CON
  C:324AH         PUBLIC        key_bright_on
  D:00D0H         PUBLIC        PSW
  -------         PROC          KEY_BRIGHT_INITHARD
  C:3144H         LINE#         10
  C:3144H         LINE#         12
  C:3147H         LINE#         13
  C:314AH         LINE#         15
  -------         ENDPROC       KEY_BRIGHT_INITHARD
  -------         PROC          KEY_BRIGHT_OFF
  C:3247H         LINE#         18
  C:3247H         LINE#         19
  C:3249H         LINE#         20
  -------         ENDPROC       KEY_BRIGHT_OFF
  -------         PROC          KEY_BRIGHT_ON
  C:324AH         LINE#         21
  C:324AH         LINE#         22
  C:324CH         LINE#         23
  -------         ENDPROC       KEY_BRIGHT_ON
  -------         PROC          KEY_BRIGHT_TOGGLE
  C:324DH         LINE#         24
  C:324DH         LINE#         25
  C:324FH         LINE#         26
  -------         ENDPROC       KEY_BRIGHT_TOGGLE
  -------         ENDMOD        BSP_KEYBRIGHT

  -------         MODULE        BSP_LCDBRIGHT
  C:0000H         SYMBOL        _ICE_DUMMY_
  D:00B1H         PUBLIC        P0M1
  D:00B2H         PUBLIC        P0M2
  D:0080H         PUBLIC        P0
  D:0090H         PUBLIC        P1
  D:00A0H         PUBLIC        P2
  D:00B0H         PUBLIC        P3
  D:00D8H         PUBLIC        P5
  D:00A8H         PUBLIC        IE
  C:314DH         PUBLIC        LCD_Bright_InitHard
BL51 BANKED LINKER/LOCATER V6.22                                                      09/03/2017  16:51:00  PAGE 54


  D:00B8H         PUBLIC        IP
  D:0098H         PUBLIC        SCON
  D:0088H         PUBLIC        TCON
  C:3250H         PUBLIC        lcd_bright_off
  B:0080H.6       PUBLIC        P06
  D:00F8H         PUBLIC        SCON_1
  C:3253H         PUBLIC        lcd_bright_on
  D:00E8H         PUBLIC        ADCCON0
  D:00C0H         PUBLIC        I2CON
  D:00C8H         PUBLIC        T2CON
  D:00D0H         PUBLIC        PSW
  -------         PROC          LCD_BRIGHT_INITHARD
  C:314DH         LINE#         10
  C:314DH         LINE#         13
  C:3150H         LINE#         14
  C:3153H         LINE#         16
  -------         ENDPROC       LCD_BRIGHT_INITHARD
  -------         PROC          LCD_BRIGHT_OFF
  C:3250H         LINE#         20
  C:3250H         LINE#         21
  C:3252H         LINE#         22
  -------         ENDPROC       LCD_BRIGHT_OFF
  -------         PROC          LCD_BRIGHT_ON
  C:3253H         LINE#         23
  C:3253H         LINE#         24
  C:3255H         LINE#         25
  -------         ENDPROC       LCD_BRIGHT_ON
  -------         ENDMOD        BSP_LCDBRIGHT

  -------         MODULE        BSP_2D4
  C:0000H         SYMBOL        _ICE_DUMMY_
  D:00B1H         PUBLIC        P0M1
  D:00B2H         PUBLIC        P0M2
  D:0080H         PUBLIC        P0
  D:0090H         PUBLIC        P1
  D:00ACH         PUBLIC        P3M1
  D:00A0H         PUBLIC        P2
  D:00B0H         PUBLIC        P3
  D:00ADH         PUBLIC        P3M2
  C:325EH         PUBLIC        SPI_init
  D:00D8H         PUBLIC        P5
  C:30ECH         PUBLIC        RF_ClearFIFO
  D:00A8H         PUBLIC        IE
  C:1BAEH         PUBLIC        RF_Init
  C:2A8FH         PUBLIC        _RF_ReadBuf
  C:2F75H         PUBLIC        Wireless2d4_InitHard
  D:00B8H         PUBLIC        IP
  C:2EB5H         PUBLIC        ucSPI_Read
  C:2A13H         PUBLIC        _RF_WriteBuf
  C:2F8CH         PUBLIC        _RF_WriteReg
  C:2BFAH         PUBLIC        _ucRF_DumpRxData
  B:0080H.3       PUBLIC        P03
  B:0080H.4       PUBLIC        P04
  D:0098H         PUBLIC        SCON
  D:0088H         PUBLIC        TCON
  C:323AH         PUBLIC        ucRF_GetRSSI
  B:00B0H.4       PUBLIC        P34
BL51 BANKED LINKER/LOCATER V6.22                                                      09/03/2017  16:51:00  PAGE 55


  C:2A4CH         PUBLIC        _RF_TxData
  C:2D09H         SYMBOL        _?ix1000
  C:2D0EH         SYMBOL        _?ix1001
  C:2D11H         SYMBOL        _?ix1002
  C:1ED2H         PUBLIC        _RF_Carrier
  D:00F8H         PUBLIC        SCON_1
  C:2D17H         SYMBOL        _?ix1003
  X:00A8H         PUBLIC        TX_ADDRESS_DEF
  C:2D18H         SYMBOL        _?ix1004
  C:2D1BH         SYMBOL        _?ix1005
  C:2D20H         SYMBOL        _?ix1006
  C:2D23H         SYMBOL        _?ix1007
  C:2D29H         SYMBOL        _?ix1008
  C:2C9AH         PUBLIC        RF_RxMode
  C:2D2AH         SYMBOL        _?ix1009
  C:309CH         PUBLIC        RF_TxMode
  D:00E8H         PUBLIC        ADCCON0
  D:00C0H         PUBLIC        I2CON
  C:30B9H         PUBLIC        _RF_SetChannel
  D:00C8H         PUBLIC        T2CON
  C:3209H         PUBLIC        RF_ClearStatus
  C:2F9BH         PUBLIC        _ucRF_ReadReg
  C:2D50H         PUBLIC        _SPI_WR
  D:00D0H         PUBLIC        PSW
  C:2DF6H         PUBLIC        _SPI_WW
  C:310DH         PUBLIC        ucRF_GetStatus
  -------         PROC          WIRELESS2D4_INITHARD
  C:2F75H         LINE#         10
  C:2F75H         LINE#         13
  C:2F78H         LINE#         14
  C:2F7BH         LINE#         17
  C:2F7EH         LINE#         18
  C:2F81H         LINE#         21
  C:2F84H         LINE#         22
  C:2F87H         LINE#         24
  -------         ENDPROC       WIRELESS2D4_INITHARD
  -------         PROC          SPI_INIT
  C:325EH         LINE#         32
  C:325EH         LINE#         36
  -------         ENDPROC       SPI_INIT
  -------         PROC          _SPI_WW
  D:0007H         SYMBOL        R_REG
  -------         DO            
  D:0006H         SYMBOL        i
  -------         ENDDO         
  C:2DF6H         LINE#         42
  C:2DF6H         LINE#         44
  C:2DF8H         LINE#         45
  C:2DFAH         LINE#         46
  C:2DFEH         LINE#         47
  C:2E00H         LINE#         48
  C:2E02H         LINE#         49
  C:2E04H         LINE#         50
  C:2E04H         LINE#         51
  C:2E08H         LINE#         52
  C:2E0AH         LINE#         53
  C:2E0BH         LINE#         54
BL51 BANKED LINKER/LOCATER V6.22                                                      09/03/2017  16:51:00  PAGE 56


  C:2E10H         LINE#         55
  C:2E12H         LINE#         57
  -------         ENDPROC       _SPI_WW
  C:2F88H         SYMBOL        L?0058
  -------         PROC          L?0057
  -------         ENDPROC       L?0057
  C:2F88H         SYMBOL        L?0058
  -------         PROC          _RF_WRITEREG
  D:0007H         SYMBOL        reg
  D:0005H         SYMBOL        wdata
  C:2F8CH         LINE#         63
  C:2F8CH         LINE#         64
  C:2F8EH         LINE#         65
  C:2F8FH         LINE#         66
  C:2F92H         LINE#         67
  C:2F97H         LINE#         68
  C:2F98H         LINE#         69
  C:2F9AH         LINE#         70
  -------         ENDPROC       _RF_WRITEREG
  -------         PROC          L?0059
  -------         ENDPROC       L?0059
  -------         PROC          _RF_WRITEBUF
  D:0007H         SYMBOL        reg
  X:0015H         SYMBOL        pBuf
  X:0018H         SYMBOL        length
  -------         DO            
  D:0005H         SYMBOL        j
  -------         ENDDO         
  C:2A13H         LINE#         76
  C:2A1EH         LINE#         78
  C:2A20H         LINE#         79
  C:2A22H         LINE#         80
  C:2A25H         LINE#         81
  C:2A2FH         LINE#         82
  C:2A46H         LINE#         83
  C:2A49H         LINE#         84
  C:2A49H         LINE#         85
  C:2A4BH         LINE#         86
  -------         ENDPROC       _RF_WRITEBUF
  -------         PROC          _SPI_WR
  D:0007H         SYMBOL        R_REG
  -------         DO            
  D:0006H         SYMBOL        i
  -------         ENDDO         
  C:2D50H         LINE#         92
  C:2D50H         LINE#         94
  C:2D52H         LINE#         95
  C:2D54H         LINE#         96
  C:2D58H         LINE#         97
  C:2D5AH         LINE#         98
  C:2D5CH         LINE#         99
  C:2D5EH         LINE#         100
  C:2D5EH         LINE#         101
  C:2D62H         LINE#         102
  C:2D64H         LINE#         103
  C:2D65H         LINE#         104
  C:2D6AH         LINE#         105
BL51 BANKED LINKER/LOCATER V6.22                                                      09/03/2017  16:51:00  PAGE 57


  C:2D70H         LINE#         107
  C:2D72H         LINE#         109
  -------         ENDPROC       _SPI_WR
  -------         PROC          UCSPI_READ
  -------         DO            
  D:0006H         SYMBOL        i
  D:0007H         SYMBOL        dt
  -------         ENDDO         
  C:2EB5H         LINE#         115
  C:2EB5H         LINE#         117
  C:2EB7H         LINE#         118
  C:2EB8H         LINE#         119
  C:2EBAH         LINE#         120
  C:2EBEH         LINE#         121
  C:2EC0H         LINE#         122
  C:2EC3H         LINE#         123
  C:2EC6H         LINE#         124
  C:2EC6H         LINE#         125
  C:2ECBH         LINE#         126
  C:2ECDH         LINE#         127
  C:2ECDH         LINE#         128
  -------         ENDPROC       UCSPI_READ
  -------         PROC          _UCRF_READREG
  D:0007H         SYMBOL        reg
  -------         DO            
  D:0007H         SYMBOL        dt
  -------         ENDDO         
  C:2F9BH         LINE#         134
  C:2F9BH         LINE#         137
  C:2F9DH         LINE#         138
  C:2F9EH         LINE#         139
  C:2FA1H         LINE#         140
  C:2FA4H         LINE#         141
  C:2FAAH         LINE#         143
  C:2FABH         LINE#         144
  C:2FADH         LINE#         146
  C:2FADH         LINE#         147
  -------         ENDPROC       _UCRF_READREG
  -------         PROC          _RF_READBUF
  D:0007H         SYMBOL        reg
  X:0003H         SYMBOL        pBuf
  X:0006H         SYMBOL        length
  -------         DO            
  D:0005H         SYMBOL        byte_ctr
  -------         ENDDO         
  C:2A8FH         LINE#         153
  C:2A9AH         LINE#         156
  C:2A9CH         LINE#         157
  C:2A9FH         LINE#         158
  C:2AABH         LINE#         159
  C:2AC5H         LINE#         160
  C:2ACBH         LINE#         162
  C:2ACDH         LINE#         163
  -------         ENDPROC       _RF_READBUF
  -------         PROC          RF_TXMODE
  C:309CH         LINE#         169
  C:309CH         LINE#         170
BL51 BANKED LINKER/LOCATER V6.22                                                      09/03/2017  16:51:00  PAGE 58


  C:309FH         LINE#         171
  C:30A6H         LINE#         173
  C:30A7H         LINE#         174
  C:30A8H         LINE#         175
  C:30A9H         LINE#         176
  C:30AAH         LINE#         177
  -------         ENDPROC       RF_TXMODE
  -------         PROC          RF_RXMODE
  -------         DO            
  D:0006H         SYMBOL        i
  -------         ENDDO         
  C:2C9AH         LINE#         183
  C:2C9AH         LINE#         184
  C:2C9CH         LINE#         185
  C:2CA2H         LINE#         186
  C:2CA9H         LINE#         187
  C:2CB0H         LINE#         189
  C:2CB3H         LINE#         190
  C:2CB4H         LINE#         191
  C:2CBFH         LINE#         193
  -------         ENDPROC       RF_RXMODE
  -------         PROC          UCRF_GETSTATUS
  C:310DH         LINE#         199
  C:310DH         LINE#         200
  C:3116H         LINE#         201
  -------         ENDPROC       UCRF_GETSTATUS
  -------         PROC          UCRF_GETRSSI
  C:323AH         LINE#         206
  C:323AH         LINE#         207
  C:323FH         LINE#         208
  -------         ENDPROC       UCRF_GETRSSI
  -------         PROC          RF_CLEARSTATUS
  C:3209H         LINE#         213
  C:3209H         LINE#         214
  -------         ENDPROC       RF_CLEARSTATUS
  -------         PROC          RF_CLEARFIFO
  C:30ECH         LINE#         221
  C:30ECH         LINE#         222
  C:30F3H         LINE#         223
  -------         ENDPROC       RF_CLEARFIFO
  -------         PROC          _RF_SETCHANNEL
  D:0004H         SYMBOL        Channel
  C:30B9H         LINE#         230
  C:30BBH         LINE#         231
  C:30BEH         LINE#         232
  -------         ENDPROC       _RF_SETCHANNEL
  -------         PROC          _RF_TXDATA
  D:0001H         SYMBOL        ucPayload
  D:0005H         SYMBOL        length
  -------         DO            
  X:0002H         SYMBOL        i
  -------         ENDDO         
  C:2A4CH         LINE#         242
  C:2A4CH         LINE#         243
  C:2A52H         LINE#         244
  C:2A58H         LINE#         245
  C:2A62H         LINE#         246
BL51 BANKED LINKER/LOCATER V6.22                                                      09/03/2017  16:51:00  PAGE 59


  C:2A69H         LINE#         248
  C:2A70H         LINE#         249
  C:2A71H         LINE#         250
  C:2A8BH         LINE#         251
  C:2A8EH         LINE#         252
  C:2A8EH         LINE#         253
  -------         ENDPROC       _RF_TXDATA
  -------         PROC          _UCRF_DUMPRXDATA
  D:0001H         SYMBOL        ucPayload
  D:0004H         SYMBOL        length
  C:2BFAH         LINE#         267
  C:2BFCH         LINE#         268
  C:2C03H         LINE#         270
  C:2C06H         LINE#         271
  C:2C10H         LINE#         272
  C:2C13H         LINE#         273
  C:2C16H         LINE#         274
  C:2C1DH         LINE#         275
  C:2C20H         LINE#         276
  C:2C20H         LINE#         277
  C:2C22H         LINE#         278
  -------         ENDPROC       _UCRF_DUMPRXDATA
  -------         PROC          RF_INIT
  -------         DO            
  X:0002H         SYMBOL        BB_cal_data
  X:0007H         SYMBOL        RF_cal_data
  X:000AH         SYMBOL        RF_cal2_data
  X:0010H         SYMBOL        Dem_cal_data
  X:0011H         SYMBOL        Dem_cal2_data
  -------         ENDDO         
  C:1BAEH         LINE#         288
  C:1BAEH         LINE#         289
  C:1BC1H         LINE#         290
  C:1BD4H         LINE#         291
  C:1BE7H         LINE#         292
  C:1BFAH         LINE#         293
  C:1C0DH         LINE#         294
  C:1C10H         LINE#         295
  C:1C17H         LINE#         296
  C:1C1EH         LINE#         298
  C:1C1EH         LINE#         299
  C:1C25H         LINE#         300
  C:1C25H         LINE#         301
  C:1C25H         LINE#         302
  C:1C25H         LINE#         303
  C:1C28H         LINE#         304
  C:1C2DH         LINE#         305
  C:1C32H         LINE#         306
  C:1C39H         LINE#         307
  C:1C40H         LINE#         308
  C:1C47H         LINE#         309
  C:1C4EH         LINE#         310
  C:1C55H         LINE#         311
  C:1C66H         LINE#         313
  C:1C77H         LINE#         315
  C:1C7EH         LINE#         316
  C:1C8FH         LINE#         317
BL51 BANKED LINKER/LOCATER V6.22                                                      09/03/2017  16:51:00  PAGE 60


  C:1CA0H         LINE#         318
  C:1CB1H         LINE#         319
  C:1CC2H         LINE#         320
  C:1CC9H         LINE#         321
  C:1CD0H         LINE#         327
  C:1CD7H         LINE#         328
  -------         ENDPROC       RF_INIT
  -------         PROC          _RF_CARRIER
  X:0040H         SYMBOL        ucChannel_Set
  -------         DO            
  D:0007H         SYMBOL        i
  X:0041H         SYMBOL        BB_cal_data
  X:0046H         SYMBOL        RF_cal_data
  X:0049H         SYMBOL        RF_cal2_data
  X:004FH         SYMBOL        Dem_cal_data
  X:0050H         SYMBOL        Dem_cal2_data
  -------         ENDDO         
  C:1ED2H         LINE#         336
  C:1ED7H         LINE#         337
  C:1ED8H         LINE#         338
  C:1EEAH         LINE#         339
  C:1EFDH         LINE#         340
  C:1F10H         LINE#         341
  C:1F23H         LINE#         342
  C:1F36H         LINE#         344
  C:1F3DH         LINE#         345
  C:1F44H         LINE#         346
  C:1F4BH         LINE#         347
  C:1F4EH         LINE#         349
  C:1F50H         LINE#         350
  C:1F51H         LINE#         351
  C:1F52H         LINE#         352
  C:1F53H         LINE#         353
  C:1F54H         LINE#         354
  C:1F59H         LINE#         356
  C:1F63H         LINE#         357
  C:1F6AH         LINE#         358
  C:1F71H         LINE#         359
  C:1F82H         LINE#         360
  C:1F93H         LINE#         361
  C:1FA4H         LINE#         362
  -------         ENDPROC       _RF_CARRIER
  -------         ENDMOD        BSP_2D4

  -------         MODULE        COMMON
  C:0000H         SYMBOL        _ICE_DUMMY_
  D:00B1H         PUBLIC        P0M1
  D:00B3H         PUBLIC        P1M1
  D:00B2H         PUBLIC        P0M2
  D:0080H         PUBLIC        P0
  D:00B5H         PUBLIC        P2M1
  D:00B4H         PUBLIC        P1M2
  D:0090H         PUBLIC        P1
  D:00B6H         PUBLIC        P2M2
  D:00ACH         PUBLIC        P3M1
  D:00A0H         PUBLIC        P2
  D:00DAH         PUBLIC        P4M1
BL51 BANKED LINKER/LOCATER V6.22                                                      09/03/2017  16:51:00  PAGE 61


  D:00B0H         PUBLIC        P3
  D:00ADH         PUBLIC        P3M2
  D:00DCH         PUBLIC        P5M1
  D:00DBH         PUBLIC        P4M2
  D:00DDH         PUBLIC        P5M2
  D:00D8H         PUBLIC        P5
  B:00A8H.7       PUBLIC        EA
  C:2E81H         PUBLIC        Set_All_GPIO_Quasi_Mode
  C:2C23H         PUBLIC        _InitialUART0_Timer1_Type1
  C:2C4CH         PUBLIC        _InitialUART0_Timer1_Type2
  C:2BA6H         PUBLIC        _InitialUART0_Timer1_Type3
  C:2BD0H         PUBLIC        _InitialUART0_Timer1_Type4
  D:00A8H         PUBLIC        IE
  D:0096H         PUBLIC        CKSWT
  C:25BEH         PUBLIC        _InitialUART0_Timer3_Type5
  C:2E9BH         PUBLIC        SW_Reset
  C:2621H         PUBLIC        _InitialUART0_Timer3_Type6
  C:2DD6H         PUBLIC        Set_All_GPIO_Input_Mode
  D:00C7H         PUBLIC        TA
  D:00B8H         PUBLIC        IP
  B:0098H.0       PUBLIC        RI
  C:1A69H         PUBLIC        _System_Clock_Select
  B:0098H.1       PUBLIC        TI
  D:0097H         PUBLIC        CKEN
  C:3240H         PUBLIC        Fsys_Clock_Output_On_P26
  B:00F8H.0       PUBLIC        RI_1
  B:00F8H.1       PUBLIC        TI_1
  D:0099H         PUBLIC        SBUF
  D:0087H         PUBLIC        PCON
  D:0098H         PUBLIC        SCON
  D:0089H         PUBLIC        TMOD
  D:0088H         PUBLIC        TCON
  D:009FH         PUBLIC        CHPCON
  D:009AH         PUBLIC        SBUF_1
  D:00F8H         PUBLIC        SCON_1
  D:00C6H         PUBLIC        R3H
  D:008DH         PUBLIC        TH1
  D:00C5H         PUBLIC        R3L
  C:2744H         PUBLIC        _InitialUART1_Timer3
  B:0088H.6       PUBLIC        TR1
  D:00E8H         PUBLIC        ADCCON0
  C:315EH         PUBLIC        _Send_Data_To_UART0
  C:316EH         PUBLIC        _Send_Data_To_UART1
  D:00C0H         PUBLIC        I2CON
  D:00C8H         PUBLIC        T2CON
  D:00C4H         PUBLIC        T3CON
  C:3156H         PUBLIC        Receive_Data_From_UART0
  C:3166H         PUBLIC        Receive_Data_From_UART1
  D:008EH         PUBLIC        CKCON
  D:00D0H         PUBLIC        PSW
  C:2ACEH         PUBLIC        _putchar
  -------         PROC          _SYSTEM_CLOCK_SELECT
  D:0007H         SYMBOL        clock
  C:1A69H         LINE#         25
  C:1A69H         LINE#         26
  C:1A83H         LINE#         27
  C:1A83H         LINE#         29
BL51 BANKED LINKER/LOCATER V6.22                                                      09/03/2017  16:51:00  PAGE 62


  C:1A96H         LINE#         31
  C:1AA9H         LINE#         35
  C:1AAEH         LINE#         39
  C:1AAEH         LINE#         41
  C:1AAEH         LINE#         43
  C:1AAEH         LINE#         45
  C:1AAEH         LINE#         46
  C:1AB1H         LINE#         48
  C:1AB1H         LINE#         50
  C:1AC4H         LINE#         52
  C:1AD7H         LINE#         56
  C:1ADCH         LINE#         60
  C:1ADCH         LINE#         62
  C:1ADCH         LINE#         64
  C:1ADCH         LINE#         66
  C:1ADCH         LINE#         67
  C:1ADFH         LINE#         69
  C:1ADFH         LINE#         70
  C:1ADFH         LINE#         72
  C:1AF2H         LINE#         76
  C:1AF7H         LINE#         80
  C:1B06H         LINE#         82
  C:1B06H         LINE#         84
  C:1B06H         LINE#         86
  C:1B06H         LINE#         87
  C:1B08H         LINE#         89
  C:1B08H         LINE#         91
  C:1B1BH         LINE#         95
  C:1B20H         LINE#         99
  C:1B33H         LINE#         101
  C:1B42H         LINE#         103
  C:1B42H         LINE#         105
  C:1B42H         LINE#         106
  C:1B44H         LINE#         108
  C:1B44H         LINE#         110
  C:1B57H         LINE#         112
  C:1B6AH         LINE#         116
  C:1B6FH         LINE#         120
  C:1B82H         LINE#         122
  C:1B95H         LINE#         124
  C:1BA8H         LINE#         126
  C:1BA8H         LINE#         127
  C:1BA8H         LINE#         129
  C:1BA8H         LINE#         131
  C:1BADH         LINE#         133
  -------         ENDPROC       _SYSTEM_CLOCK_SELECT
  -------         PROC          _INITIALUART0_TIMER1_TYPE1
  D:0004H         SYMBOL        u32Baudrate
  C:2C23H         LINE#         137
  C:2C23H         LINE#         138
  C:2C23H         LINE#         139
  C:2C26H         LINE#         140
  C:2C29H         LINE#         142
  C:2C2CH         LINE#         143
  C:2C2FH         LINE#         144
  C:2C32H         LINE#         147
  C:2C49H         LINE#         152
BL51 BANKED LINKER/LOCATER V6.22                                                      09/03/2017  16:51:00  PAGE 63


  C:2C4BH         LINE#         153
  -------         ENDPROC       _INITIALUART0_TIMER1_TYPE1
  -------         PROC          _INITIALUART0_TIMER1_TYPE2
  D:0004H         SYMBOL        u32Baudrate
  C:2C4CH         LINE#         158
  C:2C4CH         LINE#         159
  C:2C4CH         LINE#         160
  C:2C4FH         LINE#         161
  C:2C52H         LINE#         163
  C:2C55H         LINE#         164
  C:2C58H         LINE#         165
  C:2C5BH         LINE#         168
  C:2C71H         LINE#         173
  C:2C73H         LINE#         174
  -------         ENDPROC       _INITIALUART0_TIMER1_TYPE2
  -------         PROC          _INITIALUART0_TIMER1_TYPE3
  D:0004H         SYMBOL        u32Baudrate
  C:2BA6H         LINE#         179
  C:2BA6H         LINE#         180
  C:2BA6H         LINE#         181
  C:2BA9H         LINE#         182
  C:2BACH         LINE#         184
  C:2BAFH         LINE#         185
  C:2BB2H         LINE#         186
  C:2BB5H         LINE#         189
  C:2BCDH         LINE#         194
  C:2BCFH         LINE#         195
  -------         ENDPROC       _INITIALUART0_TIMER1_TYPE3
  -------         PROC          _INITIALUART0_TIMER1_TYPE4
  D:0004H         SYMBOL        u32Baudrate
  C:2BD0H         LINE#         200
  C:2BD0H         LINE#         201
  C:2BD0H         LINE#         202
  C:2BD3H         LINE#         203
  C:2BD6H         LINE#         205
  C:2BD9H         LINE#         206
  C:2BDCH         LINE#         207
  C:2BDFH         LINE#         210
  C:2BF7H         LINE#         215
  C:2BF9H         LINE#         216
  -------         ENDPROC       _INITIALUART0_TIMER1_TYPE4
  -------         PROC          _INITIALUART0_TIMER3_TYPE5
  X:00ADH         SYMBOL        u32Baudrate
  C:25BEH         LINE#         218
  C:25C4H         LINE#         219
  C:25C4H         LINE#         220
  C:25C7H         LINE#         221
  C:25CAH         LINE#         222
  C:25CDH         LINE#         223
  C:25D0H         LINE#         226
  C:25FEH         LINE#         227
  C:261DH         LINE#         233
  C:2620H         LINE#         234
  -------         ENDPROC       _INITIALUART0_TIMER3_TYPE5
  -------         PROC          _INITIALUART0_TIMER3_TYPE6
  X:00B1H         SYMBOL        u32Baudrate
  C:2621H         LINE#         236
BL51 BANKED LINKER/LOCATER V6.22                                                      09/03/2017  16:51:00  PAGE 64


  C:2627H         LINE#         237
  C:2627H         LINE#         238
  C:262AH         LINE#         239
  C:262DH         LINE#         240
  C:2630H         LINE#         241
  C:2633H         LINE#         244
  C:2661H         LINE#         245
  C:2680H         LINE#         251
  C:2683H         LINE#         252
  -------         ENDPROC       _INITIALUART0_TIMER3_TYPE6
  -------         PROC          _INITIALUART1_TIMER3
  X:00B5H         SYMBOL        u32Baudrate
  C:2744H         LINE#         254
  C:274AH         LINE#         255
  C:274AH         LINE#         256
  C:274DH         LINE#         257
  C:2750H         LINE#         260
  C:277EH         LINE#         261
  C:279DH         LINE#         267
  C:27A0H         LINE#         268
  -------         ENDPROC       _INITIALUART1_TIMER3
  -------         PROC          RECEIVE_DATA_FROM_UART0
  -------         DO            
  D:0007H         SYMBOL        c
  -------         ENDDO         
  C:3156H         LINE#         280
  C:3156H         LINE#         283
  C:3159H         LINE#         285
  C:315BH         LINE#         286
  C:315DH         LINE#         287
  C:315DH         LINE#         288
  -------         ENDPROC       RECEIVE_DATA_FROM_UART0
  -------         PROC          _SEND_DATA_TO_UART0
  D:0007H         SYMBOL        c
  C:315EH         LINE#         300
  C:315EH         LINE#         301
  C:3160H         LINE#         302
  C:3162H         LINE#         303
  C:3165H         LINE#         305
  -------         ENDPROC       _SEND_DATA_TO_UART0
  -------         PROC          RECEIVE_DATA_FROM_UART1
  -------         DO            
  D:0007H         SYMBOL        c
  -------         ENDDO         
  C:3166H         LINE#         317
  C:3166H         LINE#         320
  C:3169H         LINE#         322
  C:316BH         LINE#         323
  C:316DH         LINE#         324
  C:316DH         LINE#         325
  -------         ENDPROC       RECEIVE_DATA_FROM_UART1
  -------         PROC          _SEND_DATA_TO_UART1
  D:0007H         SYMBOL        c
  C:316EH         LINE#         337
  C:316EH         LINE#         338
  C:3170H         LINE#         339
  C:3172H         LINE#         340
BL51 BANKED LINKER/LOCATER V6.22                                                      09/03/2017  16:51:00  PAGE 65


  C:3175H         LINE#         342
  -------         ENDPROC       _SEND_DATA_TO_UART1
  -------         PROC          SET_ALL_GPIO_QUASI_MODE
  C:2E81H         LINE#         344
  C:2E81H         LINE#         345
  C:2E84H         LINE#         346
  C:2E86H         LINE#         347
  C:2E88H         LINE#         348
  C:2E8AH         LINE#         349
  C:2E8CH         LINE#         350
  C:2E8EH         LINE#         351
  C:2E90H         LINE#         352
  C:2E92H         LINE#         353
  C:2E94H         LINE#         354
  C:2E96H         LINE#         355
  C:2E98H         LINE#         356
  C:2E9AH         LINE#         357
  -------         ENDPROC       SET_ALL_GPIO_QUASI_MODE
  -------         PROC          SET_ALL_GPIO_INPUT_MODE
  C:2DD6H         LINE#         359
  C:2DD6H         LINE#         360
  C:2DD9H         LINE#         361
  C:2DDCH         LINE#         362
  C:2DDFH         LINE#         363
  C:2DE1H         LINE#         364
  C:2DE4H         LINE#         365
  C:2DE6H         LINE#         366
  C:2DE9H         LINE#         367
  C:2DEBH         LINE#         368
  C:2DEEH         LINE#         369
  C:2DF0H         LINE#         370
  C:2DF3H         LINE#         371
  C:2DF5H         LINE#         372
  -------         ENDPROC       SET_ALL_GPIO_INPUT_MODE
  -------         PROC          SW_RESET
  C:2E9BH         LINE#         375
  C:2E9BH         LINE#         376
  C:2E9EH         LINE#         377
  C:2EA1H         LINE#         378
  C:2EB4H         LINE#         380
  -------         ENDPROC       SW_RESET
  -------         PROC          FSYS_CLOCK_OUTPUT_ON_P26
  C:3240H         LINE#         382
  C:3240H         LINE#         383
  C:3243H         LINE#         384
  -------         ENDPROC       FSYS_CLOCK_OUTPUT_ON_P26
  -------         PROC          _PUTCHAR
  D:0007H         SYMBOL        c
  C:2ACEH         LINE#         393
  C:2ACEH         LINE#         431
  C:2AD3H         LINE#         432
  C:2AD6H         LINE#         433
  C:2ADBH         LINE#         434
  C:2ADBH         LINE#         435
  C:2ADDH         LINE#         436
  C:2AE0H         LINE#         438
  C:2AE5H         LINE#         439
BL51 BANKED LINKER/LOCATER V6.22                                                      09/03/2017  16:51:00  PAGE 66


  C:2AE7H         LINE#         440
  C:2AE7H         LINE#         441
  C:2AE7H         LINE#         442
  C:2AEAH         LINE#         444
  C:2AECH         LINE#         445
  C:2AEFH         LINE#         446
  C:2AEFH         LINE#         447
  C:2AF2H         LINE#         448
  C:2AF7H         LINE#         449
  C:2AF7H         LINE#         450
  C:2AF9H         LINE#         451
  C:2AFCH         LINE#         453
  C:2B01H         LINE#         454
  C:2B03H         LINE#         455
  C:2B03H         LINE#         456
  C:2B03H         LINE#         457
  C:2B06H         LINE#         459
  C:2B08H         LINE#         460
  C:2B0AH         LINE#         462
  -------         ENDPROC       _PUTCHAR
  -------         ENDMOD        COMMON

  -------         MODULE        DELAY
  C:0000H         SYMBOL        _ICE_DUMMY_
  D:0080H         PUBLIC        P0
  D:0090H         PUBLIC        P1
  D:00A0H         PUBLIC        P2
  D:00B0H         PUBLIC        P3
  D:008FH         PUBLIC        WKCON
  D:00D8H         PUBLIC        P5
  D:00A8H         PUBLIC        IE
  D:00B8H         PUBLIC        IP
  C:2858H         PUBLIC        _Timer0_Delay1ms
  C:28B1H         PUBLIC        _Timer1_Delay1ms
  C:27FDH         PUBLIC        _Timer3_Delay1ms
  D:0098H         PUBLIC        SCON
  D:0089H         PUBLIC        TMOD
  D:0088H         PUBLIC        TCON
  C:2377H         PUBLIC        _?Random_Delay
  C:2DB5H         PUBLIC        _Delay10us
  D:00F8H         PUBLIC        SCON_1
  B:0088H.5       PUBLIC        TF0
  B:0088H.7       PUBLIC        TF1
  D:008CH         PUBLIC        TH0
  D:00C6H         PUBLIC        R3H
  D:008DH         PUBLIC        TH1
  D:008AH         PUBLIC        TL0
  C:2684H         PUBLIC        _WakeUp_Timer_Delay25ms
  D:00C5H         PUBLIC        R3L
  D:008BH         PUBLIC        TL1
  B:0088H.4       PUBLIC        TR0
  B:0088H.6       PUBLIC        TR1
  D:00E8H         PUBLIC        ADCCON0
  D:00C0H         PUBLIC        I2CON
  D:00C8H         PUBLIC        T2CON
  D:00C4H         PUBLIC        T3CON
  D:008EH         PUBLIC        CKCON
BL51 BANKED LINKER/LOCATER V6.22                                                      09/03/2017  16:51:00  PAGE 67


  D:0086H         PUBLIC        RWK
  D:00D0H         PUBLIC        PSW
  -------         PROC          _?RANDOM_DELAY
  -------         DO            
  x:0000H         SYMBOL        u32CNT
  x:0004H         SYMBOL        u32Tmp
  -------         ENDDO         
  C:2377H         LINE#         36
  C:237DH         LINE#         37
  C:237DH         LINE#         41
  C:23A8H         LINE#         42
  C:23A8H         LINE#         43
  C:23CDH         LINE#         44
  C:23F4H         LINE#         45
  -------         ENDPROC       _?RANDOM_DELAY
  -------         PROC          _DELAY10US
  D:0006H         SYMBOL        u16CNT
  C:2DB5H         LINE#         47
  C:2DB5H         LINE#         48
  C:2DB8H         LINE#         49
  C:2DBBH         LINE#         50
  C:2DBDH         LINE#         51
  C:2DC1H         LINE#         52
  C:2DC4H         LINE#         53
  C:2DC7H         LINE#         54
  C:2DCAH         LINE#         56
  C:2DCCH         LINE#         57
  C:2DD1H         LINE#         58
  C:2DD3H         LINE#         59
  C:2DD5H         LINE#         60
  -------         ENDPROC       _DELAY10US
  -------         PROC          _TIMER0_DELAY1MS
  X:00B9H         SYMBOL        u32CNT
  C:2858H         LINE#         62
  C:285EH         LINE#         63
  C:2861H         LINE#         64
  C:2864H         LINE#         65
  C:2866H         LINE#         66
  C:287FH         LINE#         67
  C:2882H         LINE#         68
  C:2885H         LINE#         69
  C:2888H         LINE#         71
  C:288AH         LINE#         72
  C:28ACH         LINE#         73
  C:28AEH         LINE#         74
  C:28B0H         LINE#         75
  -------         ENDPROC       _TIMER0_DELAY1MS
  -------         PROC          _TIMER1_DELAY1MS
  X:00BDH         SYMBOL        u32CNT
  C:28B1H         LINE#         77
  C:28B7H         LINE#         78
  C:28BAH         LINE#         79
  C:28BDH         LINE#         80
  C:28BFH         LINE#         81
  C:28D8H         LINE#         82
  C:28DBH         LINE#         83
  C:28DEH         LINE#         84
BL51 BANKED LINKER/LOCATER V6.22                                                      09/03/2017  16:51:00  PAGE 68


  C:28E1H         LINE#         86
  C:28E3H         LINE#         87
  C:2905H         LINE#         88
  C:2907H         LINE#         89
  C:2909H         LINE#         90
  -------         ENDPROC       _TIMER1_DELAY1MS
  -------         PROC          _TIMER3_DELAY1MS
  X:00C1H         SYMBOL        u32CNT
  C:27FDH         LINE#         92
  C:2803H         LINE#         93
  C:2806H         LINE#         94
  C:2809H         LINE#         95
  C:2822H         LINE#         96
  C:2825H         LINE#         97
  C:2828H         LINE#         98
  C:282DH         LINE#         100
  C:2830H         LINE#         101
  C:2852H         LINE#         102
  C:2854H         LINE#         103
  C:2857H         LINE#         104
  -------         ENDPROC       _TIMER3_DELAY1MS
  -------         PROC          _WAKEUP_TIMER_DELAY25MS
  X:00C5H         SYMBOL        u32CNT
  C:2684H         LINE#         106
  C:268AH         LINE#         107
  C:268AH         LINE#         108
  C:268DH         LINE#         109
  C:2690H         LINE#         110
  C:2693H         LINE#         112
  C:2696H         LINE#         114
  C:2699H         LINE#         115
  C:269CH         LINE#         116
  C:26B5H         LINE#         117
  C:26BAH         LINE#         119
  C:26BDH         LINE#         120
  C:26DFH         LINE#         121
  C:26E1H         LINE#         122
  C:26E4H         LINE#         123
  -------         ENDPROC       _WAKEUP_TIMER_DELAY25MS
  -------         ENDMOD        DELAY

  -------         MODULE        VERSION
  C:0000H         SYMBOL        _ICE_DUMMY_
  D:0080H         PUBLIC        P0
  D:0090H         PUBLIC        P1
  D:00A0H         PUBLIC        P2
  D:00B0H         PUBLIC        P3
  D:00D8H         PUBLIC        P5
  D:00A8H         PUBLIC        IE
  D:00B8H         PUBLIC        IP
  D:0098H         PUBLIC        SCON
  D:0088H         PUBLIC        TCON
  D:00F8H         PUBLIC        SCON_1
  C:26E5H         PUBLIC        Show_FW_Version_Number_To_PC
  D:00E8H         PUBLIC        ADCCON0
  D:00C0H         PUBLIC        I2CON
  D:00C8H         PUBLIC        T2CON
BL51 BANKED LINKER/LOCATER V6.22                                                      09/03/2017  16:51:00  PAGE 69


  D:00D0H         PUBLIC        PSW
  -------         PROC          SHOW_FW_VERSION_NUMBER_TO_PC
  C:26E5H         LINE#         32
  C:26E5H         LINE#         33
  C:26E5H         LINE#         34
  C:26EEH         LINE#         35
  C:26F7H         LINE#         36
  C:2700H         LINE#         37
  C:271AH         LINE#         38
  C:273BH         LINE#         39
  -------         ENDPROC       SHOW_FW_VERSION_NUMBER_TO_PC
  -------         ENDMOD        VERSION

  -------         MODULE        ?C_STARTUP
  C:2251H         SEGMENT       ?C_C51STARTUP
  I:00C8H         SEGMENT       ?STACK
  C:0000H         PUBLIC        ?C_STARTUP
  D:00E0H         SYMBOL        ACC
  D:00F0H         SYMBOL        B
  D:0083H         SYMBOL        DPH
  D:0082H         SYMBOL        DPL
  N:0000H         SYMBOL        IBPSTACK
  N:0100H         SYMBOL        IBPSTACKTOP
  N:0080H         SYMBOL        IDATALEN
  C:2254H         SYMBOL        IDATALOOP
  N:0000H         SYMBOL        PBPSTACK
  N:0000H         SYMBOL        PBPSTACKTOP
  N:0000H         SYMBOL        PDATALEN
  N:0000H         SYMBOL        PDATASTART
  N:0000H         SYMBOL        PPAGE
  N:0000H         SYMBOL        PPAGEENABLE
  D:00A0H         SYMBOL        PPAGE_SFR
  D:0081H         SYMBOL        SP
  C:2251H         SYMBOL        STARTUP1
  N:0000H         SYMBOL        XBPSTACK
  N:0000H         SYMBOL        XBPSTACKTOP
  N:00FFH         SYMBOL        XDATALEN
  C:225FH         SYMBOL        XDATALOOP
  N:0000H         SYMBOL        XDATASTART
  C:0000H         LINE#         92
  C:2251H         LINE#         99
  C:2253H         LINE#         100
  C:2254H         LINE#         101
  C:2255H         LINE#         102
  C:2257H         LINE#         106
  C:225AH         LINE#         107
  C:225CH         LINE#         109
  C:225EH         LINE#         113
  C:225FH         LINE#         114
  C:2260H         LINE#         115
  C:2261H         LINE#         116
  C:2263H         LINE#         117
  C:2265H         LINE#         151
  C:2268H         LINE#         155
  -------         ENDMOD        ?C_STARTUP

  -------         MODULE        ?C?COPY
BL51 BANKED LINKER/LOCATER V6.22                                                      09/03/2017  16:51:00  PAGE 70


  C:0A28H         PUBLIC        ?C?COPY
  -------         ENDMOD        ?C?COPY

  -------         MODULE        ?C?CLDPTR
  C:0A4EH         PUBLIC        ?C?CLDPTR
  -------         ENDMOD        ?C?CLDPTR

  -------         MODULE        ?C?CLDOPTR
  C:0A67H         PUBLIC        ?C?CLDOPTR
  -------         ENDMOD        ?C?CLDOPTR

  -------         MODULE        ?C?CILDOPTR
  C:0A94H         PUBLIC        ?C?CILDOPTR
  -------         ENDMOD        ?C?CILDOPTR

  -------         MODULE        ?C?CSTPTR
  C:0AC7H         PUBLIC        ?C?CSTPTR
  -------         ENDMOD        ?C?CSTPTR

  -------         MODULE        ?C?CSTOPTR
  C:0AD9H         PUBLIC        ?C?CSTOPTR
  -------         ENDMOD        ?C?CSTOPTR

  -------         MODULE        ?C?IILDX
  C:0AFBH         PUBLIC        ?C?IILDX
  -------         ENDMOD        ?C?IILDX

  -------         MODULE        ?C?ILDOPTR
  C:0B11H         PUBLIC        ?C?ILDOPTR
  -------         ENDMOD        ?C?ILDOPTR

  -------         MODULE        ?C?IILDOPTR
  C:0B49H         PUBLIC        ?C?IILDOPTR
  -------         ENDMOD        ?C?IILDOPTR

  -------         MODULE        ?C?ISTOPTR
  C:0B96H         PUBLIC        ?C?ISTOPTR
  -------         ENDMOD        ?C?ISTOPTR

  -------         MODULE        ?C?ULDIV
  C:0BFFH         PUBLIC        ?C?ULDIV
  -------         ENDMOD        ?C?ULDIV

  -------         MODULE        ?C?ULCMP
  C:0C91H         PUBLIC        ?C?ULCMP
  -------         ENDMOD        ?C?ULCMP

  -------         MODULE        ?C?ULSHR
  C:0CA2H         PUBLIC        ?C?ULSHR
  -------         ENDMOD        ?C?ULSHR

  -------         MODULE        ?C?LSTXDATA
  C:0CB5H         PUBLIC        ?C?LSTXDATA
  -------         ENDMOD        ?C?LSTXDATA

  -------         MODULE        ?C?LSTKXDATA
  C:0CC1H         PUBLIC        ?C?LSTKXDATA
BL51 BANKED LINKER/LOCATER V6.22                                                      09/03/2017  16:51:00  PAGE 71


  -------         ENDMOD        ?C?LSTKXDATA

  -------         MODULE        ?C?PLDPTR
  C:0CF2H         PUBLIC        ?C?PLDPTR
  -------         ENDMOD        ?C?PLDPTR

  -------         MODULE        ?C?CCASE
  C:0D12H         PUBLIC        ?C?CCASE
  -------         ENDMOD        ?C?CCASE

  -------         MODULE        ?C?ICALL
  C:0D38H         PUBLIC        ?C?ICALL
  C:0D3CH         PUBLIC        ?C?ICALL2
  -------         ENDMOD        ?C?ICALL

  -------         MODULE        ?C_XBP
  D:000DH         PUBLIC        ?C_XBP
  -------         ENDMOD        ?C_XBP

  -------         MODULE        ?C?ADDXBP
  C:0D3EH         PUBLIC        ?C?ADDXBP
  -------         ENDMOD        ?C?ADDXBP

  -------         MODULE        ?C?XBPOFF
  C:0D62H         PUBLIC        ?C?XBPOFF
  -------         ENDMOD        ?C?XBPOFF

  -------         MODULE        PRINTF
  X:0018H         PUBLIC        ?_PRINTF517?BYTE
  X:0018H         PUBLIC        ?_PRINTF?BYTE
  X:0018H         PUBLIC        ?_SPRINTF517?BYTE
  X:0018H         PUBLIC        ?_SPRINTF?BYTE
  C:161BH         PUBLIC        _PRINTF
  C:161BH         PUBLIC        _PRINTF517
  C:1615H         PUBLIC        _SPRINTF
  C:1615H         PUBLIC        _SPRINTF517
  -------         ENDMOD        PRINTF

  -------         MODULE        STRLEN
  C:2F12H         PUBLIC        _STRLEN
  -------         ENDMOD        STRLEN

  -------         MODULE        ?C?MEMSET
  C:0D6FH         PUBLIC        ?C?MEMSET
  -------         ENDMOD        ?C?MEMSET

  -------         MODULE        ?C?PLDIDATA
  C:0D9BH         PUBLIC        ?C?PLDIDATA
  -------         ENDMOD        ?C?PLDIDATA

  -------         MODULE        ?C?PLDXDATA
  C:0DA4H         PUBLIC        ?C?PLDXDATA
  -------         ENDMOD        ?C?PLDXDATA

  -------         MODULE        ?C?PLDIXDATA
  C:0DADH         PUBLIC        ?C?PLDIXDATA
  -------         ENDMOD        ?C?PLDIXDATA
BL51 BANKED LINKER/LOCATER V6.22                                                      09/03/2017  16:51:00  PAGE 72



  -------         MODULE        ?C?PSTXDATA
  C:0DC4H         PUBLIC        ?C?PSTXDATA
  -------         ENDMOD        ?C?PSTXDATA

  -------         MODULE        ?C?PLDPDATA
  C:0DCDH         PUBLIC        ?C?PLDPDATA
  -------         ENDMOD        ?C?PLDPDATA

  -------         MODULE        ?C?PLDCODE
  C:0DD6H         PUBLIC        ?C?PLDCODE
  -------         ENDMOD        ?C?PLDCODE

Program Size: data=199.4 xdata=202 code=12895
LINK/LOCATE RUN COMPLETE.  0 WARNING(S),  0 ERROR(S)
