BL51 BANKED LINKER/LOCATER V6.22                                                        12/16/2017  00:33:59  PAGE 1


BL51 BANKED LINKER/LOCATER V6.22, INVOKED BY:
C:\KEIL_V5\C51\BIN\BL51.EXE .\Out\Objects\main.obj, .\Out\Objects\app_key.obj, .\Out\Objects\app_work.obj, .\Out\Objects
>> \app_repeat_exe.obj, .\Out\Objects\app_2d4.obj, .\Out\Objects\app_lcd.obj, .\Out\Objects\app_eeprom.obj, .\Out\Object
>> s\bsp.obj, .\Out\Objects\bsp_key.obj, .\Out\Objects\bsp_display.obj, .\Out\Objects\bsp_timer0.obj, .\Out\Objects\bsp_
>> adc.obj, .\Out\Objects\bsp_keyBright.obj, .\Out\Objects\bsp_lcdBright.obj, .\Out\Objects\bsp_2d4.obj, .\Out\Objects\b
>> sp_eeprom.obj, .\Out\Objects\Common.obj, .\Out\Objects\Delay.obj, .\Out\Objects\Version.obj, .\Out\Objects\STARTUP.ob
>> j TO .\Out\Objects\project PRINT (.\Out\Listings\project.m51) RAMSIZE (256) DISABLEWARNING (16)


MEMORY MODEL: LARGE


INPUT MODULES INCLUDED:
  .\Out\Objects\main.obj (MAIN)
  .\Out\Objects\app_key.obj (APP_KEY)
  .\Out\Objects\app_work.obj (APP_WORK)
  .\Out\Objects\app_repeat_exe.obj (APP_REPEAT_EXE)
  .\Out\Objects\app_2d4.obj (APP_2D4)
  .\Out\Objects\app_lcd.obj (APP_LCD)
  .\Out\Objects\app_eeprom.obj (APP_EEPROM)
  .\Out\Objects\bsp.obj (BSP)
  .\Out\Objects\bsp_key.obj (BSP_KEY)
  .\Out\Objects\bsp_display.obj (BSP_DISPLAY)
  .\Out\Objects\bsp_timer0.obj (BSP_TIMER0)
  .\Out\Objects\bsp_adc.obj (BSP_ADC)
  .\Out\Objects\bsp_keyBright.obj (BSP_KEYBRIGHT)
  .\Out\Objects\bsp_lcdBright.obj (BSP_LCDBRIGHT)
  .\Out\Objects\bsp_2d4.obj (BSP_2D4)
  .\Out\Objects\bsp_eeprom.obj (BSP_EEPROM)
  .\Out\Objects\Common.obj (COMMON)
  .\Out\Objects\Delay.obj (DELAY)
  .\Out\Objects\Version.obj (VERSION)
  .\Out\Objects\STARTUP.obj (?C_STARTUP)
  C:\KEIL_V5\C51\LIB\C51L.LIB (?C_INIT)
  C:\KEIL_V5\C51\LIB\C51L.LIB (?C?COPY)
  C:\KEIL_V5\C51\LIB\C51L.LIB (?C?CLDPTR)
  C:\KEIL_V5\C51\LIB\C51L.LIB (?C?CLDOPTR)
  C:\KEIL_V5\C51\LIB\C51L.LIB (?C?CILDOPTR)
  C:\KEIL_V5\C51\LIB\C51L.LIB (?C?CSTOPTR)
  C:\KEIL_V5\C51\LIB\C51L.LIB (?C?IILDX)
  C:\KEIL_V5\C51\LIB\C51L.LIB (?C?ILDOPTR)
  C:\KEIL_V5\C51\LIB\C51L.LIB (?C?IILDOPTR)
  C:\KEIL_V5\C51\LIB\C51L.LIB (?C?ISTOPTR)
  C:\KEIL_V5\C51\LIB\C51L.LIB (?C?ULDIV)
  C:\KEIL_V5\C51\LIB\C51L.LIB (?C?ULCMP)
  C:\KEIL_V5\C51\LIB\C51L.LIB (?C?ULSHR)
  C:\KEIL_V5\C51\LIB\C51L.LIB (?C?LSTXDATA)
  C:\KEIL_V5\C51\LIB\C51L.LIB (?C?LSTKXDATA)
  C:\KEIL_V5\C51\LIB\C51L.LIB (?C?PLDPTR)
  C:\KEIL_V5\C51\LIB\C51L.LIB (?C?CCASE)
  C:\KEIL_V5\C51\LIB\C51L.LIB (?C?ICALL)
  C:\KEIL_V5\C51\LIB\C51L.LIB (?C_XBP)
  C:\KEIL_V5\C51\LIB\C51L.LIB (?C?ADDXBP)
  C:\KEIL_V5\C51\LIB\C51L.LIB (?C?XBPOFF)
  C:\KEIL_V5\C51\LIB\C51L.LIB (PRINTF)
  C:\KEIL_V5\C51\LIB\C51L.LIB (?C?STRCPY)
  C:\KEIL_V5\C51\LIB\C51L.LIB (STRNCPY)
  C:\KEIL_V5\C51\LIB\C51L.LIB (STRLEN)
BL51 BANKED LINKER/LOCATER V6.22                                                      12/16/2017  00:33:59  PAGE 2


  C:\KEIL_V5\C51\LIB\C51L.LIB (?C?MEMSET)
  C:\KEIL_V5\C51\LIB\C51L.LIB (?C?CSTPTR)
  C:\KEIL_V5\C51\LIB\C51L.LIB (?C?ILDIX)
  C:\KEIL_V5\C51\LIB\C51L.LIB (?C?PLDIDATA)
  C:\KEIL_V5\C51\LIB\C51L.LIB (?C?PLDXDATA)
  C:\KEIL_V5\C51\LIB\C51L.LIB (?C?PLDIXDATA)
  C:\KEIL_V5\C51\LIB\C51L.LIB (?C?PSTXDATA)
  C:\KEIL_V5\C51\LIB\C51L.LIB (?C?PLDPDATA)
  C:\KEIL_V5\C51\LIB\C51L.LIB (?C?PLDCODE)


LINK MAP OF MODULE:  .\Out\Objects\project (MAIN)


            TYPE    BASE      LENGTH    RELOCATION   SEGMENT NAME
            -----------------------------------------------------

            * * * * * * *   D A T A   M E M O R Y   * * * * * * *
            REG     0000H     0008H     ABSOLUTE     "REG BANK 0"
            DATA    0008H     0005H     UNIT         _DATA_GROUP_
            DATA    000DH     0002H     UNIT         ?C?LIB_DATA
            IDATA   000FH     000AH     UNIT         _IDATA_GROUP_
            IDATA   0019H     0005H     UNIT         ?ID?BSP_ADC
                    001EH     0002H                  *** GAP ***
            BIT     0020H.0   0001H.1   UNIT         _BIT_GROUP_
            BIT     0021H.1   0000H.1   UNIT         ?BI?APP_2D4
            BIT     0021H.2   0000H.1   UNIT         ?BI?BSP
                    0021H.3   0000H.5                *** GAP ***
            IDATA   0022H     007BH     UNIT         ?ID?BSP_KEY
            IDATA   009DH     0021H     UNIT         ?ID?APP_2D4
            IDATA   00BEH     0008H     UNIT         ?ID?APP_WORK
            IDATA   00C6H     0001H     UNIT         ?STACK

            * * * * * * *  X D A T A   M E M O R Y  * * * * * * *
            XDATA   0000H     0042H     UNIT         _XDATA_GROUP_
            XDATA   0042H     0013H     UNIT         ?XD?_RF_CARRIER?BSP_2D4
            XDATA   0055H     0012H     UNIT         ?XD?APP_REPEAT_EXE
            XDATA   0067H     0011H     UNIT         ?XD?APP_LCD
            XDATA   0078H     0010H     UNIT         ?XD?APP_2D4
            XDATA   0088H     000BH     UNIT         ?XD?BSP_TIMER0
            XDATA   0093H     000AH     UNIT         ?XD?BSP_2D4
            XDATA   009DH     0007H     UNIT         ?XD?BSP_KEY
            XDATA   00A4H     0004H     UNIT         ?XD?_INITIALUART0_TIMER3_TYPE5?COMMON
            XDATA   00A8H     0004H     UNIT         ?XD?_INITIALUART0_TIMER3_TYPE6?COMMON
            XDATA   00ACH     0004H     UNIT         ?XD?_INITIALUART1_TIMER3?COMMON
            XDATA   00B0H     0004H     UNIT         ?XD?_TIMER0_DELAY1MS?DELAY
            XDATA   00B4H     0004H     UNIT         ?XD?_TIMER1_DELAY1MS?DELAY
            XDATA   00B8H     0004H     UNIT         ?XD?_TIMER3_DELAY1MS?DELAY
            XDATA   00BCH     0004H     UNIT         ?XD?_WAKEUP_TIMER_DELAY25MS?DELAY
            XDATA   00C0H     0002H     UNIT         ?XD?APP_WORK
            XDATA   00C2H     0001H     UNIT         ?XD?MAIN
            XDATA   00C3H     0001H     UNIT         ?XD?APP_KEY

            * * * * * * *   C O D E   M E M O R Y   * * * * * * *
            CODE    0000H     0003H     ABSOLUTE     
            CODE    0003H     0008H     UNIT         ?PR?_READ_APROM_BYTE?BSP_EEPROM
            CODE    000BH     0003H     ABSOLUTE     
BL51 BANKED LINKER/LOCATER V6.22                                                      12/16/2017  00:33:59  PAGE 3


            CODE    000EH     004AH     UNIT         ?PR?APP_WORK_1S_PRO?APP_WORK
            CODE    0058H     0003H     UNIT         ?PR?KEY_BRIGHT_OFF?BSP_KEYBRIGHT
            CODE    005BH     0003H     ABSOLUTE     
            CODE    005EH     0BC7H     UNIT         ?PR?_APP_2D4_RCV?APP_2D4
            CODE    0C25H     08FAH     UNIT         ?PR?_LCD_SHOWCHAR?BSP_DISPLAY
            CODE    151FH     05CBH     UNIT         ?PR?_APP_KEY_PRO?APP_KEY
            CODE    1AEAH     0589H     UNIT         ?C?LIB_CODE
            CODE    2073H     0365H     UNIT         ?PR?PRINTF?PRINTF
            CODE    23D8H     0154H     UNIT         ?PR?_BSP_DETECTKEY?BSP_KEY
            CODE    252CH     0145H     UNIT         ?PR?_SYSTEM_CLOCK_SELECT?COMMON
            CODE    2671H     012EH     UNIT         ?PR?RF_INIT?BSP_2D4
            CODE    279FH     0112H     UNIT         ?CO?VERSION
            CODE    28B1H     0100H     UNIT         ?CO?APP_2D4
            CODE    29B1H     00E4H     UNIT         ?PR?_LCD_CLEAR_MI?BSP_DISPLAY
            CODE    2A95H     00E3H     UNIT         ?PR?_RF_CARRIER?BSP_2D4
            CODE    2B78H     00B8H     UNIT         ?PR?BSP_INITKEYVAR?BSP_KEY
            CODE    2C30H     00B5H     UNIT         ?PR?REPEAT_PRO?APP_REPEAT_EXE
            CODE    2CE5H     00ABH     UNIT         ?PR?_WRITE_DATAFLASH_BUF?BSP_EEPROM
            CODE    2D90H     00A2H     UNIT         ?PR?_LCD_SHOWSTRING?BSP_DISPLAY
            CODE    2E32H     009AH     UNIT         ?C_C51STARTUP
            CODE    2ECCH     0086H     UNIT         ?C_INITSEG
            CODE    2F52H     0085H     UNIT         ?PR?APP_2D4_PRO?APP_2D4
            CODE    2FD7H     0083H     UNIT         ?PR?_?RANDOM_DELAY?DELAY
            CODE    305AH     0079H     UNIT         ?PR?TIMER0_ISR?BSP_TIMER0
            CODE    30D3H     006DH     UNIT         ?PR?MAIN?MAIN
            CODE    3140H     006DH     UNIT         ?PR?_WRITE_DATAFLASH_BYTE?BSP_EEPROM
            CODE    31ADH     0068H     UNIT         ?PR?_STRNCPY?STRNCPY
            CODE    3215H     0067H     UNIT         ?PR?_ISKEYDOWN?BSP_KEY
            CODE    327CH     0063H     UNIT         ?PR?_INITIALUART0_TIMER3_TYPE5?COMMON
            CODE    32DFH     0063H     UNIT         ?PR?_INITIALUART0_TIMER3_TYPE6?COMMON
            CODE    3342H     0061H     UNIT         ?PR?_WAKEUP_TIMER_DELAY25MS?DELAY
            CODE    33A3H     005FH     UNIT         ?PR?SHOW_FW_VERSION_NUMBER_TO_PC?VERSION
            CODE    3402H     005DH     UNIT         ?PR?_INITIALUART1_TIMER3?COMMON
            CODE    345FH     005CH     UNIT         ?PR?ADC_ISR?MAIN
            CODE    34BBH     005BH     UNIT         ?PR?_TIMER3_DELAY1MS?DELAY
            CODE    3516H     0059H     UNIT         ?PR?_TIMER0_DELAY1MS?DELAY
            CODE    356FH     0059H     UNIT         ?PR?_TIMER1_DELAY1MS?DELAY
            CODE    35C8H     0053H     UNIT         ?PR?_APP_LCD_DEFAULT_STRING_SET?APP_LCD
            CODE    361BH     0051H     UNIT         ?PR?_APP_2D4_SEND?APP_2D4
            CODE    366CH     0045H     UNIT         ?PR?_ERASE_DATAFLASH?BSP_EEPROM
            CODE    36B1H     0043H     UNIT         ?PR?_APP_GET_SAVED_ADDRESS?APP_2D4
            CODE    36F4H     0043H     UNIT         ?PR?VOL_RESP?APP_2D4
            CODE    3737H     0043H     UNIT         ?PR?_RF_WRITEBUF?BSP_2D4
            CODE    377AH     0043H     UNIT         ?PR?_RF_TXDATA?BSP_2D4
            CODE    37BDH     0041H     UNIT         ?PR?APP_LCD_PRO?APP_LCD
            CODE    37FEH     003FH     UNIT         ?PR?_RF_READBUF?BSP_2D4
            CODE    383DH     003DH     UNIT         ?PR?_PUTCHAR?COMMON
            CODE    387AH     0038H     UNIT         ?PR?APP_2D4_SWITCH_PUBLIC_ADDRESS?APP_2D4
            CODE    38B2H     0036H     UNIT         ?PR?LCD_DISPLAY_INITHARD?BSP_DISPLAY
            CODE    38E8H     0033H     UNIT         ?PR?FM_STATION_SHOW_LCD_RESP?APP_2D4
            CODE    391BH     0033H     UNIT         ?PR?ADC_INIT?BSP_ADC
            CODE    394EH     0032H     UNIT         ?PR?_REPEAT_START?APP_REPEAT_EXE
            CODE    3980H     0032H     UNIT         ?PR?USB_TRACK_SHOW_LCD_RESP?APP_2D4
            CODE    39B2H     002AH     UNIT         ?PR?_INITIALUART0_TIMER1_TYPE3?COMMON
            CODE    39DCH     002AH     UNIT         ?PR?_INITIALUART0_TIMER1_TYPE4?COMMON
            CODE    3A06H     0029H     UNIT         ?PR?_UCRF_DUMPRXDATA?BSP_2D4
            CODE    3A2FH     0029H     UNIT         ?PR?_INITIALUART0_TIMER1_TYPE1?COMMON
BL51 BANKED LINKER/LOCATER V6.22                                                      12/16/2017  00:33:59  PAGE 4


            CODE    3A58H     0028H     UNIT         ?PR?_INITIALUART0_TIMER1_TYPE2?COMMON
            CODE    3A80H     0026H     UNIT         ?PR?TIMER0_PARAMINIT?BSP_TIMER0
            CODE    3AA6H     0026H     UNIT         ?PR?RF_RXMODE?BSP_2D4
            CODE    3ACCH     0025H     UNIT         ?PR?APP_2D4_INIT?APP_2D4
            CODE    3AF1H     0025H     UNIT         ?PR?_SPI_WR?BSP_2D4
            CODE    3B16H     0024H     UNIT         ?PR?_BSP_SETKEYPARAM?BSP_KEY
            CODE    3B3AH     0024H     UNIT         ?CO?BSP_2D4
            CODE    3B5EH     0023H     UNIT         ?PR?TIMER0_INITHARD?BSP_TIMER0
            CODE    3B81H     0023H     UNIT         ?PR?ADC_START?BSP_ADC
            CODE    3BA4H     0021H     UNIT         ?PR?_DELAY10US?DELAY
            CODE    3BC5H     0020H     UNIT         ?PR?SET_ALL_GPIO_INPUT_MODE?COMMON
            CODE    3BE5H     001FH     UNIT         ?PR?_SPI_WW?BSP_2D4
            CODE    3C04H     001CH     UNIT         ?PR?BSP_GETKEY?BSP_KEY
            CODE    3C20H     001CH     UNIT         ?PR?BSP_GETKEY2?BSP_KEY
            CODE    3C3CH     001BH     UNIT         ?PR?BSP_INIT?BSP
            CODE    3C57H     001BH     UNIT         ?PR?BSP_KEYSCAN?BSP_KEY
            CODE    3C72H     001AH     UNIT         ?PR?UCSPI_READ?BSP_2D4
            CODE    3C8CH     001AH     UNIT         ?PR?SET_ALL_GPIO_QUASI_MODE?COMMON
            CODE    3CA6H     001AH     UNIT         ?PR?SW_RESET?COMMON
            CODE    3CC0H     0018H     UNIT         ?PR?APP_WORK_INIT?APP_WORK
            CODE    3CD8H     0016H     UNIT         ?PR?SPEAKER_STATUS_RESP?APP_2D4
            CODE    3CEEH     0016H     UNIT         ?PR?RELAY_STATUS_RESP?APP_2D4
            CODE    3D04H     0015H     UNIT         ?PR?_STRLEN?STRLEN
            CODE    3D19H     0014H     UNIT         ?PR?REPEAT_STOP?APP_REPEAT_EXE
            CODE    3D2DH     0014H     UNIT         ?PR?APP_LCD_INIT?APP_LCD
            CODE    3D41H     0014H     UNIT         ?PR?_BSP_PUTKEY?BSP_KEY
            CODE    3D55H     0013H     UNIT         ?PR?_APP_EEPROM_WRITE_BUF?APP_EEPROM
            CODE    3D68H     0013H     UNIT         ?PR?WIRELESS2D4_INITHARD?BSP_2D4
            CODE    3D7BH     0013H     UNIT         ?PR?_RF_WRITEREG?BSP_2D4
            CODE    3D8EH     0013H     UNIT         ?PR?_UCRF_READREG?BSP_2D4
            CODE    3DA1H     0012H     UNIT         ?PR?ISKEYDOWN_2_AND_6?BSP_KEY
            CODE    3DB3H     0010H     UNIT         ?PR?REPEAT_START_EXE?APP_REPEAT_EXE
            CODE    3DC3H     0010H     UNIT         ?PR?REPEAT_STOP_EXE?APP_REPEAT_EXE
            CODE    3DD3H     000FH     UNIT         ?PR?CLEAR_LCD_RESP?APP_2D4
            CODE    3DE2H     000FH     UNIT         ?PR?USB_PAUSE_SHOW_LCD_RESP?APP_2D4
            CODE    3DF1H     000FH     UNIT         ?PR?BT_NEXT_SHOW_LCD_RESP?APP_2D4
            CODE    3E00H     000FH     UNIT         ?PR?BT_PREV_SHOW_LCD_RESP?APP_2D4
            CODE    3E0FH     000FH     UNIT         ?PR?LED_SHOW_BLINK_NAME_SHOW_LCD_RESP?APP_2D4
            CODE    3E1EH     000FH     UNIT         ?PR?LED_CLEAR_BLINK_NAME_SHOW_LCD_RESP?APP_2D4
            CODE    3E2DH     000FH     UNIT         ?PR?ISKEYDOWN2?BSP_KEY
            CODE    3E3CH     000FH     UNIT         ?PR?ISKEYDOWN6?BSP_KEY
            CODE    3E4BH     000FH     UNIT         ?PR?ISKEYDOWN7?BSP_KEY
            CODE    3E5AH     000FH     UNIT         ?PR?ISKEYDOWN8?BSP_KEY
            CODE    3E69H     000FH     UNIT         ?PR?ISKEYDOWN9?BSP_KEY
            CODE    3E78H     000FH     UNIT         ?PR?RF_TXMODE?BSP_2D4
            CODE    3E87H     000EH     UNIT         ?PR?ISKEYDOWN5?BSP_KEY
            CODE    3E95H     000EH     UNIT         ?PR?_RF_SETCHANNEL?BSP_2D4
            CODE    3EA3H     000DH     UNIT         ?PR?LCD_CLEAR_ALL?BSP_DISPLAY
            CODE    3EB0H     000DH     UNIT         ?PR?LCD_CLEAR_MI_ALL?BSP_DISPLAY
            CODE    3EBDH     000CH     UNIT         ?PR?_REPEAT_SETSTART?APP_REPEAT_EXE
            CODE    3EC9H     000CH     UNIT         ?PR?_REPEAT_SETSTOP?APP_REPEAT_EXE
            CODE    3ED5H     000CH     UNIT         ?PR?APP_2D4_SWITCH_SAVED_ADDRESS?APP_2D4
            CODE    3EE1H     000CH     UNIT         ?PR?RF_CLEARFIFO?BSP_2D4
            CODE    3EEDH     000BH     UNIT         ?PR?_APP_EEPROM_ERASE?APP_EEPROM
            CODE    3EF8H     000BH     UNIT         ?PR?_APP_EEPROM_WRITE_BYTE?APP_EEPROM
            CODE    3F03H     000BH     UNIT         ?PR?_BSP_GETKEYSTATE?BSP_KEY
            CODE    3F0EH     000AH     UNIT         ?PR?APP_REPEAT_ISENABLE?APP_REPEAT_EXE
BL51 BANKED LINKER/LOCATER V6.22                                                      12/16/2017  00:33:59  PAGE 5


            CODE    3F18H     000AH     UNIT         ?PR?UCRF_GETSTATUS?BSP_2D4
            CODE    3F22H     0009H     UNIT         ?CO?APP_WORK
            CODE    3F2BH     0009H     UNIT         ?PR?BT_PAUSE_SHOW_LCD_RESP?APP_2D4
            CODE    3F34H     0009H     UNIT         ?PR?AUX_MUTE_SHOW_LCD_RESP?APP_2D4
            CODE    3F3DH     0009H     UNIT         ?CO?APP_LCD
            CODE    3F46H     0009H     UNIT         ?PR?ISKEYDOWN1?BSP_KEY
            CODE    3F4FH     0009H     UNIT         ?PR?KEY_BRIGHT_INITHARD?BSP_KEYBRIGHT
            CODE    3F58H     0009H     UNIT         ?PR?LCD_BRIGHT_INITHARD?BSP_LCDBRIGHT
            CODE    3F61H     0008H     UNIT         ?PR?RECEIVE_DATA_FROM_UART0?COMMON
            CODE    3F69H     0008H     UNIT         ?PR?_SEND_DATA_TO_UART0?COMMON
            CODE    3F71H     0008H     UNIT         ?PR?RECEIVE_DATA_FROM_UART1?COMMON
            CODE    3F79H     0008H     UNIT         ?PR?_SEND_DATA_TO_UART1?COMMON
            CODE    3F81H     0007H     UNIT         ?PR?BSP_INITKEYHARD?BSP_KEY
            CODE    3F88H     0007H     UNIT         ?PR?LCD_CLEAR_LED_ICO?BSP_DISPLAY
            CODE    3F8FH     0007H     UNIT         ?PR?LCD_SHOW_LED_ICO?BSP_DISPLAY
            CODE    3F96H     0007H     UNIT         ?PR?LCD_CLEAR_FM_ICO?BSP_DISPLAY
            CODE    3F9DH     0007H     UNIT         ?PR?LCD_SHOW_FM_ICO?BSP_DISPLAY
            CODE    3FA4H     0007H     UNIT         ?PR?LCD_CLEAR_BLUETOOTH_ICO?BSP_DISPLAY
            CODE    3FABH     0007H     UNIT         ?PR?LCD_SHOW_BLUETOOTH_ICO?BSP_DISPLAY
            CODE    3FB2H     0007H     UNIT         ?PR?LCD_CLEAR_AUX_ICO?BSP_DISPLAY
            CODE    3FB9H     0007H     UNIT         ?PR?LCD_SHOW_AUX_ICO?BSP_DISPLAY
            CODE    3FC0H     0007H     UNIT         ?PR?LCD_CLEAR_USB_ICO?BSP_DISPLAY
            CODE    3FC7H     0007H     UNIT         ?PR?LCD_SHOW_USB_ICO?BSP_DISPLAY
            CODE    3FCEH     0007H     UNIT         ?PR?LCD_CLEAR_MHZ_ICO?BSP_DISPLAY
            CODE    3FD5H     0007H     UNIT         ?PR?LCD_SHOW_MHZ_ICO?BSP_DISPLAY
            CODE    3FDCH     0007H     UNIT         ?PR?LCD_CLEAR_BAZOOKA_ICO?BSP_DISPLAY
            CODE    3FE3H     0007H     UNIT         ?PR?LCD_SHOW_BAZOOKA_ICO?BSP_DISPLAY
            CODE    3FEAH     0007H     UNIT         ?PR?LCD_CLEAR_UPCOLON_ICO?BSP_DISPLAY
            CODE    3FF1H     0007H     UNIT         ?PR?LCD_SHOW_UPCOLON_ICO?BSP_DISPLAY
            CODE    3FF8H     0007H     UNIT         ?PR?LCD_CLEAR_DOWNCOLON_ICO?BSP_DISPLAY
            CODE    3FFFH     0007H     UNIT         ?PR?LCD_SHOW_DOWNCOLON_ICO?BSP_DISPLAY
            CODE    4006H     0007H     UNIT         ?PR?RF_CLEARSTATUS?BSP_2D4
            CODE    400DH     0006H     UNIT         ?PR?APP_WORK_CNT_CLEAR?APP_WORK
            CODE    4013H     0006H     UNIT         ?PR?ISKEYDOWN3?BSP_KEY
            CODE    4019H     0006H     UNIT         ?PR?ISKEYDOWN4?BSP_KEY
            CODE    401FH     0006H     UNIT         ?PR?BSP_INITKEY?BSP_KEY
            CODE    4025H     0006H     UNIT         ?PR?BSP_CLEARKEY?BSP_KEY
            CODE    402BH     0006H     UNIT         ?PR?LCD_CLEAR_COLON_ICO?BSP_DISPLAY
            CODE    4031H     0006H     UNIT         ?PR?LCD_SHOW_COLON_ICO?BSP_DISPLAY
            CODE    4037H     0006H     UNIT         ?PR?UCRF_GETRSSI?BSP_2D4
            CODE    403DH     0004H     UNIT         ?PR?_APP_EEPROM_READ_BYTE?APP_EEPROM
            CODE    4041H     0004H     UNIT         ?PR?FSYS_CLOCK_OUTPUT_ON_P26?COMMON
            CODE    4045H     0003H     UNIT         ?PR?KEY_BRIGHT_ON?BSP_KEYBRIGHT
            CODE    4048H     0003H     UNIT         ?PR?KEY_BRIGHT_TOGGLE?BSP_KEYBRIGHT
            CODE    404BH     0003H     UNIT         ?PR?LCD_BRIGHT_OFF?BSP_LCDBRIGHT
            CODE    404EH     0003H     UNIT         ?PR?LCD_BRIGHT_ON?BSP_LCDBRIGHT
            CODE    4051H     0001H     UNIT         ?PR?APP_WORK_100MS_PRO?APP_WORK
            CODE    4052H     0001H     UNIT         ?PR?APP_WORK_PRO?APP_WORK
            CODE    4053H     0001H     UNIT         ?PR?APP_EEPROM_INIT?APP_EEPROM
            CODE    4054H     0001H     UNIT         ?PR?APP_EEPROM_100MS_PRO?APP_EEPROM
            CODE    4055H     0001H     UNIT         ?PR?APP_EEPROM_PRO?APP_EEPROM
            CODE    4056H     0001H     UNIT         ?PR?SPI_INIT?BSP_2D4
            CODE    4057H     0001H     UNIT         ?PR?EEPROM_INITHARD?BSP_EEPROM



OVERLAY MAP OF MODULE:   .\Out\Objects\project (MAIN)
BL51 BANKED LINKER/LOCATER V6.22                                                      12/16/2017  00:33:59  PAGE 6




SEGMENT                                             BIT_GROUP          DATA_GROUP          IDATA_GROUP         XDATA_GRO
>> UP
  +--> CALLED SEGMENT                            START    LENGTH     START    LENGTH     START    LENGTH     START    LE
>> NGTH
------------------------------------------------------------------------------------------------------------------------
>> ----
?C_C51STARTUP                                    -----    -----      -----    -----      -----    -----      -----    --
>> ---
  +--> ?PR?MAIN?MAIN
  +--> ?C_INITSEG

?PR?MAIN?MAIN                                    -----    -----      -----    -----      -----    -----      0000H    00
>> 02H
  +--> ?PR?_SYSTEM_CLOCK_SELECT?COMMON
  +--> ?PR?BSP_INIT?BSP
  +--> ?PR?APP_2D4_SWITCH_SAVED_ADDRESS?APP_2D4
  +--> ?PR?APP_LCD_INIT?APP_LCD
  +--> ?PR?APP_WORK_INIT?APP_WORK
  +--> ?PR?ADC_START?BSP_ADC
  +--> ?PR?BSP_KEYSCAN?BSP_KEY
  +--> ?PR?APP_2D4_PRO?APP_2D4
  +--> ?PR?REPEAT_PRO?APP_REPEAT_EXE
  +--> ?PR?APP_LCD_PRO?APP_LCD
  +--> ?PR?APP_WORK_1S_PRO?APP_WORK
  +--> ?PR?BSP_GETKEY?BSP_KEY
  +--> ?PR?_APP_KEY_PRO?APP_KEY

?PR?BSP_INIT?BSP                                 -----    -----      -----    -----      -----    -----      -----    --
>> ---
  +--> ?PR?SET_ALL_GPIO_INPUT_MODE?COMMON
  +--> ?PR?LCD_DISPLAY_INITHARD?BSP_DISPLAY
  +--> ?PR?ADC_INIT?BSP_ADC
  +--> ?PR?BSP_INITKEY?BSP_KEY
  +--> ?PR?KEY_BRIGHT_INITHARD?BSP_KEYBRIGHT
  +--> ?PR?TIMER0_INITHARD?BSP_TIMER0
  +--> ?PR?WIRELESS2D4_INITHARD?BSP_2D4
  +--> ?PR?LCD_BRIGHT_INITHARD?BSP_LCDBRIGHT

?PR?LCD_DISPLAY_INITHARD?BSP_DISPLAY             -----    -----      -----    -----      -----    -----      -----    --
>> ---
  +--> ?PR?LCD_CLEAR_ALL?BSP_DISPLAY

?PR?BSP_INITKEY?BSP_KEY                          -----    -----      -----    -----      -----    -----      -----    --
>> ---
  +--> ?PR?BSP_INITKEYVAR?BSP_KEY
  +--> ?PR?BSP_INITKEYHARD?BSP_KEY

?PR?BSP_INITKEYVAR?BSP_KEY                       -----    -----      -----    -----      -----    -----      -----    --
>> ---
  +--> ?PR?ISKEYDOWN1?BSP_KEY
  +--> ?PR?ISKEYDOWN2?BSP_KEY
  +--> ?PR?ISKEYDOWN3?BSP_KEY
  +--> ?PR?ISKEYDOWN4?BSP_KEY
  +--> ?PR?ISKEYDOWN5?BSP_KEY
  +--> ?PR?ISKEYDOWN6?BSP_KEY
BL51 BANKED LINKER/LOCATER V6.22                                                      12/16/2017  00:33:59  PAGE 7


  +--> ?PR?ISKEYDOWN7?BSP_KEY
  +--> ?PR?ISKEYDOWN8?BSP_KEY
  +--> ?PR?ISKEYDOWN9?BSP_KEY
  +--> ?PR?ISKEYDOWN_2_AND_6?BSP_KEY

?PR?ISKEYDOWN2?BSP_KEY                           -----    -----      -----    -----      -----    -----      -----    --
>> ---
  +--> ?PR?_ISKEYDOWN?BSP_KEY

?PR?ISKEYDOWN3?BSP_KEY                           -----    -----      -----    -----      -----    -----      -----    --
>> ---
  +--> ?PR?_ISKEYDOWN?BSP_KEY

?PR?ISKEYDOWN4?BSP_KEY                           -----    -----      -----    -----      -----    -----      -----    --
>> ---
  +--> ?PR?_ISKEYDOWN?BSP_KEY

?PR?ISKEYDOWN5?BSP_KEY                           -----    -----      -----    -----      -----    -----      -----    --
>> ---
  +--> ?PR?_ISKEYDOWN?BSP_KEY

?PR?ISKEYDOWN6?BSP_KEY                           -----    -----      -----    -----      -----    -----      -----    --
>> ---
  +--> ?PR?_ISKEYDOWN?BSP_KEY

?PR?ISKEYDOWN7?BSP_KEY                           -----    -----      -----    -----      -----    -----      -----    --
>> ---
  +--> ?PR?_ISKEYDOWN?BSP_KEY

?PR?ISKEYDOWN8?BSP_KEY                           -----    -----      -----    -----      -----    -----      -----    --
>> ---
  +--> ?PR?_ISKEYDOWN?BSP_KEY

?PR?ISKEYDOWN9?BSP_KEY                           -----    -----      -----    -----      -----    -----      -----    --
>> ---
  +--> ?PR?_ISKEYDOWN?BSP_KEY

?PR?ISKEYDOWN_2_AND_6?BSP_KEY                    -----    -----      -----    -----      -----    -----      -----    --
>> ---
  +--> ?PR?ISKEYDOWN2?BSP_KEY
  +--> ?PR?ISKEYDOWN6?BSP_KEY

?PR?KEY_BRIGHT_INITHARD?BSP_KEYBRIGHT            -----    -----      -----    -----      -----    -----      -----    --
>> ---
  +--> ?PR?KEY_BRIGHT_OFF?BSP_KEYBRIGHT

?PR?TIMER0_INITHARD?BSP_TIMER0                   -----    -----      -----    -----      -----    -----      -----    --
>> ---
  +--> ?PR?TIMER0_PARAMINIT?BSP_TIMER0

?PR?LCD_BRIGHT_INITHARD?BSP_LCDBRIGHT            -----    -----      -----    -----      -----    -----      -----    --
>> ---
  +--> ?PR?LCD_BRIGHT_ON?BSP_LCDBRIGHT

?PR?APP_2D4_SWITCH_SAVED_ADDRESS?APP_2D4         -----    -----      -----    -----      -----    -----      -----    --
>> ---
  +--> ?PR?_APP_GET_SAVED_ADDRESS?APP_2D4
BL51 BANKED LINKER/LOCATER V6.22                                                      12/16/2017  00:33:59  PAGE 8


  +--> ?PR?APP_2D4_INIT?APP_2D4

?PR?_APP_GET_SAVED_ADDRESS?APP_2D4               -----    -----      -----    -----      -----    -----      000AH    00
>> 04H
  +--> ?PR?_APP_EEPROM_READ_BYTE?APP_EEPROM

?PR?_APP_EEPROM_READ_BYTE?APP_EEPROM             -----    -----      -----    -----      -----    -----      -----    --
>> ---
  +--> ?PR?_READ_APROM_BYTE?BSP_EEPROM

?PR?APP_2D4_INIT?APP_2D4                         -----    -----      -----    -----      -----    -----      -----    --
>> ---
  +--> ?PR?RF_INIT?BSP_2D4
  +--> ?PR?RF_RXMODE?BSP_2D4

?PR?RF_INIT?BSP_2D4                              -----    -----      -----    -----      -----    -----      000AH    00
>> 12H
  +--> ?CO?BSP_2D4
  +--> ?PR?SPI_INIT?BSP_2D4
  +--> ?PR?_RF_WRITEREG?BSP_2D4
  +--> ?PR?_RF_WRITEBUF?BSP_2D4

?PR?_RF_WRITEREG?BSP_2D4                         -----    -----      -----    -----      -----    -----      -----    --
>> ---
  +--> ?PR?_SPI_WW?BSP_2D4

?PR?_RF_WRITEBUF?BSP_2D4                         -----    -----      -----    -----      -----    -----      001CH    00
>> 05H
  +--> ?PR?_SPI_WW?BSP_2D4

?PR?RF_RXMODE?BSP_2D4                            -----    -----      -----    -----      -----    -----      -----    --
>> ---
  +--> ?PR?_RF_WRITEREG?BSP_2D4

?PR?APP_LCD_INIT?APP_LCD                         -----    -----      -----    -----      -----    -----      -----    --
>> ---
  +--> ?CO?APP_LCD

?PR?APP_WORK_INIT?APP_WORK                       -----    -----      -----    -----      -----    -----      -----    --
>> ---
  +--> ?PR?LCD_SHOW_BAZOOKA_ICO?BSP_DISPLAY

?PR?BSP_KEYSCAN?BSP_KEY                          -----    -----      -----    -----      -----    -----      0002H    00
>> 01H
  +--> ?PR?_BSP_DETECTKEY?BSP_KEY

?PR?_BSP_DETECTKEY?BSP_KEY                       -----    -----      -----    -----      -----    -----      0003H    00
>> 01H
  +--> ?PR?_BSP_PUTKEY?BSP_KEY

?PR?APP_2D4_PRO?APP_2D4                          -----    -----      -----    -----      -----    -----      0002H    00
>> 01H
  +--> ?PR?UCRF_GETSTATUS?BSP_2D4
  +--> ?PR?RF_CLEARFIFO?BSP_2D4
  +--> ?PR?RF_CLEARSTATUS?BSP_2D4
  +--> ?PR?RF_RXMODE?BSP_2D4
  +--> ?PR?_RF_TXDATA?BSP_2D4
BL51 BANKED LINKER/LOCATER V6.22                                                      12/16/2017  00:33:59  PAGE 9


  +--> ?PR?_UCRF_DUMPRXDATA?BSP_2D4
  +--> ?PR?_APP_2D4_RCV?APP_2D4

?PR?UCRF_GETSTATUS?BSP_2D4                       -----    -----      -----    -----      -----    -----      -----    --
>> ---
  +--> ?PR?_UCRF_READREG?BSP_2D4

?PR?_UCRF_READREG?BSP_2D4                        -----    -----      -----    -----      -----    -----      -----    --
>> ---
  +--> ?PR?_SPI_WR?BSP_2D4
  +--> ?PR?UCSPI_READ?BSP_2D4

?PR?RF_CLEARFIFO?BSP_2D4                         -----    -----      -----    -----      -----    -----      -----    --
>> ---
  +--> ?PR?_RF_WRITEREG?BSP_2D4

?PR?RF_CLEARSTATUS?BSP_2D4                       -----    -----      -----    -----      -----    -----      -----    --
>> ---
  +--> ?PR?_RF_WRITEREG?BSP_2D4

?PR?_RF_TXDATA?BSP_2D4                           -----    -----      -----    -----      -----    -----      0003H    00
>> 02H
  +--> ?PR?UCRF_GETSTATUS?BSP_2D4
  +--> ?PR?_RF_WRITEBUF?BSP_2D4
  +--> ?PR?_RF_WRITEREG?BSP_2D4

?PR?_UCRF_DUMPRXDATA?BSP_2D4                     -----    -----      -----    -----      -----    -----      -----    --
>> ---
  +--> ?PR?UCRF_GETSTATUS?BSP_2D4
  +--> ?PR?_RF_WRITEREG?BSP_2D4
  +--> ?PR?_RF_READBUF?BSP_2D4
  +--> ?PR?RF_CLEARFIFO?BSP_2D4
  +--> ?PR?RF_CLEARSTATUS?BSP_2D4

?PR?_RF_READBUF?BSP_2D4                          -----    -----      -----    -----      -----    -----      0003H    00
>> 05H
  +--> ?PR?_SPI_WR?BSP_2D4
  +--> ?PR?UCSPI_READ?BSP_2D4

?PR?_APP_2D4_RCV?APP_2D4                         -----    -----      -----    -----      000FH    000AH      0003H    00
>> 07H
  +--> ?PR?APP_WORK_CNT_CLEAR?APP_WORK
  +--> ?CO?APP_2D4
  +--> ?PR?_APP_GET_SAVED_ADDRESS?APP_2D4
  +--> ?PR?_APP_EEPROM_ERASE?APP_EEPROM
  +--> ?PR?_APP_EEPROM_WRITE_BUF?APP_EEPROM
  +--> ?PR?APP_2D4_SWITCH_SAVED_ADDRESS?APP_2D4
  +--> ?PR?LCD_SHOW_LED_ICO?BSP_DISPLAY
  +--> ?PR?LCD_CLEAR_MHZ_ICO?BSP_DISPLAY
  +--> ?PR?LCD_CLEAR_FM_ICO?BSP_DISPLAY
  +--> ?PR?LCD_CLEAR_USB_ICO?BSP_DISPLAY
  +--> ?PR?LCD_CLEAR_AUX_ICO?BSP_DISPLAY
  +--> ?PR?LCD_CLEAR_BLUETOOTH_ICO?BSP_DISPLAY
  +--> ?PR?LCD_SHOW_BLUETOOTH_ICO?BSP_DISPLAY
  +--> ?PR?LCD_SHOW_FM_ICO?BSP_DISPLAY
  +--> ?PR?LCD_SHOW_USB_ICO?BSP_DISPLAY
  +--> ?PR?LCD_SHOW_AUX_ICO?BSP_DISPLAY
BL51 BANKED LINKER/LOCATER V6.22                                                      12/16/2017  00:33:59  PAGE 10


  +--> ?PR?_STRLEN?STRLEN
  +--> ?PR?_APP_LCD_DEFAULT_STRING_SET?APP_LCD
  +--> ?PR?LED_SHOW_BLINK_NAME_SHOW_LCD_RESP...
  +--> ?PR?_REPEAT_SETSTART?APP_REPEAT_EXE
  +--> ?PR?LED_CLEAR_BLINK_NAME_SHOW_LCD_RES...
  +--> ?PR?_REPEAT_SETSTOP?APP_REPEAT_EXE
  +--> ?PR?APP_REPEAT_ISENABLE?APP_REPEAT_EXE
  +--> ?PR?REPEAT_STOP?APP_REPEAT_EXE
  +--> ?PR?LCD_CLEAR_DOWNCOLON_ICO?BSP_DISPLAY
  +--> ?PR?LCD_CLEAR_UPCOLON_ICO?BSP_DISPLAY
  +--> ?PR?SPEAKER_STATUS_RESP?APP_2D4
  +--> ?PR?PRINTF?PRINTF
  +--> ?PR?LCD_CLEAR_ALL?BSP_DISPLAY
  +--> ?PR?BT_PAUSE_SHOW_LCD_RESP?APP_2D4
  +--> ?PR?CLEAR_LCD_RESP?APP_2D4
  +--> ?PR?AUX_MUTE_SHOW_LCD_RESP?APP_2D4
  +--> ?PR?USB_PAUSE_SHOW_LCD_RESP?APP_2D4
  +--> ?PR?BT_PREV_SHOW_LCD_RESP?APP_2D4
  +--> ?PR?BT_NEXT_SHOW_LCD_RESP?APP_2D4
  +--> ?PR?FM_STATION_SHOW_LCD_RESP?APP_2D4
  +--> ?PR?USB_TRACK_SHOW_LCD_RESP?APP_2D4
  +--> ?PR?LCD_SHOW_MHZ_ICO?BSP_DISPLAY
  +--> ?PR?VOL_RESP?APP_2D4
  +--> ?PR?RELAY_STATUS_RESP?APP_2D4
  +--> ?PR?LCD_CLEAR_LED_ICO?BSP_DISPLAY
  +--> ?PR?_REPEAT_START?APP_REPEAT_EXE

?PR?_APP_EEPROM_ERASE?APP_EEPROM                 -----    -----      -----    -----      -----    -----      -----    --
>> ---
  +--> ?PR?_ERASE_DATAFLASH?BSP_EEPROM

?PR?_APP_EEPROM_WRITE_BUF?APP_EEPROM             -----    -----      -----    -----      -----    -----      000AH    00
>> 06H
  +--> ?PR?_WRITE_DATAFLASH_BUF?BSP_EEPROM

?PR?_WRITE_DATAFLASH_BUF?BSP_EEPROM              -----    -----      -----    -----      -----    -----      0010H    00
>> 06H

?PR?_APP_LCD_DEFAULT_STRING_SET?APP_LCD          -----    -----      -----    -----      -----    -----      000AH    00
>> 05H
  +--> ?PR?_STRNCPY?STRNCPY

?PR?_STRNCPY?STRNCPY                             -----    -----      -----    -----      -----    -----      000FH    00
>> 0AH

?PR?LED_SHOW_BLINK_NAME_SHOW_LCD_RESP...         -----    -----      -----    -----      -----    -----      -----    --
>> ---
  +--> ?PR?_LCD_SHOWSTRING?BSP_DISPLAY
  +--> ?PR?LCD_CLEAR_UPCOLON_ICO?BSP_DISPLAY
  +--> ?PR?LCD_CLEAR_DOWNCOLON_ICO?BSP_DISPLAY

?PR?_LCD_SHOWSTRING?BSP_DISPLAY                  0020H.0  0000H.1    -----    -----      -----    -----      001AH    00
>> 04H
  +--> ?PR?_STRLEN?STRLEN
  +--> ?PR?_LCD_SHOWCHAR?BSP_DISPLAY

?PR?_LCD_SHOWCHAR?BSP_DISPLAY                    -----    -----      -----    -----      -----    -----      -----    --
BL51 BANKED LINKER/LOCATER V6.22                                                      12/16/2017  00:33:59  PAGE 11


>> ---
  +--> ?PR?_LCD_CLEAR_MI?BSP_DISPLAY

?PR?LED_CLEAR_BLINK_NAME_SHOW_LCD_RES...         -----    -----      -----    -----      -----    -----      -----    --
>> ---
  +--> ?CO?APP_2D4
  +--> ?PR?_LCD_SHOWSTRING?BSP_DISPLAY
  +--> ?PR?LCD_CLEAR_UPCOLON_ICO?BSP_DISPLAY
  +--> ?PR?LCD_CLEAR_DOWNCOLON_ICO?BSP_DISPLAY

?PR?REPEAT_STOP?APP_REPEAT_EXE                   -----    -----      -----    -----      -----    -----      -----    --
>> ---
  +--> ?PR?REPEAT_STOP_EXE?APP_REPEAT_EXE
  +--> ?PR?_REPEAT_SETSTART?APP_REPEAT_EXE
  +--> ?PR?_REPEAT_SETSTOP?APP_REPEAT_EXE

?PR?SPEAKER_STATUS_RESP?APP_2D4                  -----    -----      -----    -----      -----    -----      -----    --
>> ---
  +--> ?CO?APP_2D4
  +--> ?PR?_LCD_SHOWSTRING?BSP_DISPLAY

?PR?PRINTF?PRINTF                                0020H.0  0001H.1    0008H    0005H      -----    -----      001AH    00
>> 28H
  +--> ?PR?_PUTCHAR?COMMON

?PR?BT_PAUSE_SHOW_LCD_RESP?APP_2D4               -----    -----      -----    -----      -----    -----      -----    --
>> ---
  +--> ?CO?APP_2D4
  +--> ?PR?_LCD_SHOWSTRING?BSP_DISPLAY

?PR?CLEAR_LCD_RESP?APP_2D4                       -----    -----      -----    -----      -----    -----      -----    --
>> ---
  +--> ?CO?APP_2D4
  +--> ?PR?_LCD_SHOWSTRING?BSP_DISPLAY
  +--> ?PR?LCD_CLEAR_UPCOLON_ICO?BSP_DISPLAY
  +--> ?PR?LCD_CLEAR_DOWNCOLON_ICO?BSP_DISPLAY

?PR?AUX_MUTE_SHOW_LCD_RESP?APP_2D4               -----    -----      -----    -----      -----    -----      -----    --
>> ---
  +--> ?CO?APP_2D4
  +--> ?PR?_LCD_SHOWSTRING?BSP_DISPLAY

?PR?USB_PAUSE_SHOW_LCD_RESP?APP_2D4              -----    -----      -----    -----      -----    -----      -----    --
>> ---
  +--> ?CO?APP_2D4
  +--> ?PR?_LCD_SHOWSTRING?BSP_DISPLAY
  +--> ?PR?LCD_CLEAR_UPCOLON_ICO?BSP_DISPLAY
  +--> ?PR?LCD_CLEAR_DOWNCOLON_ICO?BSP_DISPLAY

?PR?BT_PREV_SHOW_LCD_RESP?APP_2D4                -----    -----      -----    -----      -----    -----      -----    --
>> ---
  +--> ?CO?APP_2D4
  +--> ?PR?_LCD_SHOWSTRING?BSP_DISPLAY
  +--> ?PR?LCD_CLEAR_UPCOLON_ICO?BSP_DISPLAY
  +--> ?PR?LCD_CLEAR_DOWNCOLON_ICO?BSP_DISPLAY

?PR?BT_NEXT_SHOW_LCD_RESP?APP_2D4                -----    -----      -----    -----      -----    -----      -----    --
BL51 BANKED LINKER/LOCATER V6.22                                                      12/16/2017  00:33:59  PAGE 12


>> ---
  +--> ?CO?APP_2D4
  +--> ?PR?_LCD_SHOWSTRING?BSP_DISPLAY
  +--> ?PR?LCD_CLEAR_UPCOLON_ICO?BSP_DISPLAY
  +--> ?PR?LCD_CLEAR_DOWNCOLON_ICO?BSP_DISPLAY

?PR?FM_STATION_SHOW_LCD_RESP?APP_2D4             -----    -----      -----    -----      -----    -----      -----    --
>> ---
  +--> ?CO?APP_2D4
  +--> ?PR?PRINTF?PRINTF
  +--> ?PR?_LCD_SHOWSTRING?BSP_DISPLAY
  +--> ?PR?LCD_CLEAR_MHZ_ICO?BSP_DISPLAY
  +--> ?PR?LCD_CLEAR_UPCOLON_ICO?BSP_DISPLAY
  +--> ?PR?LCD_SHOW_DOWNCOLON_ICO?BSP_DISPLAY

?PR?USB_TRACK_SHOW_LCD_RESP?APP_2D4              -----    -----      -----    -----      -----    -----      -----    --
>> ---
  +--> ?CO?APP_2D4
  +--> ?PR?PRINTF?PRINTF
  +--> ?PR?_LCD_SHOWSTRING?BSP_DISPLAY
  +--> ?PR?LCD_CLEAR_UPCOLON_ICO?BSP_DISPLAY
  +--> ?PR?LCD_CLEAR_DOWNCOLON_ICO?BSP_DISPLAY

?PR?VOL_RESP?APP_2D4                             -----    -----      -----    -----      -----    -----      000AH    00
>> 10H
  +--> ?CO?APP_2D4
  +--> ?PR?LCD_CLEAR_UPCOLON_ICO?BSP_DISPLAY
  +--> ?PR?LCD_CLEAR_DOWNCOLON_ICO?BSP_DISPLAY
  +--> ?PR?PRINTF?PRINTF
  +--> ?PR?_LCD_SHOWSTRING?BSP_DISPLAY

?PR?RELAY_STATUS_RESP?APP_2D4                    -----    -----      -----    -----      -----    -----      -----    --
>> ---
  +--> ?CO?APP_2D4
  +--> ?PR?_LCD_SHOWSTRING?BSP_DISPLAY

?PR?_REPEAT_START?APP_REPEAT_EXE                 -----    -----      -----    -----      -----    -----      -----    --
>> ---
  +--> ?PR?REPEAT_START_EXE?APP_REPEAT_EXE

?PR?REPEAT_PRO?APP_REPEAT_EXE                    -----    -----      -----    -----      -----    -----      -----    --
>> ---
  +--> ?PR?REPEAT_STOP_EXE?APP_REPEAT_EXE
  +--> ?PR?REPEAT_START_EXE?APP_REPEAT_EXE

?PR?APP_LCD_PRO?APP_LCD                          -----    -----      -----    -----      -----    -----      -----    --
>> ---
  +--> ?PR?APP_REPEAT_ISENABLE?APP_REPEAT_EXE
  +--> ?PR?_LCD_SHOWSTRING?BSP_DISPLAY
  +--> ?PR?LCD_CLEAR_DOWNCOLON_ICO?BSP_DISPLAY
  +--> ?PR?LCD_CLEAR_UPCOLON_ICO?BSP_DISPLAY
  +--> ?PR?LCD_SHOW_UPCOLON_ICO?BSP_DISPLAY
  +--> ?PR?LCD_SHOW_DOWNCOLON_ICO?BSP_DISPLAY

?PR?APP_WORK_1S_PRO?APP_WORK                     -----    -----      -----    -----      -----    -----      -----    --
>> ---
  +--> ?PR?APP_2D4_SWITCH_SAVED_ADDRESS?APP_2D4
BL51 BANKED LINKER/LOCATER V6.22                                                      12/16/2017  00:33:59  PAGE 13


  +--> ?PR?REPEAT_STOP?APP_REPEAT_EXE
  +--> ?PR?LCD_CLEAR_ALL?BSP_DISPLAY
  +--> ?PR?LCD_SHOW_BAZOOKA_ICO?BSP_DISPLAY
  +--> ?CO?APP_WORK
  +--> ?PR?_LCD_SHOWSTRING?BSP_DISPLAY
  +--> ?PR?_APP_LCD_DEFAULT_STRING_SET?APP_LCD

?PR?_APP_KEY_PRO?APP_KEY                         -----    -----      -----    -----      -----    -----      0002H    00
>> 03H
  +--> ?PR?APP_2D4_SWITCH_PUBLIC_ADDRESS?APP...
  +--> ?PR?_APP_2D4_SEND?APP_2D4

?PR?APP_2D4_SWITCH_PUBLIC_ADDRESS?APP...         -----    -----      -----    -----      -----    -----      -----    --
>> ---
  +--> ?PR?RF_INIT?BSP_2D4
  +--> ?PR?RF_RXMODE?BSP_2D4

?PR?_APP_2D4_SEND?APP_2D4                        -----    -----      -----    -----      -----    -----      0005H    00
>> 04H
  +--> ?PR?RF_TXMODE?BSP_2D4

?PR?RF_TXMODE?BSP_2D4                            -----    -----      -----    -----      -----    -----      -----    --
>> ---
  +--> ?PR?_RF_WRITEREG?BSP_2D4



SYMBOL TABLE OF MODULE:  .\Out\Objects\project (MAIN)

  VALUE           TYPE          NAME
  ----------------------------------

  -------         MODULE        MAIN
  C:0000H         SYMBOL        _ICE_DUMMY_
  D:0080H         PUBLIC        P0
  D:0090H         PUBLIC        P1
  D:00A0H         PUBLIC        P2
  D:00B0H         PUBLIC        P3
  D:00D8H         PUBLIC        P5
  D:00A8H         PUBLIC        IE
  B:00E8H.7       PUBLIC        ADCF
  C:345FH         PUBLIC        ADC_ISR
  D:00B8H         PUBLIC        IP
  C:30D3H         PUBLIC        main
  D:0098H         PUBLIC        SCON
  D:0088H         PUBLIC        TCON
  D:00F8H         PUBLIC        SCON_1
  D:00E8H         PUBLIC        ADCCON0
  D:00C0H         PUBLIC        I2CON
  D:00C3H         PUBLIC        ADCRH
  D:00C8H         PUBLIC        T2CON
  D:00C2H         PUBLIC        ADCRL
  D:00D0H         PUBLIC        PSW
  -------         PROC          ADC_ISR
  C:345FH         LINE#         8
  C:3470H         LINE#         9
  C:3470H         LINE#         11
BL51 BANKED LINKER/LOCATER V6.22                                                      12/16/2017  00:33:59  PAGE 14


  C:3472H         LINE#         13
  C:3482H         LINE#         14
  C:349EH         LINE#         15
  C:34ACH         LINE#         17
  -------         ENDPROC       ADC_ISR
  -------         PROC          MAIN
  -------         DO            
  X:0000H         SYMBOL        ucKeyCode
  -------         DO            
  X:0001H         SYMBOL        i
  X:00C2H         SYMBOL        n
  -------         ENDDO         
  -------         ENDDO         
  C:30D3H         LINE#         19
  C:30D3H         LINE#         21
  C:30D8H         LINE#         24
  C:30DBH         LINE#         32
  C:30DFH         LINE#         33
  C:30E2H         LINE#         35
  C:30E5H         LINE#         36
  C:30E8H         LINE#         40
  C:30E8H         LINE#         41
  C:30EEH         LINE#         42
  C:30F0H         LINE#         44
  C:30F3H         LINE#         45
  C:30F3H         LINE#         46
  C:30F9H         LINE#         47
  C:30FBH         LINE#         49
  C:30FEH         LINE#         51
  C:3101H         LINE#         52
  C:3101H         LINE#         53
  C:3107H         LINE#         54
  C:310CH         LINE#         57
  C:3110H         LINE#         62
  C:3113H         LINE#         64
  C:3116H         LINE#         66
  C:311CH         LINE#         67
  C:3122H         LINE#         68
  C:3124H         LINE#         72
  C:3124H         LINE#         73
  C:3124H         LINE#         74
  C:312AH         LINE#         76
  C:312CH         LINE#         78
  C:312FH         LINE#         82
  C:312FH         LINE#         86
  C:3137H         LINE#         87
  C:3139H         LINE#         89
  C:313EH         LINE#         90
  C:313EH         LINE#         92
  -------         ENDPROC       MAIN
  -------         ENDMOD        MAIN

  -------         MODULE        APP_KEY
  C:0000H         SYMBOL        _ICE_DUMMY_
  D:0080H         PUBLIC        P0
  D:0090H         PUBLIC        P1
  D:00A0H         PUBLIC        P2
BL51 BANKED LINKER/LOCATER V6.22                                                      12/16/2017  00:33:59  PAGE 15


  D:00B0H         PUBLIC        P3
  D:00D8H         PUBLIC        P5
  D:00A8H         PUBLIC        IE
  D:00B8H         PUBLIC        IP
  C:151FH         PUBLIC        _app_key_pro
  D:0098H         PUBLIC        SCON
  D:0088H         PUBLIC        TCON
  D:00F8H         PUBLIC        SCON_1
  X:00C3H         SYMBOL        press_long_lock
  D:00E8H         PUBLIC        ADCCON0
  D:00C0H         PUBLIC        I2CON
  D:00C8H         PUBLIC        T2CON
  D:00D0H         PUBLIC        PSW
  -------         PROC          _APP_KEY_PRO
  X:0002H         SYMBOL        keyCode
  -------         DO            
  X:0003H         SYMBOL        index
  X:0004H         SYMBOL        i
  -------         ENDDO         
  C:151FH         LINE#         27
  C:1524H         LINE#         29
  C:1527H         LINE#         30
  C:1529H         LINE#         32
  C:152DH         LINE#         33
  C:1539H         LINE#         34
  C:15ACH         LINE#         35
  C:15ACH         LINE#         36
  C:15B2H         LINE#         37
  C:15BFH         LINE#         38
  C:15C9H         LINE#         39
  C:15D3H         LINE#         40
  C:15EFH         LINE#         41
  C:15FFH         LINE#         42
  C:1605H         LINE#         43
  C:1605H         LINE#         44
  C:160AH         LINE#         45
  C:160DH         LINE#         46
  C:160DH         LINE#         48
  C:160DH         LINE#         49
  C:160DH         LINE#         50
  C:1613H         LINE#         51
  C:1620H         LINE#         52
  C:162AH         LINE#         53
  C:1634H         LINE#         54
  C:1653H         LINE#         55
  C:1663H         LINE#         56
  C:1669H         LINE#         57
  C:1669H         LINE#         58
  C:1669H         LINE#         60
  C:1669H         LINE#         61
  C:1669H         LINE#         62
  C:1676H         LINE#         63
  C:1680H         LINE#         64
  C:168AH         LINE#         65
  C:16A9H         LINE#         66
  C:16B9H         LINE#         67
  C:16BFH         LINE#         68
BL51 BANKED LINKER/LOCATER V6.22                                                      12/16/2017  00:33:59  PAGE 16


  C:16BFH         LINE#         69
  C:16BFH         LINE#         70
  C:16CCH         LINE#         71
  C:16D6H         LINE#         72
  C:16E0H         LINE#         73
  C:16FFH         LINE#         74
  C:170FH         LINE#         75
  C:1715H         LINE#         76
  C:1715H         LINE#         77
  C:1715H         LINE#         79
  C:1715H         LINE#         80
  C:1715H         LINE#         81
  C:1722H         LINE#         82
  C:172CH         LINE#         83
  C:1736H         LINE#         84
  C:1755H         LINE#         85
  C:1765H         LINE#         86
  C:176BH         LINE#         87
  C:176BH         LINE#         88
  C:176BH         LINE#         89
  C:1778H         LINE#         90
  C:1782H         LINE#         91
  C:178CH         LINE#         92
  C:17ABH         LINE#         93
  C:17BBH         LINE#         94
  C:17C1H         LINE#         95
  C:17C1H         LINE#         96
  C:17C1H         LINE#         98
  C:17C1H         LINE#         99
  C:17C1H         LINE#         100
  C:17CEH         LINE#         101
  C:17D8H         LINE#         102
  C:17E2H         LINE#         103
  C:1801H         LINE#         104
  C:1811H         LINE#         105
  C:1817H         LINE#         106
  C:1817H         LINE#         107
  C:1817H         LINE#         108
  C:1824H         LINE#         109
  C:182EH         LINE#         110
  C:1838H         LINE#         111
  C:1857H         LINE#         112
  C:1867H         LINE#         113
  C:186DH         LINE#         114
  C:186DH         LINE#         115
  C:186DH         LINE#         117
  C:186DH         LINE#         118
  C:186DH         LINE#         119
  C:187AH         LINE#         120
  C:1884H         LINE#         121
  C:188EH         LINE#         122
  C:18ADH         LINE#         123
  C:18BDH         LINE#         124
  C:18C3H         LINE#         125
  C:18C3H         LINE#         126
  C:18C3H         LINE#         127
  C:18D0H         LINE#         128
BL51 BANKED LINKER/LOCATER V6.22                                                      12/16/2017  00:33:59  PAGE 17


  C:18DAH         LINE#         129
  C:18E4H         LINE#         130
  C:1903H         LINE#         131
  C:1913H         LINE#         132
  C:1919H         LINE#         133
  C:1919H         LINE#         134
  C:1919H         LINE#         136
  C:1919H         LINE#         137
  C:1919H         LINE#         138
  C:1926H         LINE#         139
  C:1930H         LINE#         140
  C:193AH         LINE#         141
  C:1944H         LINE#         142
  C:1963H         LINE#         143
  C:1973H         LINE#         144
  C:1979H         LINE#         145
  C:1979H         LINE#         146
  C:1979H         LINE#         148
  C:1979H         LINE#         149
  C:1979H         LINE#         151
  C:1979H         LINE#         152
  C:1979H         LINE#         153
  C:1986H         LINE#         154
  C:1990H         LINE#         155
  C:199AH         LINE#         156
  C:19B9H         LINE#         157
  C:19C9H         LINE#         158
  C:19CFH         LINE#         159
  C:19CFH         LINE#         160
  C:19CFH         LINE#         161
  C:19DCH         LINE#         162
  C:19E6H         LINE#         163
  C:19F0H         LINE#         164
  C:1A0FH         LINE#         165
  C:1A1FH         LINE#         166
  C:1A25H         LINE#         167
  C:1A25H         LINE#         168
  C:1A25H         LINE#         169
  C:1A32H         LINE#         170
  C:1A3CH         LINE#         171
  C:1A46H         LINE#         172
  C:1A62H         LINE#         173
  C:1A72H         LINE#         174
  C:1A78H         LINE#         175
  C:1A78H         LINE#         176
  C:1A78H         LINE#         178
  C:1A78H         LINE#         179
  C:1A78H         LINE#         181
  C:1A78H         LINE#         182
  C:1A78H         LINE#         183
  C:1A85H         LINE#         184
  C:1A8FH         LINE#         185
  C:1A99H         LINE#         186
  C:1AB5H         LINE#         187
  C:1AC5H         LINE#         188
  C:1ACBH         LINE#         189
  C:1ACBH         LINE#         190
BL51 BANKED LINKER/LOCATER V6.22                                                      12/16/2017  00:33:59  PAGE 18


  C:1ACBH         LINE#         191
  C:1ACBH         LINE#         192
  C:1ACBH         LINE#         193
  C:1ACBH         LINE#         194
  C:1ACBH         LINE#         195
  C:1ACBH         LINE#         196
  C:1ACBH         LINE#         197
  C:1ACBH         LINE#         198
  C:1ACBH         LINE#         199
  C:1ACFH         LINE#         200
  C:1AD2H         LINE#         201
  C:1AD2H         LINE#         202
  C:1AD2H         LINE#         204
  C:1AD2H         LINE#         205
  C:1AD2H         LINE#         206
  C:1AD8H         LINE#         207
  C:1ADAH         LINE#         208
  C:1ADFH         LINE#         209
  C:1AE9H         LINE#         210
  C:1AE9H         LINE#         212
  C:1AE9H         LINE#         214
  -------         ENDPROC       _APP_KEY_PRO
  -------         ENDMOD        APP_KEY

  -------         MODULE        APP_WORK
  C:0000H         SYMBOL        _ICE_DUMMY_
  D:0080H         PUBLIC        P0
  D:0090H         PUBLIC        P1
  D:00A0H         PUBLIC        P2
  D:00B0H         PUBLIC        P3
  D:00D8H         PUBLIC        P5
  D:00A8H         PUBLIC        IE
  D:00B8H         PUBLIC        IP
  C:4052H         SYMBOL        app_work_pro
  C:000EH         PUBLIC        app_work_1s_pro
  D:0098H         PUBLIC        SCON
  X:00C0H         SYMBOL        match_code_cnt
  D:0088H         PUBLIC        TCON
  D:00F8H         PUBLIC        SCON_1
  X:00C1H         SYMBOL        cnt
  D:00E8H         PUBLIC        ADCCON0
  D:00C0H         PUBLIC        I2CON
  C:3CC0H         PUBLIC        app_work_Init
  I:00BEH         PUBLIC        g_tWork
  D:00C8H         PUBLIC        T2CON
  C:4051H         PUBLIC        app_work_100ms_pro
  C:400DH         PUBLIC        app_work_cnt_clear
  D:00D0H         PUBLIC        PSW
  -------         PROC          APP_WORK_INIT
  C:3CC0H         LINE#         17
  C:3CC0H         LINE#         18
  C:3CC5H         LINE#         19
  C:3CC9H         LINE#         20
  C:3CD5H         LINE#         21
  -------         ENDPROC       APP_WORK_INIT
  -------         PROC          APP_WORK_1S_PRO
  C:000EH         LINE#         24
BL51 BANKED LINKER/LOCATER V6.22                                                      12/16/2017  00:33:59  PAGE 19


  C:000EH         LINE#         26
  C:0013H         LINE#         27
  C:0019H         LINE#         28
  C:001FH         LINE#         29
  C:0021H         LINE#         30
  C:0024H         LINE#         31
  C:0024H         LINE#         32
  C:0026H         LINE#         33
  C:002BH         LINE#         34
  C:002BH         LINE#         36
  C:0031H         LINE#         37
  C:0035H         LINE#         39
  C:0038H         LINE#         40
  C:003BH         LINE#         41
  C:003EH         LINE#         42
  C:0047H         LINE#         43
  C:0057H         LINE#         44
  C:0057H         LINE#         45
  -------         ENDPROC       APP_WORK_1S_PRO
  -------         PROC          APP_WORK_100MS_PRO
  C:4051H         LINE#         46
  C:4051H         LINE#         48
  -------         ENDPROC       APP_WORK_100MS_PRO
  -------         PROC          APP_WORK_CNT_CLEAR
  C:400DH         LINE#         49
  C:400DH         LINE#         50
  C:4012H         LINE#         51
  -------         ENDPROC       APP_WORK_CNT_CLEAR
  -------         PROC          APP_WORK_PRO
  C:4052H         LINE#         52
  C:4052H         LINE#         54
  -------         ENDPROC       APP_WORK_PRO
  -------         ENDMOD        APP_WORK

  -------         MODULE        APP_REPEAT_EXE
  C:0000H         SYMBOL        _ICE_DUMMY_
  D:0080H         PUBLIC        P0
  D:0090H         PUBLIC        P1
  D:00A0H         PUBLIC        P2
  D:00B0H         PUBLIC        P3
  C:3EBDH         PUBLIC        _Repeat_SetStart
  D:00D8H         PUBLIC        P5
  D:00A8H         PUBLIC        IE
  C:3F0EH         PUBLIC        app_repeat_IsEnable
  C:3DC3H         SYMBOL        Repeat_Stop_exe
  D:00B8H         PUBLIC        IP
  C:3EC9H         PUBLIC        _Repeat_SetStop
  X:0055H         SYMBOL        g_tRepeat
  D:0098H         PUBLIC        SCON
  D:0088H         PUBLIC        TCON
  D:00F8H         PUBLIC        SCON_1
  C:394EH         PUBLIC        _Repeat_Start
  D:00E8H         PUBLIC        ADCCON0
  D:00C0H         PUBLIC        I2CON
  D:00C8H         PUBLIC        T2CON
  C:3D19H         PUBLIC        Repeat_Stop
  C:2C30H         PUBLIC        Repeat_Pro
BL51 BANKED LINKER/LOCATER V6.22                                                      12/16/2017  00:33:59  PAGE 20


  C:3DB3H         SYMBOL        Repeat_Start_exe
  D:00D0H         PUBLIC        PSW
  -------         PROC          _REPEAT_SETSTART
  D:0001H         SYMBOL        fun
  C:3EBDH         LINE#         12
  C:3EBDH         LINE#         13
  C:3EC8H         LINE#         14
  -------         ENDPROC       _REPEAT_SETSTART
  -------         PROC          _REPEAT_SETSTOP
  D:0001H         SYMBOL        fun
  C:3EC9H         LINE#         16
  C:3EC9H         LINE#         17
  C:3ED4H         LINE#         18
  -------         ENDPROC       _REPEAT_SETSTOP
  -------         PROC          REPEAT_START_EXE
  C:3DB3H         LINE#         20
  C:3DB3H         LINE#         21
  C:3DBFH         LINE#         22
  C:3DC2H         LINE#         23
  C:3DC2H         LINE#         24
  -------         ENDPROC       REPEAT_START_EXE
  -------         PROC          REPEAT_STOP_EXE
  C:3DC3H         LINE#         26
  C:3DC3H         LINE#         27
  C:3DCFH         LINE#         28
  C:3DD2H         LINE#         29
  C:3DD2H         LINE#         30
  -------         ENDPROC       REPEAT_STOP_EXE
  -------         PROC          _REPEAT_START
  D:0006H         SYMBOL        _usStartTime
  D:0004H         SYMBOL        _usStopTime
  D:0002H         SYMBOL        _usCycle
  C:394EH         LINE#         42
  C:394EH         LINE#         43
  C:394EH         LINE#         44
  C:3952H         LINE#         46
  C:3952H         LINE#         48
  C:395AH         LINE#         49
  C:3962H         LINE#         50
  C:396AH         LINE#         51
  C:396FH         LINE#         52
  C:3973H         LINE#         53
  C:3977H         LINE#         54
  C:397CH         LINE#         56
  C:397FH         LINE#         57
  -------         ENDPROC       _REPEAT_START
  -------         PROC          REPEAT_STOP
  C:3D19H         LINE#         67
  C:3D19H         LINE#         68
  C:3D1EH         LINE#         69
  C:3D21H         LINE#         70
  C:3D2AH         LINE#         71
  -------         ENDPROC       REPEAT_STOP
  -------         PROC          APP_REPEAT_ISENABLE
  C:3F0EH         LINE#         75
  C:3F0EH         LINE#         76
  C:3F14H         LINE#         77
BL51 BANKED LINKER/LOCATER V6.22                                                      12/16/2017  00:33:59  PAGE 21


  C:3F16H         LINE#         78
  C:3F16H         LINE#         79
  C:3F17H         LINE#         80
  -------         ENDPROC       APP_REPEAT_ISENABLE
  -------         PROC          REPEAT_PRO
  C:2C30H         LINE#         90
  C:2C30H         LINE#         92
  C:2C47H         LINE#         94
  C:2C47H         LINE#         96
  C:2C4DH         LINE#         97
  C:2C59H         LINE#         98
  C:2C59H         LINE#         99
  C:2C72H         LINE#         100
  C:2C75H         LINE#         101
  C:2C7CH         LINE#         102
  C:2C81H         LINE#         103
  C:2C81H         LINE#         104
  C:2C82H         LINE#         106
  C:2C82H         LINE#         107
  C:2C8AH         LINE#         108
  C:2CA2H         LINE#         110
  C:2CB1H         LINE#         111
  C:2CC4H         LINE#         113
  C:2CC9H         LINE#         114
  C:2CC9H         LINE#         116
  C:2CCFH         LINE#         117
  C:2CD6H         LINE#         119
  C:2CD6H         LINE#         120
  C:2CD6H         LINE#         121
  C:2CDDH         LINE#         122
  C:2CE1H         LINE#         124
  C:2CE4H         LINE#         125
  C:2CE4H         LINE#         126
  C:2CE4H         LINE#         128
  -------         ENDPROC       REPEAT_PRO
  -------         ENDMOD        APP_REPEAT_EXE

  -------         MODULE        APP_2D4
  C:0000H         SYMBOL        _ICE_DUMMY_
  D:0080H         PUBLIC        P0
  D:0090H         PUBLIC        P1
  D:00A0H         PUBLIC        P2
  D:00B0H         PUBLIC        P3
  C:3ACCH         PUBLIC        app_2d4_init
  D:00D8H         PUBLIC        P5
  C:3E00H         SYMBOL        BT_prev_show_lcd_resp
  D:00A8H         PUBLIC        IE
  C:3E1EH         SYMBOL        LED_clear_blink_name_show_lcd_resp
  C:3DF1H         SYMBOL        BT_next_show_lcd_resp
  C:387AH         PUBLIC        app_2d4_switch_public_address
  C:3CD8H         SYMBOL        speaker_status_resp
  D:00B8H         PUBLIC        IP
  C:2F52H         PUBLIC        app_2d4_pro
  C:3ED5H         PUBLIC        app_2d4_switch_saved_address
  C:36B1H         PUBLIC        _app_get_saved_address
  D:0098H         PUBLIC        SCON
  D:0088H         PUBLIC        TCON
BL51 BANKED LINKER/LOCATER V6.22                                                      12/16/2017  00:33:59  PAGE 22


  C:3980H         SYMBOL        USB_track_show_lcd_resp
  C:3DD3H         SYMBOL        clear_lcd_resp
  C:3DE2H         SYMBOL        USB_pause_show_lcd_resp
  C:2997H         SYMBOL        _?ix1000
  C:29A7H         SYMBOL        _?ix1001
  C:29ACH         SYMBOL        _?ix1002
  D:00F8H         PUBLIC        SCON_1
  C:3CEEH         SYMBOL        relay_status_resp
  C:3E0FH         SYMBOL        LED_show_blink_name_show_lcd_resp
  I:009DH         PUBLIC        sendBuf
  C:38E8H         SYMBOL        FM_station_show_lcd_resp
  I:00ADH         SYMBOL        sendRcv_flag
  D:00E8H         PUBLIC        ADCCON0
  D:00C0H         PUBLIC        I2CON
  C:3F34H         SYMBOL        AUX_mute_show_lcd_resp
  D:00C8H         PUBLIC        T2CON
  I:00AEH         SYMBOL        rcvBuf
  C:3F2BH         SYMBOL        BT_pause_show_lcd_resp
  C:36F4H         SYMBOL        vol_resp
  X:0078H         SYMBOL        tmpBuf
  C:005EH         SYMBOL        _app_2d4_Rcv
  C:361BH         PUBLIC        _app_2d4_send
  D:00D0H         PUBLIC        PSW
  -------         PROC          APP_2D4_INIT
  C:3ACCH         LINE#         23
  C:3ACCH         LINE#         25
  C:3AD0H         LINE#         26
  C:3ADCH         LINE#         27
  C:3AEBH         LINE#         29
  C:3AEEH         LINE#         30
  -------         ENDPROC       APP_2D4_INIT
  -------         PROC          _APP_GET_SAVED_ADDRESS
  X:000AH         SYMBOL        addr
  -------         DO            
  X:000DH         SYMBOL        i
  -------         ENDDO         
  C:36B1H         LINE#         35
  C:36BCH         LINE#         36
  C:36BFH         LINE#         37
  C:36CAH         LINE#         38
  C:36EBH         LINE#         39
  C:36F3H         LINE#         40
  -------         ENDPROC       _APP_GET_SAVED_ADDRESS
  -------         PROC          APP_2D4_SWITCH_PUBLIC_ADDRESS
  C:387AH         LINE#         41
  C:387AH         LINE#         42
  C:388DH         LINE#         44
  C:3891H         LINE#         45
  C:389DH         LINE#         46
  C:38ACH         LINE#         48
  C:38AFH         LINE#         49
  -------         ENDPROC       APP_2D4_SWITCH_PUBLIC_ADDRESS
  -------         PROC          APP_2D4_SWITCH_SAVED_ADDRESS
  C:3ED5H         LINE#         51
  C:3ED5H         LINE#         52
  C:3EDEH         LINE#         53
  -------         ENDPROC       APP_2D4_SWITCH_SAVED_ADDRESS
BL51 BANKED LINKER/LOCATER V6.22                                                      12/16/2017  00:33:59  PAGE 23


  -------         PROC          _APP_2D4_SEND
  X:0005H         SYMBOL        d
  X:0008H         SYMBOL        len
  C:361BH         LINE#         55
  C:3629H         LINE#         57
  C:362EH         LINE#         59
  C:362EH         LINE#         61
  C:3631H         LINE#         62
  C:3635H         LINE#         64
  C:3650H         LINE#         65
  C:366BH         LINE#         66
  C:366BH         LINE#         68
  -------         ENDPROC       _APP_2D4_SEND
  -------         PROC          SPEAKER_STATUS_RESP
  C:3CD8H         LINE#         69
  C:3CD8H         LINE#         70
  C:3CE0H         LINE#         71
  C:3CE4H         LINE#         72
  C:3CE6H         LINE#         73
  C:3CEDH         LINE#         74
  C:3CEDH         LINE#         75
  -------         ENDPROC       SPEAKER_STATUS_RESP
  -------         PROC          RELAY_STATUS_RESP
  C:3CEEH         LINE#         76
  C:3CEEH         LINE#         77
  C:3CF6H         LINE#         78
  C:3CFAH         LINE#         79
  C:3CFCH         LINE#         80
  C:3D03H         LINE#         81
  C:3D03H         LINE#         83
  -------         ENDPROC       RELAY_STATUS_RESP
  -------         PROC          VOL_RESP
  -------         DO            
  X:000AH         SYMBOL        str
  -------         ENDDO         
  C:36F4H         LINE#         84
  C:36F4H         LINE#         85
  C:3707H         LINE#         88
  C:370AH         LINE#         89
  C:370DH         LINE#         91
  C:372EH         LINE#         92
  -------         ENDPROC       VOL_RESP
  -------         PROC          CLEAR_LCD_RESP
  C:3DD3H         LINE#         95
  C:3DD3H         LINE#         96
  C:3DDCH         LINE#         98
  C:3DDFH         LINE#         99
  -------         ENDPROC       CLEAR_LCD_RESP
  -------         PROC          BT_PAUSE_SHOW_LCD_RESP
  C:3F2BH         LINE#         101
  C:3F2BH         LINE#         102
  -------         ENDPROC       BT_PAUSE_SHOW_LCD_RESP
  -------         PROC          AUX_MUTE_SHOW_LCD_RESP
  C:3F34H         LINE#         122
  C:3F34H         LINE#         123
  -------         ENDPROC       AUX_MUTE_SHOW_LCD_RESP
  -------         PROC          USB_PAUSE_SHOW_LCD_RESP
BL51 BANKED LINKER/LOCATER V6.22                                                      12/16/2017  00:33:59  PAGE 24


  C:3DE2H         LINE#         126
  C:3DE2H         LINE#         127
  C:3DEBH         LINE#         128
  C:3DEEH         LINE#         129
  -------         ENDPROC       USB_PAUSE_SHOW_LCD_RESP
  -------         PROC          BT_NEXT_SHOW_LCD_RESP
  C:3DF1H         LINE#         138
  C:3DF1H         LINE#         139
  C:3DFAH         LINE#         140
  C:3DFDH         LINE#         141
  -------         ENDPROC       BT_NEXT_SHOW_LCD_RESP
  -------         PROC          BT_PREV_SHOW_LCD_RESP
  C:3E00H         LINE#         143
  C:3E00H         LINE#         144
  C:3E09H         LINE#         145
  C:3E0CH         LINE#         146
  -------         ENDPROC       BT_PREV_SHOW_LCD_RESP
  -------         PROC          FM_STATION_SHOW_LCD_RESP
  C:38E8H         LINE#         148
  C:38E8H         LINE#         149
  C:3909H         LINE#         150
  C:3912H         LINE#         151
  C:3915H         LINE#         152
  C:3918H         LINE#         153
  -------         ENDPROC       FM_STATION_SHOW_LCD_RESP
  -------         PROC          USB_TRACK_SHOW_LCD_RESP
  C:3980H         LINE#         155
  C:3980H         LINE#         156
  C:39A3H         LINE#         157
  C:39ACH         LINE#         158
  C:39AFH         LINE#         159
  -------         ENDPROC       USB_TRACK_SHOW_LCD_RESP
  -------         PROC          LED_SHOW_BLINK_NAME_SHOW_LCD_RESP
  C:3E0FH         LINE#         161
  C:3E0FH         LINE#         163
  C:3E18H         LINE#         165
  C:3E1BH         LINE#         166
  -------         ENDPROC       LED_SHOW_BLINK_NAME_SHOW_LCD_RESP
  -------         PROC          LED_CLEAR_BLINK_NAME_SHOW_LCD_RESP
  C:3E1EH         LINE#         168
  C:3E1EH         LINE#         170
  C:3E27H         LINE#         171
  C:3E2AH         LINE#         172
  -------         ENDPROC       LED_CLEAR_BLINK_NAME_SHOW_LCD_RESP
  -------         PROC          _APP_2D4_RCV
  X:0003H         SYMBOL        buf
  -------         DO            
  X:0006H         SYMBOL        i
  X:0007H         SYMBOL        index
  X:0008H         SYMBOL        check
  -------         DO            
  X:0009H         SYMBOL        eq
  I:000FH         SYMBOL        address_saved_tmp
  I:0014H         SYMBOL        address_sended_tmp
  -------         ENDDO         
  -------         DO            
  B:0021H.1       SYMBOL        aux_pause_lock
BL51 BANKED LINKER/LOCATER V6.22                                                      12/16/2017  00:33:59  PAGE 25


  -------         ENDDO         
  -------         ENDDO         
  C:005EH         LINE#         177
  C:0069H         LINE#         178
  C:006CH         LINE#         179
  C:006EH         LINE#         180
  C:0070H         LINE#         182
  C:007AH         LINE#         184
  C:007AH         LINE#         186
  C:0093H         LINE#         188
  C:0093H         LINE#         189
  C:00BFH         LINE#         190
  C:00D4H         LINE#         191
  C:00DCH         LINE#         192
  C:0102H         LINE#         194
  C:0102H         LINE#         200
  C:0111H         LINE#         201
  C:0116H         LINE#         202
  C:0119H         LINE#         204
  C:015EH         LINE#         205
  C:015EH         LINE#         206
  C:0163H         LINE#         208
  C:0174H         LINE#         210
  C:0187H         LINE#         212
  C:0196H         LINE#         213
  C:01A5H         LINE#         215
  C:01AEH         LINE#         216
  C:01CBH         LINE#         218
  C:01D1H         LINE#         219
  C:01D6H         LINE#         220
  C:01E6H         LINE#         221
  C:01EBH         LINE#         222
  C:01EDH         LINE#         223
  C:01EDH         LINE#         224
  C:01F7H         LINE#         225
  C:01FDH         LINE#         226
  C:0202H         LINE#         227
  C:0211H         LINE#         229
  C:0223H         LINE#         230
  C:0223H         LINE#         231
  C:0227H         LINE#         233
  C:022AH         LINE#         234
  C:022AH         LINE#         235
  C:022DH         LINE#         236
  C:022DH         LINE#         240
  C:0230H         LINE#         242
  C:0233H         LINE#         243
  C:0236H         LINE#         244
  C:0239H         LINE#         245
  C:023CH         LINE#         246
  C:023FH         LINE#         247
  C:025EH         LINE#         248
  C:025EH         LINE#         249
  C:0261H         LINE#         250
  C:0263H         LINE#         251
  C:0263H         LINE#         252
  C:0266H         LINE#         253
BL51 BANKED LINKER/LOCATER V6.22                                                      12/16/2017  00:33:59  PAGE 26


  C:0268H         LINE#         254
  C:0268H         LINE#         255
  C:026BH         LINE#         256
  C:026DH         LINE#         257
  C:026DH         LINE#         258
  C:0270H         LINE#         259
  C:0270H         LINE#         260
  C:0270H         LINE#         261
  C:0270H         LINE#         262
  C:0270H         LINE#         263
  C:0270H         LINE#         264
  C:0270H         LINE#         266
  C:027FH         LINE#         267
  C:029CH         LINE#         268
  C:02B5H         LINE#         270
  C:02C8H         LINE#         271
  C:02D1H         LINE#         272
  C:02DAH         LINE#         273
  C:02E2H         LINE#         274
  C:02E2H         LINE#         275
  C:02E2H         LINE#         276
  C:02E5H         LINE#         277
  C:02EDH         LINE#         278
  C:02EDH         LINE#         279
  C:02EDH         LINE#         280
  C:02EDH         LINE#         282
  C:02EDH         LINE#         283
  C:02F0H         LINE#         284
  C:02F0H         LINE#         285
  C:02F3H         LINE#         287
  C:02F6H         LINE#         288
  C:02F9H         LINE#         290
  C:02FCH         LINE#         291
  C:02FFH         LINE#         292
  C:0302H         LINE#         293
  C:0305H         LINE#         294
  C:0308H         LINE#         296
  C:031DH         LINE#         297
  C:0323H         LINE#         298
  C:032CH         LINE#         299
  C:0335H         LINE#         300
  C:033FH         LINE#         301
  C:035AH         LINE#         302
  C:0360H         LINE#         303
  C:0369H         LINE#         304
  C:0372H         LINE#         305
  C:037AH         LINE#         306
  C:037AH         LINE#         307
  C:037DH         LINE#         308
  C:037DH         LINE#         329
  C:037DH         LINE#         330
  C:037DH         LINE#         331
  C:039BH         LINE#         332
  C:039BH         LINE#         334
  C:03A2H         LINE#         335
  C:03A5H         LINE#         336
  C:03A9H         LINE#         337
BL51 BANKED LINKER/LOCATER V6.22                                                      12/16/2017  00:33:59  PAGE 27


  C:03A9H         LINE#         338
  C:03ACH         LINE#         339
  C:03AFH         LINE#         340
  C:03B2H         LINE#         341
  C:03B5H         LINE#         343
  C:03B8H         LINE#         344
  C:03CCH         LINE#         345
  C:03D9H         LINE#         346
  C:03EFH         LINE#         347
  C:03FCH         LINE#         348
  C:0412H         LINE#         349
  C:041FH         LINE#         350
  C:0435H         LINE#         351
  C:044CH         LINE#         352
  C:044CH         LINE#         353
  C:044CH         LINE#         354
  C:044FH         LINE#         355
  C:044FH         LINE#         356
  C:0452H         LINE#         357
  C:0455H         LINE#         360
  C:0495H         LINE#         364
  C:0498H         LINE#         365
  C:0498H         LINE#         367
  C:0498H         LINE#         368
  C:0498H         LINE#         370
  C:0498H         LINE#         371
  C:0498H         LINE#         373
  C:0498H         LINE#         374
  C:0498H         LINE#         375
  C:0498H         LINE#         376
  C:0498H         LINE#         377
  C:0498H         LINE#         378
  C:0498H         LINE#         379
  C:04C6H         LINE#         380
  C:04C6H         LINE#         381
  C:04CFH         LINE#         382
  C:04CFH         LINE#         388
  C:04EAH         LINE#         389
  C:04F3H         LINE#         390
  C:04FCH         LINE#         391
  C:0504H         LINE#         392
  C:0504H         LINE#         393
  C:0507H         LINE#         394
  C:0507H         LINE#         395
  C:051CH         LINE#         396
  C:0529H         LINE#         397
  C:0529H         LINE#         398
  C:053EH         LINE#         402
  C:053EH         LINE#         403
  C:0541H         LINE#         404
  C:0541H         LINE#         405
  C:0541H         LINE#         407
  C:0544H         LINE#         408
  C:0547H         LINE#         410
  C:054AH         LINE#         411
  C:054DH         LINE#         412
  C:0550H         LINE#         413
BL51 BANKED LINKER/LOCATER V6.22                                                      12/16/2017  00:33:59  PAGE 28


  C:0553H         LINE#         414
  C:0556H         LINE#         416
  C:0559H         LINE#         417
  C:056EH         LINE#         418
  C:0571H         LINE#         419
  C:0574H         LINE#         420
  C:0576H         LINE#         421
  C:0576H         LINE#         422
  C:058DH         LINE#         423
  C:058DH         LINE#         424
  C:05A8H         LINE#         425
  C:05AAH         LINE#         426
  C:05B3H         LINE#         427
  C:05BCH         LINE#         428
  C:05C4H         LINE#         429
  C:05C4H         LINE#         430
  C:05C4H         LINE#         431
  C:05C7H         LINE#         432
  C:05C7H         LINE#         433
  C:05DBH         LINE#         434
  C:05DEH         LINE#         438
  C:05F9H         LINE#         439
  C:0602H         LINE#         440
  C:060BH         LINE#         441
  C:0613H         LINE#         442
  C:0613H         LINE#         443
  C:0616H         LINE#         444
  C:0616H         LINE#         445
  C:062BH         LINE#         446
  C:063FH         LINE#         447
  C:0648H         LINE#         448
  C:0651H         LINE#         449
  C:0659H         LINE#         451
  C:065CH         LINE#         452
  C:065CH         LINE#         456
  C:065CH         LINE#         457
  C:065FH         LINE#         458
  C:065FH         LINE#         459
  C:065FH         LINE#         460
  C:065FH         LINE#         461
  C:065FH         LINE#         462
  C:065FH         LINE#         463
  C:0688H         LINE#         464
  C:0688H         LINE#         465
  C:0691H         LINE#         466
  C:069AH         LINE#         467
  C:06A3H         LINE#         468
  C:06ADH         LINE#         469
  C:06C8H         LINE#         470
  C:06D1H         LINE#         471
  C:06DAH         LINE#         472
  C:06E4H         LINE#         473
  C:06E4H         LINE#         474
  C:06E7H         LINE#         475
  C:06E7H         LINE#         476
  C:06EAH         LINE#         477
  C:06FEH         LINE#         478
BL51 BANKED LINKER/LOCATER V6.22                                                      12/16/2017  00:33:59  PAGE 29


  C:0707H         LINE#         479
  C:0710H         LINE#         480
  C:071AH         LINE#         481
  C:071DH         LINE#         482
  C:071DH         LINE#         483
  C:071DH         LINE#         484
  C:071DH         LINE#         485
  C:0734H         LINE#         486
  C:0741H         LINE#         487
  C:074AH         LINE#         488
  C:0753H         LINE#         489
  C:075DH         LINE#         491
  C:0760H         LINE#         492
  C:0760H         LINE#         493
  C:076CH         LINE#         494
  C:076FH         LINE#         495
  C:076FH         LINE#         496
  C:076FH         LINE#         497
  C:076FH         LINE#         498
  C:076FH         LINE#         499
  C:076FH         LINE#         500
  C:076FH         LINE#         501
  C:076FH         LINE#         502
  C:0776H         LINE#         503
  C:0779H         LINE#         504
  C:077DH         LINE#         505
  C:077DH         LINE#         506
  C:0780H         LINE#         507
  C:0783H         LINE#         508
  C:0786H         LINE#         509
  C:0789H         LINE#         511
  C:078CH         LINE#         512
  C:07A8H         LINE#         513
  C:07B1H         LINE#         514
  C:07B3H         LINE#         516
  C:07EEH         LINE#         517
  C:07EEH         LINE#         518
  C:0804H         LINE#         519
  C:0807H         LINE#         520
  C:0807H         LINE#         521
  C:080EH         LINE#         522
  C:0811H         LINE#         523
  C:0815H         LINE#         524
  C:0815H         LINE#         526
  C:0818H         LINE#         527
  C:081BH         LINE#         528
  C:081EH         LINE#         529
  C:0821H         LINE#         531
  C:0824H         LINE#         532
  C:0827H         LINE#         534
  C:083EH         LINE#         535
  C:084CH         LINE#         536
  C:086AH         LINE#         537
  C:0873H         LINE#         538
  C:0875H         LINE#         539
  C:08B0H         LINE#         540
  C:08B0H         LINE#         541
BL51 BANKED LINKER/LOCATER V6.22                                                      12/16/2017  00:33:59  PAGE 30


  C:08C6H         LINE#         542
  C:08C9H         LINE#         543
  C:08C9H         LINE#         544
  C:08DFH         LINE#         545
  C:08E8H         LINE#         546
  C:08F1H         LINE#         547
  C:08FBH         LINE#         548
  C:08FEH         LINE#         550
  C:08FEH         LINE#         551
  C:0913H         LINE#         552
  C:0927H         LINE#         553
  C:0930H         LINE#         554
  C:0939H         LINE#         555
  C:0941H         LINE#         556
  C:0944H         LINE#         557
  C:095EH         LINE#         558
  C:0967H         LINE#         559
  C:0970H         LINE#         560
  C:097AH         LINE#         561
  C:097AH         LINE#         562
  C:097DH         LINE#         563
  C:097DH         LINE#         564
  C:0980H         LINE#         565
  C:0983H         LINE#         566
  C:0999H         LINE#         567
  C:099DH         LINE#         568
  C:099FH         LINE#         569
  C:09A3H         LINE#         570
  C:09A3H         LINE#         571
  C:09ACH         LINE#         572
  C:09B5H         LINE#         573
  C:09BFH         LINE#         574
  C:09C2H         LINE#         575
  C:09C2H         LINE#         588
  C:09DAH         LINE#         589
  C:09DDH         LINE#         590
  C:09F2H         LINE#         591
  C:0A06H         LINE#         592
  C:0A15H         LINE#         593
  C:0A22H         LINE#         594
  C:0A32H         LINE#         595
  C:0A32H         LINE#         596
  C:0A3AH         LINE#         597
  C:0A43H         LINE#         598
  C:0A4CH         LINE#         599
  C:0A55H         LINE#         600
  C:0A58H         LINE#         602
  C:0A6FH         LINE#         607
  C:0A6FH         LINE#         608
  C:0A72H         LINE#         609
  C:0A75H         LINE#         610
  C:0A75H         LINE#         611
  C:0A78H         LINE#         612
  C:0A78H         LINE#         613
  C:0A95H         LINE#         614
  C:0AAFH         LINE#         615
  C:0AB8H         LINE#         616
BL51 BANKED LINKER/LOCATER V6.22                                                      12/16/2017  00:33:59  PAGE 31


  C:0AC1H         LINE#         617
  C:0ACDH         LINE#         618
  C:0ACFH         LINE#         619
  C:0ACFH         LINE#         620
  C:0AECH         LINE#         621
  C:0B06H         LINE#         622
  C:0B0FH         LINE#         623
  C:0B18H         LINE#         624
  C:0B27H         LINE#         625
  C:0B2AH         LINE#         626
  C:0B2AH         LINE#         627
  C:0B2DH         LINE#         628
  C:0B30H         LINE#         629
  C:0B33H         LINE#         630
  C:0B36H         LINE#         631
  C:0B39H         LINE#         632
  C:0B3CH         LINE#         633
  C:0B3FH         LINE#         635
  C:0B5BH         LINE#         636
  C:0B5BH         LINE#         637
  C:0B5EH         LINE#         638
  C:0B72H         LINE#         639
  C:0B7EH         LINE#         640
  C:0B94H         LINE#         641
  C:0BA3H         LINE#         642
  C:0BA3H         LINE#         643
  C:0BB9H         LINE#         644
  C:0BBBH         LINE#         645
  C:0BBBH         LINE#         647
  C:0BBBH         LINE#         648
  C:0BBBH         LINE#         649
  C:0BBEH         LINE#         650
  C:0BD2H         LINE#         651
  C:0BDEH         LINE#         652
  C:0BF4H         LINE#         653
  C:0C03H         LINE#         654
  C:0C03H         LINE#         655
  C:0C1CH         LINE#         656
  C:0C1CH         LINE#         657
  C:0C1CH         LINE#         659
  C:0C1CH         LINE#         660
  C:0C1CH         LINE#         661
  C:0C1CH         LINE#         662
  C:0C1CH         LINE#         664
  C:0C22H         LINE#         665
  C:0C24H         LINE#         667
  C:0C24H         LINE#         669
  -------         ENDPROC       _APP_2D4_RCV
  -------         PROC          APP_2D4_PRO
  -------         DO            
  X:0002H         SYMBOL        i
  -------         ENDDO         
  C:2F52H         LINE#         671
  C:2F52H         LINE#         672
  C:2F57H         LINE#         673
  C:2F5CH         LINE#         674
  C:2F6CH         LINE#         675
BL51 BANKED LINKER/LOCATER V6.22                                                      12/16/2017  00:33:59  PAGE 32


  C:2F6CH         LINE#         677
  C:2F6FH         LINE#         678
  C:2F72H         LINE#         680
  C:2F76H         LINE#         682
  C:2F7AH         LINE#         683
  C:2F7BH         LINE#         684
  C:2F7CH         LINE#         685
  C:2F86H         LINE#         687
  C:2F89H         LINE#         689
  C:2F8EH         LINE#         690
  C:2F8FH         LINE#         691
  C:2F90H         LINE#         692
  C:2F9BH         LINE#         695
  C:2F9BH         LINE#         696
  C:2F9BH         LINE#         698
  C:2F9BH         LINE#         699
  C:2F9BH         LINE#         700
  C:2F9DH         LINE#         701
  C:2F9DH         LINE#         703
  C:2FA0H         LINE#         704
  C:2FA3H         LINE#         705
  C:2FA3H         LINE#         706
  C:2FA3H         LINE#         708
  C:2FA8H         LINE#         709
  C:2FA9H         LINE#         710
  C:2FAAH         LINE#         711
  C:2FB4H         LINE#         713
  C:2FBFH         LINE#         715
  C:2FBFH         LINE#         716
  C:2FBFH         LINE#         718
  C:2FBFH         LINE#         719
  C:2FCDH         LINE#         721
  C:2FD6H         LINE#         722
  C:2FD6H         LINE#         724
  C:2FD6H         LINE#         726
  -------         ENDPROC       APP_2D4_PRO
  -------         ENDMOD        APP_2D4

  -------         MODULE        APP_LCD
  C:0000H         SYMBOL        _ICE_DUMMY_
  D:0080H         PUBLIC        P0
  D:0090H         PUBLIC        P1
  D:00A0H         PUBLIC        P2
  D:00B0H         PUBLIC        P3
  D:00D8H         PUBLIC        P5
  C:37BDH         PUBLIC        app_lcd_pro
  D:00A8H         PUBLIC        IE
  D:00B8H         PUBLIC        IP
  D:0098H         PUBLIC        SCON
  D:0088H         PUBLIC        TCON
  X:0067H         SYMBOL        dotn
  D:00F8H         PUBLIC        SCON_1
  C:35C8H         PUBLIC        _app_lcd_default_string_set
  D:00E8H         PUBLIC        ADCCON0
  D:00C0H         PUBLIC        I2CON
  D:00C8H         PUBLIC        T2CON
  C:3D2DH         PUBLIC        app_lcd_init
BL51 BANKED LINKER/LOCATER V6.22                                                      12/16/2017  00:33:59  PAGE 33


  X:0068H         SYMBOL        lcd_default_string
  D:00D0H         PUBLIC        PSW
  -------         PROC          APP_LCD_INIT
  C:3D2DH         LINE#         13
  C:3D2DH         LINE#         14
  C:3D32H         LINE#         15
  -------         ENDPROC       APP_LCD_INIT
  -------         PROC          _APP_LCD_DEFAULT_STRING_SET
  X:000AH         SYMBOL        s
  X:000DH         SYMBOL        len
  X:000EH         SYMBOL        _dotn
  C:35C8H         LINE#         17
  C:35D6H         LINE#         18
  C:35FCH         LINE#         19
  C:3606H         LINE#         20
  C:3612H         LINE#         21
  C:3612H         LINE#         22
  C:361AH         LINE#         23
  -------         ENDPROC       _APP_LCD_DEFAULT_STRING_SET
  -------         PROC          APP_LCD_PRO
  C:37BDH         LINE#         25
  C:37BDH         LINE#         27
  C:37C2H         LINE#         28
  C:37CBH         LINE#         29
  C:37D1H         LINE#         30
  C:37D4H         LINE#         31
  C:37D7H         LINE#         32
  C:37DEH         LINE#         33
  C:37E1H         LINE#         34
  C:37E1H         LINE#         35
  C:37EAH         LINE#         36
  C:37EDH         LINE#         37
  C:37F0H         LINE#         39
  C:37F7H         LINE#         40
  C:37FAH         LINE#         41
  C:37FDH         LINE#         42
  C:37FDH         LINE#         43
  C:37FDH         LINE#         45
  -------         ENDPROC       APP_LCD_PRO
  -------         ENDMOD        APP_LCD

  -------         MODULE        APP_EEPROM
  C:0000H         SYMBOL        _ICE_DUMMY_
  D:0080H         PUBLIC        P0
  D:0090H         PUBLIC        P1
  D:00A0H         PUBLIC        P2
  D:00B0H         PUBLIC        P3
  D:00D8H         PUBLIC        P5
  D:00A8H         PUBLIC        IE
  D:00B8H         PUBLIC        IP
  C:3EEDH         PUBLIC        _app_eeprom_erase
  C:4053H         PUBLIC        app_eeprom_Init
  D:0098H         PUBLIC        SCON
  D:0088H         PUBLIC        TCON
  C:4054H         PUBLIC        app_eeprom_100ms_pro
  C:403DH         PUBLIC        _app_eeprom_read_byte
  D:00F8H         PUBLIC        SCON_1
BL51 BANKED LINKER/LOCATER V6.22                                                      12/16/2017  00:33:59  PAGE 34


  C:3EF8H         PUBLIC        _app_eeprom_write_byte
  D:00E8H         PUBLIC        ADCCON0
  D:00C0H         PUBLIC        I2CON
  C:3D55H         PUBLIC        _app_eeprom_write_buf
  C:4055H         SYMBOL        app_eeprom_pro
  D:00C8H         PUBLIC        T2CON
  D:00D0H         PUBLIC        PSW
  -------         PROC          APP_EEPROM_INIT
  C:4053H         LINE#         10
  C:4053H         LINE#         12
  -------         ENDPROC       APP_EEPROM_INIT
  -------         PROC          _APP_EEPROM_ERASE
  D:0006H         SYMBOL        addr
  C:3EEDH         LINE#         14
  C:3EEDH         LINE#         15
  -------         ENDPROC       _APP_EEPROM_ERASE
  -------         PROC          _APP_EEPROM_WRITE_BYTE
  D:0006H         SYMBOL        addr
  D:0005H         SYMBOL        d
  C:3EF8H         LINE#         17
  C:3EF8H         LINE#         18
  -------         ENDPROC       _APP_EEPROM_WRITE_BYTE
  -------         PROC          _APP_EEPROM_WRITE_BUF
  D:0006H         SYMBOL        addr
  D:0001H         SYMBOL        pt
  X:000FH         SYMBOL        len
  C:3D55H         LINE#         20
  C:3D55H         LINE#         21
  -------         ENDPROC       _APP_EEPROM_WRITE_BUF
  -------         PROC          _APP_EEPROM_READ_BYTE
  D:0006H         SYMBOL        addr
  C:403DH         LINE#         23
  C:403DH         LINE#         24
  C:4040H         LINE#         25
  -------         ENDPROC       _APP_EEPROM_READ_BYTE
  -------         PROC          APP_EEPROM_100MS_PRO
  C:4054H         LINE#         26
  C:4054H         LINE#         28
  -------         ENDPROC       APP_EEPROM_100MS_PRO
  -------         PROC          APP_EEPROM_PRO
  C:4055H         LINE#         30
  C:4055H         LINE#         32
  -------         ENDPROC       APP_EEPROM_PRO
  -------         ENDMOD        APP_EEPROM

  -------         MODULE        BSP
  C:0000H         SYMBOL        _ICE_DUMMY_
  D:0080H         PUBLIC        P0
  D:0090H         PUBLIC        P1
  D:00A0H         PUBLIC        P2
  D:00B0H         PUBLIC        P3
  D:00D8H         PUBLIC        P5
  B:00A8H.7       PUBLIC        EA
  D:00A8H         PUBLIC        IE
  D:00B8H         PUBLIC        IP
  B:0021H.2       PUBLIC        BIT_TMP
  D:0098H         PUBLIC        SCON
BL51 BANKED LINKER/LOCATER V6.22                                                      12/16/2017  00:33:59  PAGE 35


  D:0088H         PUBLIC        TCON
  C:3C3CH         PUBLIC        bsp_Init
  D:00F8H         PUBLIC        SCON_1
  D:00E8H         PUBLIC        ADCCON0
  D:00C0H         PUBLIC        I2CON
  D:00C8H         PUBLIC        T2CON
  D:00D0H         PUBLIC        PSW
  -------         PROC          BSP_INIT
  C:3C3CH         LINE#         5
  C:3C3CH         LINE#         10
  C:3C3FH         LINE#         12
  C:3C42H         LINE#         14
  C:3C45H         LINE#         15
  C:3C48H         LINE#         16
  C:3C4BH         LINE#         19
  C:3C4EH         LINE#         21
  C:3C51H         LINE#         23
  C:3C54H         LINE#         25
  C:3C56H         LINE#         26
  -------         ENDPROC       BSP_INIT
  -------         ENDMOD        BSP

  -------         MODULE        BSP_KEY
  C:0000H         SYMBOL        _ICE_DUMMY_
  D:00B1H         PUBLIC        P0M1
  D:00B2H         PUBLIC        P0M2
  D:0080H         PUBLIC        P0
  D:0090H         PUBLIC        P1
  D:00A0H         PUBLIC        P2
  C:321EH         SYMBOL        _IsKeyDown
  D:00B0H         PUBLIC        P3
  D:00D8H         PUBLIC        P5
  C:3D41H         PUBLIC        _bsp_PutKey
  D:00A8H         PUBLIC        IE
  C:2B78H         SYMBOL        bsp_InitKeyVar
  X:009DH         PUBLIC        pBtn
  D:00B8H         PUBLIC        IP
  C:3C20H         PUBLIC        bsp_GetKey2
  C:23D8H         SYMBOL        _bsp_DetectKey
  B:0080H.2       PUBLIC        P02
  C:3F46H         SYMBOL        IsKeyDown1
  D:0098H         PUBLIC        SCON
  C:3E2DH         SYMBOL        IsKeyDown2
  D:0088H         PUBLIC        TCON
  C:4013H         SYMBOL        IsKeyDown3
  C:4019H         SYMBOL        IsKeyDown4
  C:3E87H         SYMBOL        IsKeyDown5
  C:3E3CH         SYMBOL        IsKeyDown6
  C:3E4BH         SYMBOL        IsKeyDown7
  C:3E5AH         SYMBOL        IsKeyDown8
  C:3E69H         SYMBOL        IsKeyDown9
  C:4025H         PUBLIC        bsp_ClearKey
  C:3DA1H         SYMBOL        IsKeyDown_2_and_6
  X:00A0H         PUBLIC        min
  D:00F8H         PUBLIC        SCON_1
  X:00A2H         PUBLIC        max
  C:3C57H         PUBLIC        bsp_KeyScan
BL51 BANKED LINKER/LOCATER V6.22                                                      12/16/2017  00:33:59  PAGE 36


  D:00E8H         PUBLIC        ADCCON0
  D:00C0H         PUBLIC        I2CON
  D:00C8H         PUBLIC        T2CON
  C:401FH         PUBLIC        bsp_InitKey
  C:3F81H         SYMBOL        bsp_InitKeyHard
  I:0022H         SYMBOL        s_tBtn
  I:0090H         SYMBOL        s_tKey
  C:3C04H         PUBLIC        bsp_GetKey
  C:3B16H         PUBLIC        _bsp_SetKeyParam
  C:3F03H         PUBLIC        _bsp_GetKeyState
  D:00D0H         PUBLIC        PSW
  -------         PROC          ISKEYDOWN1
  C:3F46H         LINE#         59
  C:3F46H         LINE#         60
  C:3F49H         LINE#         61
  C:3F4CH         LINE#         62
  C:3F4CH         LINE#         63
  C:3F4EH         LINE#         64
  C:3F4EH         LINE#         65
  -------         ENDPROC       ISKEYDOWN1
  -------         PROC          L?0067
  -------         ENDPROC       L?0067
  -------         PROC          _ISKEYDOWN
  D:0006H         SYMBOL        key_ad
  D:0004H         SYMBOL        result_ad
  C:321EH         LINE#         68
  C:321EH         LINE#         69
  C:3243H         LINE#         70
  C:3262H         LINE#         72
  C:327BH         LINE#         73
  -------         ENDPROC       _ISKEYDOWN
  -------         PROC          ISKEYDOWN2
  C:3E2DH         LINE#         76
  C:3E2DH         LINE#         77
  C:3E3BH         LINE#         78
  -------         ENDPROC       ISKEYDOWN2
  -------         PROC          ISKEYDOWN3
  C:4013H         LINE#         80
  C:4013H         LINE#         81
  C:4018H         LINE#         82
  -------         ENDPROC       ISKEYDOWN3
  -------         PROC          ISKEYDOWN4
  C:4019H         LINE#         84
  C:4019H         LINE#         85
  C:401EH         LINE#         86
  -------         ENDPROC       ISKEYDOWN4
  -------         PROC          ISKEYDOWN5
  C:3E87H         LINE#         88
  C:3E87H         LINE#         90
  C:3E94H         LINE#         91
  -------         ENDPROC       ISKEYDOWN5
  -------         PROC          ISKEYDOWN6
  C:3E3CH         LINE#         93
  C:3E3CH         LINE#         94
  C:3E4AH         LINE#         95
  -------         ENDPROC       ISKEYDOWN6
  -------         PROC          ISKEYDOWN7
BL51 BANKED LINKER/LOCATER V6.22                                                      12/16/2017  00:33:59  PAGE 37


  C:3E4BH         LINE#         97
  C:3E4BH         LINE#         98
  C:3E59H         LINE#         99
  -------         ENDPROC       ISKEYDOWN7
  -------         PROC          ISKEYDOWN8
  C:3E5AH         LINE#         101
  C:3E5AH         LINE#         102
  C:3E68H         LINE#         103
  -------         ENDPROC       ISKEYDOWN8
  -------         PROC          ISKEYDOWN9
  C:3E69H         LINE#         105
  C:3E69H         LINE#         106
  C:3E77H         LINE#         107
  -------         ENDPROC       ISKEYDOWN9
  -------         PROC          ISKEYDOWN_2_AND_6
  C:3DA1H         LINE#         109
  C:3DA1H         LINE#         110
  C:3DADH         LINE#         111
  C:3DB0H         LINE#         112
  C:3DB0H         LINE#         113
  C:3DB2H         LINE#         114
  C:3DB2H         LINE#         116
  -------         ENDPROC       ISKEYDOWN_2_AND_6
  -------         PROC          BSP_INITKEY
  C:401FH         LINE#         125
  C:401FH         LINE#         126
  C:4022H         LINE#         127
  -------         ENDPROC       BSP_INITKEY
  -------         PROC          _BSP_PUTKEY
  D:0007H         SYMBOL        _KeyCode
  C:3D41H         LINE#         138
  C:3D41H         LINE#         139
  C:3D49H         LINE#         141
  C:3D52H         LINE#         142
  C:3D54H         LINE#         143
  C:3D54H         LINE#         144
  -------         ENDPROC       _BSP_PUTKEY
  -------         PROC          BSP_GETKEY
  -------         DO            
  D:0007H         SYMBOL        ret
  -------         ENDDO         
  C:3C04H         LINE#         154
  C:3C04H         LINE#         157
  C:3C0CH         LINE#         158
  C:3C0EH         LINE#         159
  C:3C0EH         LINE#         160
  C:3C14H         LINE#         162
  C:3C1DH         LINE#         163
  C:3C1FH         LINE#         164
  C:3C1FH         LINE#         165
  C:3C1FH         LINE#         166
  C:3C1FH         LINE#         167
  -------         ENDPROC       BSP_GETKEY
  -------         PROC          BSP_GETKEY2
  -------         DO            
  D:0007H         SYMBOL        ret
  -------         ENDDO         
BL51 BANKED LINKER/LOCATER V6.22                                                      12/16/2017  00:33:59  PAGE 38


  C:3C20H         LINE#         177
  C:3C20H         LINE#         180
  C:3C28H         LINE#         181
  C:3C2AH         LINE#         182
  C:3C2AH         LINE#         183
  C:3C30H         LINE#         185
  C:3C39H         LINE#         186
  C:3C3BH         LINE#         187
  C:3C3BH         LINE#         188
  C:3C3BH         LINE#         189
  C:3C3BH         LINE#         190
  -------         ENDPROC       BSP_GETKEY2
  -------         PROC          _BSP_GETKEYSTATE
  D:0007H         SYMBOL        _ucKeyID
  C:3F03H         LINE#         200
  C:3F03H         LINE#         201
  C:3F0DH         LINE#         202
  -------         ENDPROC       _BSP_GETKEYSTATE
  -------         PROC          _BSP_SETKEYPARAM
  D:0007H         SYMBOL        _ucKeyID
  D:0004H         SYMBOL        _LongTime
  D:0003H         SYMBOL        _RepeatSpeed
  C:3B16H         LINE#         214
  C:3B16H         LINE#         215
  C:3B23H         LINE#         216
  C:3B2FH         LINE#         217
  C:3B39H         LINE#         218
  -------         ENDPROC       _BSP_SETKEYPARAM
  -------         PROC          BSP_CLEARKEY
  C:4025H         LINE#         228
  C:4025H         LINE#         229
  C:402AH         LINE#         230
  -------         ENDPROC       BSP_CLEARKEY
  -------         PROC          BSP_INITKEYHARD
  C:3F81H         LINE#         240
  C:3F81H         LINE#         242
  C:3F84H         LINE#         243
  C:3F87H         LINE#         245
  -------         ENDPROC       BSP_INITKEYHARD
  -------         PROC          BSP_INITKEYVAR
  -------         DO            
  D:0007H         SYMBOL        i
  -------         ENDDO         
  C:2B78H         LINE#         255
  C:2B78H         LINE#         259
  C:2B7CH         LINE#         260
  C:2B7EH         LINE#         261
  C:2B80H         LINE#         264
  C:2B81H         LINE#         265
  C:2B8EH         LINE#         266
  C:2B98H         LINE#         267
  C:2BA2H         LINE#         271
  C:2BACH         LINE#         272
  C:2BB6H         LINE#         273
  C:2BBBH         LINE#         275
  C:2BBFH         LINE#         276
  C:2BC3H         LINE#         277
BL51 BANKED LINKER/LOCATER V6.22                                                      12/16/2017  00:33:59  PAGE 39


  C:2BC7H         LINE#         278
  C:2BCBH         LINE#         281
  C:2BD5H         LINE#         282
  C:2BDFH         LINE#         283
  C:2BE9H         LINE#         284
  C:2BF3H         LINE#         285
  C:2BFDH         LINE#         286
  C:2C07H         LINE#         287
  C:2C11H         LINE#         288
  C:2C1BH         LINE#         289
  C:2C25H         LINE#         290
  C:2C2FH         LINE#         291
  -------         ENDPROC       BSP_INITKEYVAR
  -------         PROC          _BSP_DETECTKEY
  X:0003H         SYMBOL        i
  C:23D8H         LINE#         302
  C:23DDH         LINE#         303
  C:23F1H         LINE#         304
  C:23FDH         LINE#         305
  C:2414H         LINE#         306
  C:2419H         LINE#         307
  C:2422H         LINE#         308
  C:242AH         LINE#         309
  C:242AH         LINE#         310
  C:2432H         LINE#         311
  C:2439H         LINE#         314
  C:2446H         LINE#         315
  C:2446H         LINE#         317
  C:2465H         LINE#         318
  C:2472H         LINE#         320
  C:2489H         LINE#         322
  C:2493H         LINE#         323
  C:2493H         LINE#         324
  C:2495H         LINE#         325
  C:24A4H         LINE#         326
  C:24B0H         LINE#         327
  C:24B7H         LINE#         329
  C:24C4H         LINE#         330
  C:24C4H         LINE#         331
  C:24C4H         LINE#         332
  C:24C4H         LINE#         333
  C:24C4H         LINE#         334
  C:24C4H         LINE#         335
  C:24C4H         LINE#         336
  C:24DBH         LINE#         337
  C:24E3H         LINE#         338
  C:24E8H         LINE#         339
  C:24F0H         LINE#         340
  C:24F2H         LINE#         341
  C:24FBH         LINE#         342
  C:2502H         LINE#         345
  C:2510H         LINE#         346
  C:2510H         LINE#         347
  C:2510H         LINE#         348
  C:2524H         LINE#         349
  C:252BH         LINE#         350
  C:252BH         LINE#         351
BL51 BANKED LINKER/LOCATER V6.22                                                      12/16/2017  00:33:59  PAGE 40


  -------         ENDPROC       _BSP_DETECTKEY
  -------         PROC          BSP_KEYSCAN
  -------         DO            
  X:0002H         SYMBOL        i
  -------         ENDDO         
  C:3C57H         LINE#         361
  C:3C57H         LINE#         364
  C:3C66H         LINE#         365
  C:3C69H         LINE#         366
  C:3C71H         LINE#         367
  -------         ENDPROC       BSP_KEYSCAN
  -------         ENDMOD        BSP_KEY

  -------         MODULE        BSP_DISPLAY
  C:0000H         SYMBOL        _ICE_DUMMY_
  C:3FE3H         PUBLIC        LCD_Show_BAZOOKA_ICO
  D:00B1H         PUBLIC        P0M1
  D:00B3H         PUBLIC        P1M1
  D:00B2H         PUBLIC        P0M2
  D:0080H         PUBLIC        P0
  D:00B5H         PUBLIC        P2M1
  D:00B4H         PUBLIC        P1M2
  D:0090H         PUBLIC        P1
  D:00B6H         PUBLIC        P2M2
  D:00ACH         PUBLIC        P3M1
  D:00A0H         PUBLIC        P2
  D:00DAH         PUBLIC        P4M1
  D:00B0H         PUBLIC        P3
  D:00ADH         PUBLIC        P3M2
  D:00DCH         PUBLIC        P5M1
  D:00DBH         PUBLIC        P4M2
  D:00DDH         PUBLIC        P5M2
  D:00D8H         PUBLIC        P5
  C:3F9DH         PUBLIC        LCD_Show_FM_ICO
  D:00A8H         PUBLIC        IE
  C:3F88H         PUBLIC        LCD_Clear_LED_ICO
  C:3EA3H         PUBLIC        LCD_Clear_All
  D:00B8H         PUBLIC        IP
  C:3FEAH         PUBLIC        LCD_Clear_upColon_ICO
  C:3FC0H         PUBLIC        LCD_Clear_USB_ICO
  C:38B2H         PUBLIC        LCD_display_InitHard
  C:3FB2H         PUBLIC        LCD_Clear_AUX_ICO
  C:3FCEH         PUBLIC        LCD_Clear_MHZ_ICO
  C:3FFFH         PUBLIC        LCD_Show_downColon_ICO
  D:00FCH         PUBLIC        LCDDAT
  D:00FAH         PUBLIC        LCDCLK
  D:0098H         PUBLIC        SCON
  D:00F9H         PUBLIC        LCDCON
  D:0088H         PUBLIC        TCON
  C:3FA4H         PUBLIC        LCD_Clear_BLUETooTH_ICO
  C:402BH         PUBLIC        LCD_Clear_Colon_ICO
  C:3FDCH         PUBLIC        LCD_Clear_BAZOOKA_ICO
  D:00F8H         PUBLIC        SCON_1
  C:3F8FH         PUBLIC        LCD_Show_LED_ICO
  D:00FBH         PUBLIC        LCDPTR
  C:3F96H         PUBLIC        LCD_Clear_FM_ICO
  C:2D90H         PUBLIC        _LCD_ShowString
BL51 BANKED LINKER/LOCATER V6.22                                                      12/16/2017  00:33:59  PAGE 41


  C:29B1H         SYMBOL        _LCD_Clear_mi
  C:0C25H         PUBLIC        _LCD_ShowChar
  C:3FF1H         PUBLIC        LCD_Show_upColon_ICO
  D:00E8H         PUBLIC        ADCCON0
  D:00C0H         PUBLIC        I2CON
  C:3FC7H         PUBLIC        LCD_Show_USB_ICO
  C:3FB9H         PUBLIC        LCD_Show_AUX_ICO
  C:3FD5H         PUBLIC        LCD_Show_MHZ_ICO
  D:00E5H         PUBLIC        LCDSEG0
  D:00E6H         PUBLIC        LCDSEG1
  D:00E7H         PUBLIC        LCDSEG2
  D:00EEH         PUBLIC        LCDSEG3
  D:00C8H         PUBLIC        T2CON
  C:3FABH         PUBLIC        LCD_Show_BLUETooTH_ICO
  C:3EB0H         PUBLIC        LCD_Clear_mi_all
  C:4031H         PUBLIC        LCD_Show_Colon_ICO
  C:3FF8H         PUBLIC        LCD_Clear_downColon_ICO
  D:00D0H         PUBLIC        PSW
  -------         PROC          LCD_DISPLAY_INITHARD
  C:38B2H         LINE#         16
  C:38B2H         LINE#         40
  C:38B5H         LINE#         41
  C:38B8H         LINE#         43
  C:38BAH         LINE#         44
  C:38BDH         LINE#         46
  C:38BFH         LINE#         47
  C:38C2H         LINE#         49
  C:38C4H         LINE#         50
  C:38C7H         LINE#         52
  C:38C9H         LINE#         53
  C:38CCH         LINE#         55
  C:38CEH         LINE#         56
  C:38D1H         LINE#         60
  C:38D3H         LINE#         62
  C:38D6H         LINE#         65
  C:38D9H         LINE#         66
  C:38DCH         LINE#         67
  C:38DFH         LINE#         68
  C:38E2H         LINE#         70
  C:38E5H         LINE#         72
  -------         ENDPROC       LCD_DISPLAY_INITHARD
  -------         PROC          LCD_CLEAR_ALL
  -------         DO            
  D:0007H         SYMBOL        i
  -------         ENDDO         
  C:3EA3H         LINE#         75
  C:3EA3H         LINE#         77
  C:3EA5H         LINE#         78
  C:3EA7H         LINE#         79
  C:3EAAH         LINE#         80
  C:3EAFH         LINE#         81
  -------         ENDPROC       LCD_CLEAR_ALL
  -------         PROC          LCD_CLEAR_LED_ICO
  C:3F88H         LINE#         83
  C:3F88H         LINE#         84
  C:3F8BH         LINE#         85
  C:3F8EH         LINE#         86
BL51 BANKED LINKER/LOCATER V6.22                                                      12/16/2017  00:33:59  PAGE 42


  -------         ENDPROC       LCD_CLEAR_LED_ICO
  -------         PROC          LCD_SHOW_LED_ICO
  C:3F8FH         LINE#         87
  C:3F8FH         LINE#         88
  C:3F92H         LINE#         89
  C:3F95H         LINE#         90
  -------         ENDPROC       LCD_SHOW_LED_ICO
  -------         PROC          LCD_CLEAR_FM_ICO
  C:3F96H         LINE#         91
  C:3F96H         LINE#         92
  C:3F99H         LINE#         93
  C:3F9CH         LINE#         94
  -------         ENDPROC       LCD_CLEAR_FM_ICO
  -------         PROC          LCD_SHOW_FM_ICO
  C:3F9DH         LINE#         95
  C:3F9DH         LINE#         96
  C:3FA0H         LINE#         97
  C:3FA3H         LINE#         98
  -------         ENDPROC       LCD_SHOW_FM_ICO
  -------         PROC          LCD_CLEAR_BLUETOOTH_ICO
  C:3FA4H         LINE#         99
  C:3FA4H         LINE#         100
  C:3FA7H         LINE#         101
  C:3FAAH         LINE#         102
  -------         ENDPROC       LCD_CLEAR_BLUETOOTH_ICO
  -------         PROC          LCD_SHOW_BLUETOOTH_ICO
  C:3FABH         LINE#         103
  C:3FABH         LINE#         104
  C:3FAEH         LINE#         105
  C:3FB1H         LINE#         106
  -------         ENDPROC       LCD_SHOW_BLUETOOTH_ICO
  -------         PROC          LCD_CLEAR_AUX_ICO
  C:3FB2H         LINE#         107
  C:3FB2H         LINE#         108
  C:3FB5H         LINE#         109
  C:3FB8H         LINE#         110
  -------         ENDPROC       LCD_CLEAR_AUX_ICO
  -------         PROC          LCD_SHOW_AUX_ICO
  C:3FB9H         LINE#         111
  C:3FB9H         LINE#         112
  C:3FBCH         LINE#         113
  C:3FBFH         LINE#         114
  -------         ENDPROC       LCD_SHOW_AUX_ICO
  -------         PROC          LCD_CLEAR_USB_ICO
  C:3FC0H         LINE#         115
  C:3FC0H         LINE#         116
  C:3FC3H         LINE#         117
  C:3FC6H         LINE#         118
  -------         ENDPROC       LCD_CLEAR_USB_ICO
  -------         PROC          LCD_SHOW_USB_ICO
  C:3FC7H         LINE#         119
  C:3FC7H         LINE#         120
  C:3FCAH         LINE#         121
  C:3FCDH         LINE#         122
  -------         ENDPROC       LCD_SHOW_USB_ICO
  -------         PROC          LCD_CLEAR_MHZ_ICO
  C:3FCEH         LINE#         123
BL51 BANKED LINKER/LOCATER V6.22                                                      12/16/2017  00:33:59  PAGE 43


  C:3FCEH         LINE#         124
  C:3FD1H         LINE#         125
  C:3FD4H         LINE#         126
  -------         ENDPROC       LCD_CLEAR_MHZ_ICO
  -------         PROC          LCD_SHOW_MHZ_ICO
  C:3FD5H         LINE#         127
  C:3FD5H         LINE#         128
  C:3FD8H         LINE#         129
  C:3FDBH         LINE#         130
  -------         ENDPROC       LCD_SHOW_MHZ_ICO
  -------         PROC          LCD_CLEAR_BAZOOKA_ICO
  C:3FDCH         LINE#         131
  C:3FDCH         LINE#         132
  C:3FDFH         LINE#         133
  C:3FE2H         LINE#         134
  -------         ENDPROC       LCD_CLEAR_BAZOOKA_ICO
  -------         PROC          LCD_SHOW_BAZOOKA_ICO
  C:3FE3H         LINE#         135
  C:3FE3H         LINE#         136
  C:3FE6H         LINE#         137
  C:3FE9H         LINE#         138
  -------         ENDPROC       LCD_SHOW_BAZOOKA_ICO
  -------         PROC          LCD_CLEAR_UPCOLON_ICO
  C:3FEAH         LINE#         144
  C:3FEAH         LINE#         145
  C:3FEDH         LINE#         146
  C:3FF0H         LINE#         147
  -------         ENDPROC       LCD_CLEAR_UPCOLON_ICO
  -------         PROC          LCD_SHOW_UPCOLON_ICO
  C:3FF1H         LINE#         148
  C:3FF1H         LINE#         149
  C:3FF4H         LINE#         150
  C:3FF7H         LINE#         151
  -------         ENDPROC       LCD_SHOW_UPCOLON_ICO
  -------         PROC          LCD_CLEAR_DOWNCOLON_ICO
  C:3FF8H         LINE#         152
  C:3FF8H         LINE#         153
  C:3FFBH         LINE#         154
  C:3FFEH         LINE#         155
  -------         ENDPROC       LCD_CLEAR_DOWNCOLON_ICO
  -------         PROC          LCD_SHOW_DOWNCOLON_ICO
  C:3FFFH         LINE#         156
  C:3FFFH         LINE#         157
  C:4002H         LINE#         158
  C:4005H         LINE#         159
  -------         ENDPROC       LCD_SHOW_DOWNCOLON_ICO
  -------         PROC          LCD_CLEAR_COLON_ICO
  C:402BH         LINE#         160
  C:402BH         LINE#         161
  C:402EH         LINE#         162
  -------         ENDPROC       LCD_CLEAR_COLON_ICO
  -------         PROC          LCD_SHOW_COLON_ICO
  C:4031H         LINE#         164
  C:4031H         LINE#         165
  C:4034H         LINE#         166
  -------         ENDPROC       LCD_SHOW_COLON_ICO
  -------         PROC          _LCD_CLEAR_MI
BL51 BANKED LINKER/LOCATER V6.22                                                      12/16/2017  00:33:59  PAGE 44


  D:0007H         SYMBOL        n
  C:29B1H         LINE#         168
  C:29B1H         LINE#         169
  C:29D9H         LINE#         170
  C:29D9H         LINE#         171
  C:29DCH         LINE#         172
  C:29DFH         LINE#         174
  C:29E2H         LINE#         175
  C:29E5H         LINE#         177
  C:29E8H         LINE#         178
  C:29EBH         LINE#         180
  C:29EEH         LINE#         181
  C:29EEH         LINE#         182
  C:29F1H         LINE#         183
  C:29F1H         LINE#         184
  C:29F4H         LINE#         185
  C:29F7H         LINE#         187
  C:29FAH         LINE#         188
  C:29FDH         LINE#         190
  C:2A00H         LINE#         191
  C:2A03H         LINE#         193
  C:2A06H         LINE#         194
  C:2A06H         LINE#         195
  C:2A09H         LINE#         196
  C:2A09H         LINE#         197
  C:2A0CH         LINE#         198
  C:2A0FH         LINE#         200
  C:2A12H         LINE#         201
  C:2A15H         LINE#         203
  C:2A18H         LINE#         204
  C:2A1BH         LINE#         206
  C:2A1EH         LINE#         207
  C:2A1EH         LINE#         208
  C:2A20H         LINE#         209
  C:2A20H         LINE#         210
  C:2A23H         LINE#         211
  C:2A26H         LINE#         213
  C:2A29H         LINE#         214
  C:2A2CH         LINE#         216
  C:2A2FH         LINE#         217
  C:2A32H         LINE#         219
  C:2A35H         LINE#         220
  C:2A35H         LINE#         221
  C:2A37H         LINE#         222
  C:2A37H         LINE#         223
  C:2A3AH         LINE#         224
  C:2A3DH         LINE#         226
  C:2A40H         LINE#         227
  C:2A43H         LINE#         229
  C:2A46H         LINE#         230
  C:2A49H         LINE#         232
  C:2A4CH         LINE#         233
  C:2A4CH         LINE#         234
  C:2A4EH         LINE#         235
  C:2A4EH         LINE#         236
  C:2A51H         LINE#         237
  C:2A54H         LINE#         239
BL51 BANKED LINKER/LOCATER V6.22                                                      12/16/2017  00:33:59  PAGE 45


  C:2A57H         LINE#         240
  C:2A5AH         LINE#         242
  C:2A5DH         LINE#         243
  C:2A60H         LINE#         245
  C:2A63H         LINE#         246
  C:2A63H         LINE#         247
  C:2A65H         LINE#         248
  C:2A65H         LINE#         249
  C:2A68H         LINE#         250
  C:2A6BH         LINE#         252
  C:2A6EH         LINE#         253
  C:2A71H         LINE#         255
  C:2A74H         LINE#         256
  C:2A77H         LINE#         258
  C:2A7AH         LINE#         259
  C:2A7AH         LINE#         260
  C:2A7CH         LINE#         261
  C:2A7CH         LINE#         262
  C:2A7FH         LINE#         263
  C:2A82H         LINE#         265
  C:2A85H         LINE#         266
  C:2A88H         LINE#         268
  C:2A8BH         LINE#         269
  C:2A8EH         LINE#         271
  C:2A91H         LINE#         272
  C:2A94H         LINE#         273
  C:2A94H         LINE#         274
  C:2A94H         LINE#         275
  -------         ENDPROC       _LCD_CLEAR_MI
  -------         PROC          LCD_CLEAR_MI_ALL
  -------         DO            
  D:0006H         SYMBOL        i
  -------         ENDDO         
  C:3EB0H         LINE#         276
  C:3EB0H         LINE#         277
  C:3EB2H         LINE#         278
  C:3EB2H         LINE#         279
  C:3EB7H         LINE#         280
  C:3EBCH         LINE#         281
  -------         ENDPROC       LCD_CLEAR_MI_ALL
  -------         PROC          _LCD_SHOWCHAR
  D:0007H         SYMBOL        n
  D:0005H         SYMBOL        c
  C:0C25H         LINE#         282
  C:0C25H         LINE#         283
  C:0C2EH         LINE#         285
  C:0C2EH         LINE#         287
  C:0C37H         LINE#         288
  C:0C39H         LINE#         289
  C:0C3FH         LINE#         290
  C:0C41H         LINE#         291
  C:0C47H         LINE#         292
  C:0C49H         LINE#         293
  C:0C4FH         LINE#         294
  C:0C51H         LINE#         295
  C:0C57H         LINE#         296
  C:0C59H         LINE#         297
BL51 BANKED LINKER/LOCATER V6.22                                                      12/16/2017  00:33:59  PAGE 46


  C:0C59H         LINE#         298
  C:0D0CH         LINE#         299
  C:0D0CH         LINE#         300
  C:0D18H         LINE#         301
  C:0D1BH         LINE#         302
  C:0D1EH         LINE#         304
  C:0D24H         LINE#         305
  C:0D27H         LINE#         306
  C:0D2AH         LINE#         308
  C:0D30H         LINE#         309
  C:0D33H         LINE#         311
  C:0D33H         LINE#         312
  C:0D33H         LINE#         313
  C:0D36H         LINE#         314
  C:0D36H         LINE#         315
  C:0D42H         LINE#         316
  C:0D45H         LINE#         318
  C:0D4BH         LINE#         319
  C:0D4EH         LINE#         321
  C:0D54H         LINE#         322
  C:0D57H         LINE#         324
  C:0D57H         LINE#         325
  C:0D57H         LINE#         326
  C:0D5AH         LINE#         327
  C:0D5AH         LINE#         328
  C:0D66H         LINE#         329
  C:0D69H         LINE#         330
  C:0D6CH         LINE#         332
  C:0D6CH         LINE#         333
  C:0D6CH         LINE#         334
  C:0D6CH         LINE#         336
  C:0D6CH         LINE#         337
  C:0D6CH         LINE#         339
  C:0D6CH         LINE#         340
  C:0D6CH         LINE#         341
  C:0D6FH         LINE#         342
  C:0D6FH         LINE#         343
  C:0D7BH         LINE#         344
  C:0D7EH         LINE#         345
  C:0D81H         LINE#         347
  C:0D81H         LINE#         348
  C:0D81H         LINE#         349
  C:0D81H         LINE#         351
  C:0D81H         LINE#         352
  C:0D81H         LINE#         354
  C:0D81H         LINE#         355
  C:0D81H         LINE#         356
  C:0D84H         LINE#         357
  C:0D84H         LINE#         358
  C:0D90H         LINE#         359
  C:0D93H         LINE#         360
  C:0D96H         LINE#         362
  C:0D96H         LINE#         363
  C:0D96H         LINE#         365
  C:0D96H         LINE#         366
  C:0D96H         LINE#         368
  C:0D96H         LINE#         369
BL51 BANKED LINKER/LOCATER V6.22                                                      12/16/2017  00:33:59  PAGE 47


  C:0D96H         LINE#         370
  C:0D99H         LINE#         371
  C:0D99H         LINE#         372
  C:0DA5H         LINE#         373
  C:0DA8H         LINE#         374
  C:0DABH         LINE#         376
  C:0DABH         LINE#         377
  C:0DABH         LINE#         378
  C:0DABH         LINE#         380
  C:0DABH         LINE#         381
  C:0DABH         LINE#         383
  C:0DABH         LINE#         384
  C:0DABH         LINE#         385
  C:0DAEH         LINE#         386
  C:0DAEH         LINE#         387
  C:0DBAH         LINE#         388
  C:0DBDH         LINE#         390
  C:0DBDH         LINE#         391
  C:0DBDH         LINE#         392
  C:0DBDH         LINE#         394
  C:0DBDH         LINE#         395
  C:0DBDH         LINE#         397
  C:0DBDH         LINE#         398
  C:0DBDH         LINE#         399
  C:0DC0H         LINE#         400
  C:0DC0H         LINE#         401
  C:0DCCH         LINE#         402
  C:0DCFH         LINE#         404
  C:0DD5H         LINE#         405
  C:0DD8H         LINE#         406
  C:0DDBH         LINE#         408
  C:0DE1H         LINE#         409
  C:0DE4H         LINE#         411
  C:0DE4H         LINE#         412
  C:0DE4H         LINE#         413
  C:0DE7H         LINE#         414
  C:0DE7H         LINE#         415
  C:0DF3H         LINE#         416
  C:0DF6H         LINE#         418
  C:0DF6H         LINE#         419
  C:0DF6H         LINE#         420
  C:0DF6H         LINE#         422
  C:0DF6H         LINE#         423
  C:0DF6H         LINE#         425
  C:0DF6H         LINE#         426
  C:0DF6H         LINE#         427
  C:0DF9H         LINE#         428
  C:0DF9H         LINE#         429
  C:0E05H         LINE#         430
  C:0E08H         LINE#         431
  C:0E0BH         LINE#         433
  C:0E0BH         LINE#         434
  C:0E0BH         LINE#         435
  C:0E0BH         LINE#         437
  C:0E0BH         LINE#         438
  C:0E0BH         LINE#         440
  C:0E0BH         LINE#         441
BL51 BANKED LINKER/LOCATER V6.22                                                      12/16/2017  00:33:59  PAGE 48


  C:0E0BH         LINE#         442
  C:0E0EH         LINE#         443
  C:0E0EH         LINE#         444
  C:0E11H         LINE#         445
  C:0E11H         LINE#         446
  C:0E11H         LINE#         447
  C:0E1DH         LINE#         448
  C:0E20H         LINE#         450
  C:0E20H         LINE#         451
  C:0E20H         LINE#         452
  C:0E20H         LINE#         454
  C:0E20H         LINE#         455
  C:0E20H         LINE#         457
  C:0E20H         LINE#         458
  C:0E20H         LINE#         459
  C:0E23H         LINE#         460
  C:0E23H         LINE#         461
  C:0E2FH         LINE#         462
  C:0E32H         LINE#         464
  C:0E38H         LINE#         465
  C:0E3BH         LINE#         466
  C:0E3EH         LINE#         468
  C:0E44H         LINE#         469
  C:0E47H         LINE#         471
  C:0E47H         LINE#         472
  C:0E47H         LINE#         473
  C:0E4AH         LINE#         474
  C:0E4AH         LINE#         475
  C:0E56H         LINE#         476
  C:0E59H         LINE#         477
  C:0E5CH         LINE#         479
  C:0E62H         LINE#         480
  C:0E65H         LINE#         481
  C:0E68H         LINE#         483
  C:0E68H         LINE#         484
  C:0E68H         LINE#         486
  C:0E68H         LINE#         487
  C:0E68H         LINE#         488
  C:0E6BH         LINE#         489
  C:0E6BH         LINE#         490
  C:0E77H         LINE#         491
  C:0E7AH         LINE#         493
  C:0E80H         LINE#         494
  C:0E83H         LINE#         495
  C:0E86H         LINE#         497
  C:0E8CH         LINE#         498
  C:0E8FH         LINE#         500
  C:0E8FH         LINE#         501
  C:0E8FH         LINE#         502
  C:0E92H         LINE#         503
  C:0E92H         LINE#         504
  C:0E9EH         LINE#         505
  C:0EA1H         LINE#         507
  C:0EA7H         LINE#         508
  C:0EAAH         LINE#         509
  C:0EADH         LINE#         511
  C:0EADH         LINE#         512
BL51 BANKED LINKER/LOCATER V6.22                                                      12/16/2017  00:33:59  PAGE 49


  C:0EADH         LINE#         514
  C:0EADH         LINE#         515
  C:0EADH         LINE#         516
  C:0EB0H         LINE#         517
  C:0EB0H         LINE#         518
  C:0EBCH         LINE#         519
  C:0EBFH         LINE#         521
  C:0EC5H         LINE#         522
  C:0EC8H         LINE#         523
  C:0ECBH         LINE#         525
  C:0ED1H         LINE#         526
  C:0ED4H         LINE#         528
  C:0ED4H         LINE#         529
  C:0ED4H         LINE#         530
  C:0ED7H         LINE#         531
  C:0ED7H         LINE#         532
  C:0EE3H         LINE#         533
  C:0EE6H         LINE#         534
  C:0EE9H         LINE#         536
  C:0EEFH         LINE#         537
  C:0EF2H         LINE#         538
  C:0EF5H         LINE#         540
  C:0EF5H         LINE#         541
  C:0EF5H         LINE#         543
  C:0EF5H         LINE#         544
  C:0EF5H         LINE#         545
  C:0EF8H         LINE#         546
  C:0EF8H         LINE#         547
  C:0F04H         LINE#         548
  C:0F07H         LINE#         550
  C:0F0DH         LINE#         551
  C:0F10H         LINE#         553
  C:0F16H         LINE#         554
  C:0F19H         LINE#         556
  C:0F19H         LINE#         557
  C:0F19H         LINE#         558
  C:0F1CH         LINE#         559
  C:0F1CH         LINE#         560
  C:0F28H         LINE#         561
  C:0F2BH         LINE#         563
  C:0F31H         LINE#         564
  C:0F34H         LINE#         565
  C:0F37H         LINE#         567
  C:0F3DH         LINE#         568
  C:0F40H         LINE#         570
  C:0F40H         LINE#         571
  C:0F40H         LINE#         572
  C:0F43H         LINE#         573
  C:0F43H         LINE#         574
  C:0F4FH         LINE#         575
  C:0F52H         LINE#         576
  C:0F55H         LINE#         578
  C:0F5BH         LINE#         579
  C:0F5EH         LINE#         581
  C:0F64H         LINE#         582
  C:0F67H         LINE#         584
  C:0F67H         LINE#         585
BL51 BANKED LINKER/LOCATER V6.22                                                      12/16/2017  00:33:59  PAGE 50


  C:0F67H         LINE#         586
  C:0F6AH         LINE#         587
  C:0F6AH         LINE#         588
  C:0F76H         LINE#         589
  C:0F79H         LINE#         591
  C:0F7FH         LINE#         592
  C:0F82H         LINE#         594
  C:0F88H         LINE#         595
  C:0F8BH         LINE#         597
  C:0F8BH         LINE#         598
  C:0F8BH         LINE#         599
  C:0F8EH         LINE#         600
  C:0F8EH         LINE#         601
  C:0F9AH         LINE#         602
  C:0F9DH         LINE#         603
  C:0FA0H         LINE#         605
  C:0FA6H         LINE#         606
  C:0FA9H         LINE#         608
  C:0FAFH         LINE#         609
  C:0FB2H         LINE#         611
  C:0FB2H         LINE#         612
  C:0FB2H         LINE#         613
  C:0FB5H         LINE#         614
  C:0FB5H         LINE#         615
  C:0FC1H         LINE#         616
  C:0FC4H         LINE#         617
  C:0FC7H         LINE#         619
  C:0FCDH         LINE#         620
  C:0FD0H         LINE#         621
  C:0FD3H         LINE#         623
  C:0FD9H         LINE#         624
  C:0FDCH         LINE#         626
  C:0FDCH         LINE#         627
  C:0FDCH         LINE#         628
  C:0FDFH         LINE#         629
  C:0FDFH         LINE#         630
  C:0FEBH         LINE#         631
  C:0FEEH         LINE#         632
  C:0FF1H         LINE#         634
  C:0FF7H         LINE#         635
  C:0FFAH         LINE#         636
  C:0FFDH         LINE#         638
  C:1003H         LINE#         639
  C:1006H         LINE#         641
  C:1006H         LINE#         642
  C:1006H         LINE#         643
  C:1009H         LINE#         644
  C:1009H         LINE#         645
  C:1015H         LINE#         646
  C:1018H         LINE#         647
  C:101BH         LINE#         649
  C:1021H         LINE#         650
  C:1024H         LINE#         651
  C:1027H         LINE#         653
  C:102DH         LINE#         654
  C:1030H         LINE#         656
  C:1030H         LINE#         657
BL51 BANKED LINKER/LOCATER V6.22                                                      12/16/2017  00:33:59  PAGE 51


  C:1030H         LINE#         658
  C:1033H         LINE#         659
  C:1033H         LINE#         660
  C:103FH         LINE#         661
  C:1042H         LINE#         663
  C:1048H         LINE#         664
  C:104BH         LINE#         665
  C:104EH         LINE#         667
  C:1054H         LINE#         668
  C:1057H         LINE#         670
  C:1057H         LINE#         671
  C:1057H         LINE#         672
  C:105AH         LINE#         673
  C:105AH         LINE#         674
  C:1066H         LINE#         675
  C:1069H         LINE#         676
  C:106CH         LINE#         678
  C:1072H         LINE#         679
  C:1075H         LINE#         680
  C:1078H         LINE#         682
  C:107EH         LINE#         683
  C:1081H         LINE#         685
  C:1081H         LINE#         686
  C:1081H         LINE#         687
  C:1084H         LINE#         688
  C:1084H         LINE#         689
  C:1090H         LINE#         690
  C:1093H         LINE#         692
  C:1099H         LINE#         693
  C:109CH         LINE#         694
  C:109FH         LINE#         696
  C:10A5H         LINE#         697
  C:10A8H         LINE#         699
  C:10AEH         LINE#         700
  C:10B1H         LINE#         701
  C:10B2H         LINE#         702
  C:10B2H         LINE#         703
  C:10B2H         LINE#         704
  C:10B2H         LINE#         705
  C:10BEH         LINE#         706
  C:10C1H         LINE#         708
  C:10C7H         LINE#         709
  C:10CAH         LINE#         710
  C:10CDH         LINE#         712
  C:10D3H         LINE#         713
  C:10D6H         LINE#         715
  C:10D6H         LINE#         716
  C:10D6H         LINE#         717
  C:10D9H         LINE#         718
  C:10D9H         LINE#         719
  C:10E5H         LINE#         720
  C:10E8H         LINE#         721
  C:10EBH         LINE#         723
  C:10F1H         LINE#         724
  C:10F4H         LINE#         726
  C:10FAH         LINE#         727
  C:10FDH         LINE#         729
BL51 BANKED LINKER/LOCATER V6.22                                                      12/16/2017  00:33:59  PAGE 52


  C:10FDH         LINE#         730
  C:10FDH         LINE#         731
  C:1100H         LINE#         732
  C:1100H         LINE#         733
  C:110CH         LINE#         734
  C:110FH         LINE#         736
  C:1115H         LINE#         737
  C:1118H         LINE#         738
  C:111BH         LINE#         740
  C:1121H         LINE#         741
  C:1124H         LINE#         743
  C:112AH         LINE#         744
  C:112DH         LINE#         745
  C:112EH         LINE#         746
  C:112EH         LINE#         747
  C:113AH         LINE#         748
  C:113DH         LINE#         749
  C:1140H         LINE#         751
  C:1146H         LINE#         752
  C:1149H         LINE#         754
  C:114FH         LINE#         755
  C:1152H         LINE#         757
  C:1152H         LINE#         758
  C:1152H         LINE#         759
  C:1155H         LINE#         760
  C:1155H         LINE#         761
  C:1161H         LINE#         762
  C:1164H         LINE#         764
  C:116AH         LINE#         765
  C:116DH         LINE#         766
  C:1170H         LINE#         768
  C:1170H         LINE#         769
  C:1170H         LINE#         771
  C:1170H         LINE#         772
  C:1170H         LINE#         773
  C:1173H         LINE#         774
  C:1173H         LINE#         775
  C:117FH         LINE#         776
  C:1182H         LINE#         777
  C:1185H         LINE#         779
  C:118BH         LINE#         780
  C:118EH         LINE#         782
  C:1194H         LINE#         783
  C:1197H         LINE#         785
  C:1197H         LINE#         786
  C:1197H         LINE#         787
  C:119AH         LINE#         788
  C:119AH         LINE#         789
  C:11A6H         LINE#         790
  C:11A9H         LINE#         791
  C:11ACH         LINE#         793
  C:11B2H         LINE#         794
  C:11B5H         LINE#         795
  C:11B8H         LINE#         797
  C:11BEH         LINE#         798
  C:11C1H         LINE#         800
  C:11C1H         LINE#         801
BL51 BANKED LINKER/LOCATER V6.22                                                      12/16/2017  00:33:59  PAGE 53


  C:11C1H         LINE#         802
  C:11C4H         LINE#         803
  C:11C4H         LINE#         804
  C:11D0H         LINE#         805
  C:11D3H         LINE#         806
  C:11D6H         LINE#         808
  C:11DCH         LINE#         809
  C:11DFH         LINE#         810
  C:11E2H         LINE#         812
  C:11E8H         LINE#         813
  C:11EBH         LINE#         815
  C:11EBH         LINE#         816
  C:11EBH         LINE#         817
  C:11EEH         LINE#         818
  C:11EEH         LINE#         819
  C:11FAH         LINE#         820
  C:11FDH         LINE#         822
  C:1203H         LINE#         823
  C:1206H         LINE#         825
  C:120CH         LINE#         826
  C:120FH         LINE#         828
  C:120FH         LINE#         829
  C:120FH         LINE#         830
  C:1212H         LINE#         831
  C:1212H         LINE#         832
  C:121EH         LINE#         833
  C:1221H         LINE#         834
  C:1224H         LINE#         836
  C:122AH         LINE#         837
  C:122DH         LINE#         839
  C:1233H         LINE#         840
  C:1236H         LINE#         842
  C:1236H         LINE#         843
  C:1236H         LINE#         844
  C:1239H         LINE#         845
  C:1239H         LINE#         846
  C:1245H         LINE#         847
  C:1248H         LINE#         848
  C:124BH         LINE#         850
  C:1251H         LINE#         851
  C:1254H         LINE#         853
  C:125AH         LINE#         854
  C:125DH         LINE#         856
  C:125DH         LINE#         857
  C:125DH         LINE#         858
  C:1260H         LINE#         859
  C:1260H         LINE#         860
  C:126CH         LINE#         861
  C:126FH         LINE#         863
  C:1275H         LINE#         864
  C:1278H         LINE#         865
  C:127BH         LINE#         867
  C:1281H         LINE#         868
  C:1284H         LINE#         870
  C:128AH         LINE#         871
  C:128DH         LINE#         872
  C:128EH         LINE#         873
BL51 BANKED LINKER/LOCATER V6.22                                                      12/16/2017  00:33:59  PAGE 54


  C:128EH         LINE#         874
  C:129AH         LINE#         875
  C:129DH         LINE#         877
  C:12A3H         LINE#         878
  C:12A6H         LINE#         879
  C:12A9H         LINE#         881
  C:12AFH         LINE#         882
  C:12B2H         LINE#         884
  C:12B2H         LINE#         885
  C:12B2H         LINE#         886
  C:12B5H         LINE#         887
  C:12B5H         LINE#         888
  C:12B5H         LINE#         889
  C:12B5H         LINE#         890
  C:12C1H         LINE#         891
  C:12C4H         LINE#         893
  C:12CAH         LINE#         894
  C:12CDH         LINE#         896
  C:12D3H         LINE#         897
  C:12D6H         LINE#         899
  C:12D6H         LINE#         900
  C:12D6H         LINE#         901
  C:12D9H         LINE#         902
  C:12D9H         LINE#         903
  C:12E5H         LINE#         904
  C:12E8H         LINE#         906
  C:12EEH         LINE#         907
  C:12F1H         LINE#         909
  C:12F7H         LINE#         910
  C:12FAH         LINE#         912
  C:12FAH         LINE#         913
  C:12FAH         LINE#         914
  C:12FDH         LINE#         915
  C:12FDH         LINE#         916
  C:1309H         LINE#         917
  C:130CH         LINE#         919
  C:1312H         LINE#         920
  C:1315H         LINE#         922
  C:131BH         LINE#         923
  C:131EH         LINE#         925
  C:1324H         LINE#         926
  C:1327H         LINE#         927
  C:1328H         LINE#         928
  C:1328H         LINE#         929
  C:1334H         LINE#         930
  C:1337H         LINE#         932
  C:133DH         LINE#         933
  C:1340H         LINE#         935
  C:1346H         LINE#         936
  C:1349H         LINE#         938
  C:134FH         LINE#         939
  C:1352H         LINE#         940
  C:1353H         LINE#         941
  C:1353H         LINE#         942
  C:1353H         LINE#         943
  C:1353H         LINE#         944
  C:135FH         LINE#         945
BL51 BANKED LINKER/LOCATER V6.22                                                      12/16/2017  00:33:59  PAGE 55


  C:1362H         LINE#         946
  C:1365H         LINE#         948
  C:136BH         LINE#         949
  C:136EH         LINE#         951
  C:1374H         LINE#         952
  C:1377H         LINE#         954
  C:1377H         LINE#         955
  C:1377H         LINE#         956
  C:1379H         LINE#         957
  C:1379H         LINE#         958
  C:1385H         LINE#         959
  C:1388H         LINE#         960
  C:138BH         LINE#         962
  C:1391H         LINE#         963
  C:1394H         LINE#         965
  C:139AH         LINE#         966
  C:139DH         LINE#         968
  C:139DH         LINE#         969
  C:139DH         LINE#         970
  C:139FH         LINE#         971
  C:139FH         LINE#         972
  C:13ABH         LINE#         973
  C:13AEH         LINE#         974
  C:13B1H         LINE#         976
  C:13B7H         LINE#         977
  C:13BAH         LINE#         979
  C:13C0H         LINE#         980
  C:13C3H         LINE#         982
  C:13C9H         LINE#         983
  C:13CCH         LINE#         984
  C:13CDH         LINE#         985
  C:13CDH         LINE#         986
  C:13CDH         LINE#         987
  C:13CDH         LINE#         988
  C:13D9H         LINE#         989
  C:13DCH         LINE#         990
  C:13DFH         LINE#         992
  C:13E5H         LINE#         993
  C:13E8H         LINE#         994
  C:13EBH         LINE#         996
  C:13F1H         LINE#         997
  C:13F4H         LINE#         999
  C:13FAH         LINE#         1000
  C:13FDH         LINE#         1001
  C:13FEH         LINE#         1002
  C:13FEH         LINE#         1003
  C:140AH         LINE#         1004
  C:140DH         LINE#         1006
  C:1413H         LINE#         1007
  C:1416H         LINE#         1009
  C:141CH         LINE#         1010
  C:141FH         LINE#         1012
  C:141FH         LINE#         1013
  C:141FH         LINE#         1014
  C:1421H         LINE#         1015
  C:1421H         LINE#         1016
  C:1421H         LINE#         1017
BL51 BANKED LINKER/LOCATER V6.22                                                      12/16/2017  00:33:59  PAGE 56


  C:1421H         LINE#         1018
  C:142DH         LINE#         1019
  C:1430H         LINE#         1021
  C:1436H         LINE#         1022
  C:1439H         LINE#         1024
  C:143FH         LINE#         1025
  C:1442H         LINE#         1027
  C:1448H         LINE#         1028
  C:144BH         LINE#         1029
  C:144CH         LINE#         1030
  C:144CH         LINE#         1031
  C:1458H         LINE#         1032
  C:145BH         LINE#         1033
  C:145EH         LINE#         1035
  C:1464H         LINE#         1036
  C:1467H         LINE#         1038
  C:146DH         LINE#         1039
  C:1470H         LINE#         1041
  C:1470H         LINE#         1042
  C:1470H         LINE#         1043
  C:1472H         LINE#         1044
  C:1472H         LINE#         1045
  C:147EH         LINE#         1046
  C:1481H         LINE#         1048
  C:1487H         LINE#         1049
  C:148AH         LINE#         1051
  C:1490H         LINE#         1052
  C:1493H         LINE#         1054
  C:1499H         LINE#         1055
  C:149CH         LINE#         1056
  C:149DH         LINE#         1057
  C:149DH         LINE#         1058
  C:14A9H         LINE#         1059
  C:14ACH         LINE#         1060
  C:14AFH         LINE#         1062
  C:14B5H         LINE#         1063
  C:14B8H         LINE#         1065
  C:14BEH         LINE#         1066
  C:14C1H         LINE#         1068
  C:14C7H         LINE#         1069
  C:14CAH         LINE#         1070
  C:14CBH         LINE#         1071
  C:14CBH         LINE#         1072
  C:14CBH         LINE#         1073
  C:14CBH         LINE#         1074
  C:14D7H         LINE#         1075
  C:14DAH         LINE#         1077
  C:14E0H         LINE#         1078
  C:14E3H         LINE#         1079
  C:14E6H         LINE#         1081
  C:14ECH         LINE#         1082
  C:14EFH         LINE#         1084
  C:14EFH         LINE#         1085
  C:14EFH         LINE#         1086
  C:14F1H         LINE#         1087
  C:14F1H         LINE#         1088
  C:14FDH         LINE#         1089
BL51 BANKED LINKER/LOCATER V6.22                                                      12/16/2017  00:33:59  PAGE 57


  C:1500H         LINE#         1091
  C:1506H         LINE#         1092
  C:1509H         LINE#         1093
  C:150CH         LINE#         1095
  C:1512H         LINE#         1096
  C:1515H         LINE#         1098
  C:151BH         LINE#         1099
  C:151EH         LINE#         1100
  C:151EH         LINE#         1102
  C:151EH         LINE#         1103
  -------         ENDPROC       _LCD_SHOWCHAR
  -------         PROC          _LCD_SHOWSTRING
  X:001AH         SYMBOL        s
  -------         DO            
  X:001DH         SYMBOL        i
  D:0007H         SYMBOL        len
  B:0020H.0       SYMBOL        b
  -------         ENDDO         
  C:2D90H         LINE#         1105
  C:2D9BH         LINE#         1106
  C:2D9EH         LINE#         1107
  C:2D9FH         LINE#         1108
  C:2DA1H         LINE#         1110
  C:2DA8H         LINE#         1112
  C:2DA8H         LINE#         1113
  C:2DB6H         LINE#         1114
  C:2DBCH         LINE#         1115
  C:2DC1H         LINE#         1116
  C:2DDDH         LINE#         1117
  C:2DEAH         LINE#         1118
  C:2DEAH         LINE#         1119
  C:2DF9H         LINE#         1120
  C:2DFCH         LINE#         1121
  C:2E12H         LINE#         1122
  C:2E12H         LINE#         1123
  C:2E14H         LINE#         1124
  C:2E16H         LINE#         1125
  C:2E1DH         LINE#         1126
  C:2E1DH         LINE#         1127
  C:2E1FH         LINE#         1128
  C:2E29H         LINE#         1129
  C:2E29H         LINE#         1130
  C:2E31H         LINE#         1131
  C:2E31H         LINE#         1133
  -------         ENDPROC       _LCD_SHOWSTRING
  -------         ENDMOD        BSP_DISPLAY

  -------         MODULE        BSP_TIMER0
  C:0000H         SYMBOL        _ICE_DUMMY_
  D:0080H         PUBLIC        P0
  D:0090H         PUBLIC        P1
  D:00A0H         PUBLIC        P2
  D:00B0H         PUBLIC        P3
  C:305AH         PUBLIC        Timer0_ISR
  D:00D8H         PUBLIC        P5
  D:00A8H         PUBLIC        IE
  D:00B8H         PUBLIC        IP
BL51 BANKED LINKER/LOCATER V6.22                                                      12/16/2017  00:33:59  PAGE 58


  X:0088H         PUBLIC        Task_time
  C:3B5EH         PUBLIC        Timer0_InitHard
  X:0091H         SYMBOL        u8TH0_tmp
  X:0092H         SYMBOL        u8TL0_tmp
  D:0098H         PUBLIC        SCON
  D:0089H         PUBLIC        TMOD
  D:0088H         PUBLIC        TCON
  C:3A80H         SYMBOL        timer0_ParamInit
  D:00F8H         PUBLIC        SCON_1
  B:00A8H.1       PUBLIC        ET0
  D:008CH         PUBLIC        TH0
  D:008AH         PUBLIC        TL0
  B:0088H.4       PUBLIC        TR0
  D:00E8H         PUBLIC        ADCCON0
  D:00C0H         PUBLIC        I2CON
  D:00C8H         PUBLIC        T2CON
  D:00D0H         PUBLIC        PSW
  -------         PROC          TIMER0_INITHARD
  C:3B5EH         LINE#         18
  C:3B5EH         LINE#         20
  C:3B61H         LINE#         22
  C:3B64H         LINE#         23
  C:3B67H         LINE#         24
  C:3B6AH         LINE#         25
  C:3B6DH         LINE#         27
  C:3B73H         LINE#         28
  C:3B77H         LINE#         30
  C:3B7AH         LINE#         31
  C:3B7CH         LINE#         33
  C:3B7EH         LINE#         34
  C:3B80H         LINE#         36
  -------         ENDPROC       TIMER0_INITHARD
  -------         PROC          TIMER0_PARAMINIT
  C:3A80H         LINE#         38
  C:3A80H         LINE#         39
  C:3A86H         LINE#         40
  C:3A8BH         LINE#         41
  C:3A8FH         LINE#         42
  C:3A95H         LINE#         44
  C:3A99H         LINE#         45
  C:3A9DH         LINE#         46
  C:3AA1H         LINE#         47
  C:3AA5H         LINE#         49
  -------         ENDPROC       TIMER0_PARAMINIT
  -------         PROC          TIMER0_ISR
  C:305AH         LINE#         51
  C:306BH         LINE#         52
  C:306BH         LINE#         54
  C:3071H         LINE#         55
  C:3075H         LINE#         57
  C:3080H         LINE#         58
  C:3082H         LINE#         59
  C:3085H         LINE#         61
  C:3085H         LINE#         63
  C:3090H         LINE#         64
  C:3092H         LINE#         65
  C:3095H         LINE#         67
BL51 BANKED LINKER/LOCATER V6.22                                                      12/16/2017  00:33:59  PAGE 59


  C:3095H         LINE#         68
  C:30A0H         LINE#         69
  C:30A2H         LINE#         70
  C:30A5H         LINE#         71
  C:30A5H         LINE#         72
  C:30BAH         LINE#         73
  C:30C1H         LINE#         74
  C:30C4H         LINE#         76
  C:30C4H         LINE#         78
  -------         ENDPROC       TIMER0_ISR
  -------         ENDMOD        BSP_TIMER0

  -------         MODULE        BSP_ADC
  C:0000H         SYMBOL        _ICE_DUMMY_
  D:00B1H         PUBLIC        P0M1
  D:00B2H         PUBLIC        P0M2
  D:0080H         PUBLIC        P0
  D:0090H         PUBLIC        P1
  D:00A0H         PUBLIC        P2
  D:00B0H         PUBLIC        P3
  D:00D8H         PUBLIC        P5
  B:00A8H.6       PUBLIC        EADC
  D:00A8H         PUBLIC        IE
  B:00E8H.0       PUBLIC        ADCHS0
  B:00E8H.1       PUBLIC        ADCHS1
  B:00E8H.2       PUBLIC        ADCHS2
  B:00E8H.3       PUBLIC        ADCHS3
  D:00B8H         PUBLIC        IP
  B:00E8H.6       PUBLIC        ADCS
  D:00F6H         PUBLIC        P0DIDS
  D:0098H         PUBLIC        SCON
  D:0088H         PUBLIC        TCON
  C:3B81H         PUBLIC        ADC_Start
  C:391BH         PUBLIC        ADC_Init
  D:00F8H         PUBLIC        SCON_1
  D:00E8H         PUBLIC        ADCCON0
  D:00E1H         PUBLIC        ADCCON1
  D:00C0H         PUBLIC        I2CON
  D:00C8H         PUBLIC        T2CON
  I:0019H         PUBLIC        g_tADC_Result
  D:00D0H         PUBLIC        PSW
  -------         PROC          ADC_INIT
  C:391BH         LINE#         12
  C:391BH         LINE#         13
  C:391FH         LINE#         14
  C:3925H         LINE#         15
  C:392BH         LINE#         24
  C:392EH         LINE#         26
  C:3930H         LINE#         28
  C:3933H         LINE#         29
  C:3936H         LINE#         30
  C:3939H         LINE#         32
  C:393CH         LINE#         33
  C:393FH         LINE#         34
  C:3942H         LINE#         45
  C:3945H         LINE#         46
  C:3948H         LINE#         47
BL51 BANKED LINKER/LOCATER V6.22                                                      12/16/2017  00:33:59  PAGE 60


  C:394BH         LINE#         49
  C:394DH         LINE#         51
  -------         ENDPROC       ADC_INIT
  -------         PROC          ADC_START
  C:3B81H         LINE#         53
  C:3B81H         LINE#         54
  C:3B86H         LINE#         55
  C:3B88H         LINE#         56
  C:3B8AH         LINE#         57
  C:3B8CH         LINE#         58
  C:3B8EH         LINE#         59
  C:3B90H         LINE#         60
  C:3B90H         LINE#         61
  C:3B90H         LINE#         62
  C:3B90H         LINE#         63
  C:3B90H         LINE#         64
  C:3B92H         LINE#         65
  C:3B96H         LINE#         66
  C:3B98H         LINE#         67
  C:3B9AH         LINE#         68
  C:3B9CH         LINE#         69
  C:3B9EH         LINE#         70
  C:3B9FH         LINE#         71
  C:3BA0H         LINE#         72
  C:3BA1H         LINE#         73
  C:3BA3H         LINE#         74
  C:3BA3H         LINE#         76
  -------         ENDPROC       ADC_START
  -------         ENDMOD        BSP_ADC

  -------         MODULE        BSP_KEYBRIGHT
  C:0000H         SYMBOL        _ICE_DUMMY_
  D:00B1H         PUBLIC        P0M1
  D:00B2H         PUBLIC        P0M2
  D:0080H         PUBLIC        P0
  D:0090H         PUBLIC        P1
  D:00A0H         PUBLIC        P2
  D:00B0H         PUBLIC        P3
  D:00D8H         PUBLIC        P5
  D:00A8H         PUBLIC        IE
  C:4048H         PUBLIC        key_bright_toggle
  D:00B8H         PUBLIC        IP
  C:3F4FH         PUBLIC        KEY_Bright_InitHard
  D:0098H         PUBLIC        SCON
  B:0080H.5       PUBLIC        P05
  D:0088H         PUBLIC        TCON
  D:00F8H         PUBLIC        SCON_1
  C:0058H         PUBLIC        key_bright_off
  D:00E8H         PUBLIC        ADCCON0
  D:00C0H         PUBLIC        I2CON
  D:00C8H         PUBLIC        T2CON
  C:4045H         PUBLIC        key_bright_on
  D:00D0H         PUBLIC        PSW
  -------         PROC          KEY_BRIGHT_INITHARD
  C:3F4FH         LINE#         10
  C:3F4FH         LINE#         12
  C:3F52H         LINE#         13
BL51 BANKED LINKER/LOCATER V6.22                                                      12/16/2017  00:33:59  PAGE 61


  C:3F55H         LINE#         15
  -------         ENDPROC       KEY_BRIGHT_INITHARD
  -------         PROC          KEY_BRIGHT_OFF
  C:0058H         LINE#         18
  C:0058H         LINE#         19
  C:005AH         LINE#         20
  -------         ENDPROC       KEY_BRIGHT_OFF
  -------         PROC          KEY_BRIGHT_ON
  C:4045H         LINE#         21
  C:4045H         LINE#         22
  C:4047H         LINE#         23
  -------         ENDPROC       KEY_BRIGHT_ON
  -------         PROC          KEY_BRIGHT_TOGGLE
  C:4048H         LINE#         24
  C:4048H         LINE#         25
  C:404AH         LINE#         26
  -------         ENDPROC       KEY_BRIGHT_TOGGLE
  -------         ENDMOD        BSP_KEYBRIGHT

  -------         MODULE        BSP_LCDBRIGHT
  C:0000H         SYMBOL        _ICE_DUMMY_
  D:00B1H         PUBLIC        P0M1
  D:00B2H         PUBLIC        P0M2
  D:0080H         PUBLIC        P0
  D:0090H         PUBLIC        P1
  D:00A0H         PUBLIC        P2
  D:00B0H         PUBLIC        P3
  D:00D8H         PUBLIC        P5
  D:00A8H         PUBLIC        IE
  C:3F58H         PUBLIC        LCD_Bright_InitHard
  D:00B8H         PUBLIC        IP
  D:0098H         PUBLIC        SCON
  D:0088H         PUBLIC        TCON
  C:404BH         PUBLIC        lcd_bright_off
  B:0080H.6       PUBLIC        P06
  D:00F8H         PUBLIC        SCON_1
  C:404EH         PUBLIC        lcd_bright_on
  D:00E8H         PUBLIC        ADCCON0
  D:00C0H         PUBLIC        I2CON
  D:00C8H         PUBLIC        T2CON
  D:00D0H         PUBLIC        PSW
  -------         PROC          LCD_BRIGHT_INITHARD
  C:3F58H         LINE#         10
  C:3F58H         LINE#         12
  C:3F5BH         LINE#         13
  C:3F5EH         LINE#         15
  -------         ENDPROC       LCD_BRIGHT_INITHARD
  -------         PROC          LCD_BRIGHT_OFF
  C:404BH         LINE#         18
  C:404BH         LINE#         19
  C:404DH         LINE#         20
  -------         ENDPROC       LCD_BRIGHT_OFF
  -------         PROC          LCD_BRIGHT_ON
  C:404EH         LINE#         21
  C:404EH         LINE#         22
  C:4050H         LINE#         23
  -------         ENDPROC       LCD_BRIGHT_ON
BL51 BANKED LINKER/LOCATER V6.22                                                      12/16/2017  00:33:59  PAGE 62


  -------         ENDMOD        BSP_LCDBRIGHT

  -------         MODULE        BSP_2D4
  C:0000H         SYMBOL        _ICE_DUMMY_
  D:00B1H         PUBLIC        P0M1
  D:00B2H         PUBLIC        P0M2
  D:0080H         PUBLIC        P0
  D:0090H         PUBLIC        P1
  D:00ACH         PUBLIC        P3M1
  D:00A0H         PUBLIC        P2
  D:00B0H         PUBLIC        P3
  D:00ADH         PUBLIC        P3M2
  C:4056H         PUBLIC        SPI_init
  D:00D8H         PUBLIC        P5
  C:3EE1H         PUBLIC        RF_ClearFIFO
  D:00A8H         PUBLIC        IE
  C:2671H         PUBLIC        RF_Init
  C:37FEH         PUBLIC        _RF_ReadBuf
  C:3D68H         PUBLIC        Wireless2d4_InitHard
  D:00B8H         PUBLIC        IP
  C:3C72H         PUBLIC        ucSPI_Read
  C:3741H         PUBLIC        _RF_WriteBuf
  C:3D7FH         PUBLIC        _RF_WriteReg
  C:3A06H         PUBLIC        _ucRF_DumpRxData
  B:0080H.3       PUBLIC        P03
  B:0080H.4       PUBLIC        P04
  D:0098H         PUBLIC        SCON
  D:0088H         PUBLIC        TCON
  C:4037H         PUBLIC        ucRF_GetRSSI
  B:00B0H.4       PUBLIC        P34
  C:377AH         PUBLIC        _RF_TxData
  C:3B3AH         SYMBOL        _?ix1000
  C:3B3FH         SYMBOL        _?ix1001
  C:3B42H         SYMBOL        _?ix1002
  C:2A95H         PUBLIC        _RF_Carrier
  D:00F8H         PUBLIC        SCON_1
  C:3B48H         SYMBOL        _?ix1003
  X:0093H         PUBLIC        TX_ADDRESS_DEF
  C:3B49H         SYMBOL        _?ix1004
  C:3B4CH         SYMBOL        _?ix1005
  C:3B51H         SYMBOL        _?ix1006
  C:3B54H         SYMBOL        _?ix1007
  C:3B5AH         SYMBOL        _?ix1008
  C:3AA6H         PUBLIC        RF_RxMode
  C:3B5BH         SYMBOL        _?ix1009
  C:3E78H         PUBLIC        RF_TxMode
  D:00E8H         PUBLIC        ADCCON0
  X:0098H         PUBLIC        PUBLIC_ADDRESS_DEF
  D:00C0H         PUBLIC        I2CON
  C:3E95H         PUBLIC        _RF_SetChannel
  D:00C8H         PUBLIC        T2CON
  C:4006H         PUBLIC        RF_ClearStatus
  C:3D8EH         PUBLIC        _ucRF_ReadReg
  C:3AF1H         PUBLIC        _SPI_WR
  D:00D0H         PUBLIC        PSW
  C:3BE5H         PUBLIC        _SPI_WW
  C:3F18H         PUBLIC        ucRF_GetStatus
BL51 BANKED LINKER/LOCATER V6.22                                                      12/16/2017  00:33:59  PAGE 63


  -------         PROC          WIRELESS2D4_INITHARD
  C:3D68H         LINE#         12
  C:3D68H         LINE#         15
  C:3D6BH         LINE#         16
  C:3D6EH         LINE#         19
  C:3D71H         LINE#         20
  C:3D74H         LINE#         23
  C:3D77H         LINE#         24
  C:3D7AH         LINE#         26
  -------         ENDPROC       WIRELESS2D4_INITHARD
  -------         PROC          SPI_INIT
  C:4056H         LINE#         32
  C:4056H         LINE#         36
  -------         ENDPROC       SPI_INIT
  -------         PROC          _SPI_WW
  D:0007H         SYMBOL        R_REG
  -------         DO            
  D:0006H         SYMBOL        i
  -------         ENDDO         
  C:3BE5H         LINE#         42
  C:3BE5H         LINE#         44
  C:3BE7H         LINE#         45
  C:3BE9H         LINE#         46
  C:3BEDH         LINE#         47
  C:3BEFH         LINE#         48
  C:3BF1H         LINE#         49
  C:3BF3H         LINE#         50
  C:3BF3H         LINE#         51
  C:3BF7H         LINE#         52
  C:3BF8H         LINE#         53
  C:3BFAH         LINE#         54
  C:3BFBH         LINE#         55
  C:3BFCH         LINE#         56
  C:3C01H         LINE#         57
  C:3C03H         LINE#         59
  -------         ENDPROC       _SPI_WW
  C:3D7BH         SYMBOL        L?0058
  -------         PROC          L?0057
  -------         ENDPROC       L?0057
  C:3D7BH         SYMBOL        L?0058
  -------         PROC          _RF_WRITEREG
  D:0007H         SYMBOL        reg
  D:0005H         SYMBOL        wdata
  C:3D7FH         LINE#         65
  C:3D7FH         LINE#         66
  C:3D81H         LINE#         67
  C:3D82H         LINE#         68
  C:3D85H         LINE#         69
  C:3D8AH         LINE#         70
  C:3D8BH         LINE#         71
  C:3D8DH         LINE#         72
  -------         ENDPROC       _RF_WRITEREG
  -------         PROC          L?0059
  -------         ENDPROC       L?0059
  -------         PROC          _RF_WRITEBUF
  D:0007H         SYMBOL        reg
  X:001DH         SYMBOL        pBuf
BL51 BANKED LINKER/LOCATER V6.22                                                      12/16/2017  00:33:59  PAGE 64


  X:0020H         SYMBOL        length
  -------         DO            
  D:0005H         SYMBOL        j
  -------         ENDDO         
  C:3741H         LINE#         78
  C:374CH         LINE#         80
  C:374EH         LINE#         81
  C:3750H         LINE#         82
  C:3753H         LINE#         83
  C:375DH         LINE#         84
  C:3774H         LINE#         85
  C:3777H         LINE#         86
  C:3777H         LINE#         87
  C:3779H         LINE#         88
  -------         ENDPROC       _RF_WRITEBUF
  -------         PROC          _SPI_WR
  D:0007H         SYMBOL        R_REG
  -------         DO            
  D:0006H         SYMBOL        i
  -------         ENDDO         
  C:3AF1H         LINE#         94
  C:3AF1H         LINE#         96
  C:3AF3H         LINE#         97
  C:3AF5H         LINE#         98
  C:3AF9H         LINE#         99
  C:3AFBH         LINE#         100
  C:3AFDH         LINE#         101
  C:3AFFH         LINE#         102
  C:3AFFH         LINE#         103
  C:3B03H         LINE#         104
  C:3B04H         LINE#         105
  C:3B06H         LINE#         106
  C:3B07H         LINE#         107
  C:3B08H         LINE#         108
  C:3B0DH         LINE#         109
  C:3B13H         LINE#         111
  C:3B15H         LINE#         113
  -------         ENDPROC       _SPI_WR
  -------         PROC          UCSPI_READ
  -------         DO            
  D:0006H         SYMBOL        i
  D:0007H         SYMBOL        dt
  -------         ENDDO         
  C:3C72H         LINE#         119
  C:3C72H         LINE#         121
  C:3C74H         LINE#         122
  C:3C75H         LINE#         123
  C:3C77H         LINE#         124
  C:3C7BH         LINE#         125
  C:3C7CH         LINE#         126
  C:3C7EH         LINE#         127
  C:3C81H         LINE#         128
  C:3C84H         LINE#         129
  C:3C84H         LINE#         130
  C:3C89H         LINE#         131
  C:3C8BH         LINE#         132
  C:3C8BH         LINE#         133
BL51 BANKED LINKER/LOCATER V6.22                                                      12/16/2017  00:33:59  PAGE 65


  -------         ENDPROC       UCSPI_READ
  -------         PROC          _UCRF_READREG
  D:0007H         SYMBOL        reg
  -------         DO            
  D:0007H         SYMBOL        dt
  -------         ENDDO         
  C:3D8EH         LINE#         139
  C:3D8EH         LINE#         142
  C:3D90H         LINE#         143
  C:3D91H         LINE#         144
  C:3D94H         LINE#         145
  C:3D97H         LINE#         146
  C:3D9DH         LINE#         148
  C:3D9EH         LINE#         149
  C:3DA0H         LINE#         151
  C:3DA0H         LINE#         152
  -------         ENDPROC       _UCRF_READREG
  -------         PROC          _RF_READBUF
  D:0007H         SYMBOL        reg
  X:0004H         SYMBOL        pBuf
  X:0007H         SYMBOL        length
  -------         DO            
  D:0005H         SYMBOL        byte_ctr
  -------         ENDDO         
  C:37FEH         LINE#         158
  C:3809H         LINE#         161
  C:380BH         LINE#         162
  C:380EH         LINE#         163
  C:381AH         LINE#         164
  C:3834H         LINE#         165
  C:383AH         LINE#         167
  C:383CH         LINE#         168
  -------         ENDPROC       _RF_READBUF
  -------         PROC          RF_TXMODE
  C:3E78H         LINE#         174
  C:3E78H         LINE#         175
  C:3E7BH         LINE#         176
  C:3E82H         LINE#         178
  C:3E83H         LINE#         179
  C:3E84H         LINE#         180
  C:3E85H         LINE#         181
  C:3E86H         LINE#         182
  -------         ENDPROC       RF_TXMODE
  -------         PROC          RF_RXMODE
  -------         DO            
  D:0006H         SYMBOL        i
  -------         ENDDO         
  C:3AA6H         LINE#         188
  C:3AA6H         LINE#         189
  C:3AA8H         LINE#         190
  C:3AAEH         LINE#         191
  C:3AB5H         LINE#         192
  C:3ABCH         LINE#         194
  C:3ABFH         LINE#         195
  C:3AC0H         LINE#         196
  C:3ACBH         LINE#         198
  -------         ENDPROC       RF_RXMODE
BL51 BANKED LINKER/LOCATER V6.22                                                      12/16/2017  00:33:59  PAGE 66


  -------         PROC          UCRF_GETSTATUS
  C:3F18H         LINE#         204
  C:3F18H         LINE#         205
  C:3F21H         LINE#         206
  -------         ENDPROC       UCRF_GETSTATUS
  -------         PROC          UCRF_GETRSSI
  C:4037H         LINE#         211
  C:4037H         LINE#         212
  C:403CH         LINE#         213
  -------         ENDPROC       UCRF_GETRSSI
  -------         PROC          RF_CLEARSTATUS
  C:4006H         LINE#         218
  C:4006H         LINE#         219
  -------         ENDPROC       RF_CLEARSTATUS
  -------         PROC          RF_CLEARFIFO
  C:3EE1H         LINE#         226
  C:3EE1H         LINE#         227
  C:3EE8H         LINE#         228
  -------         ENDPROC       RF_CLEARFIFO
  -------         PROC          _RF_SETCHANNEL
  D:0004H         SYMBOL        Channel
  C:3E95H         LINE#         235
  C:3E97H         LINE#         236
  C:3E9AH         LINE#         237
  -------         ENDPROC       _RF_SETCHANNEL
  -------         PROC          _RF_TXDATA
  D:0001H         SYMBOL        ucPayload
  D:0005H         SYMBOL        length
  -------         DO            
  X:0003H         SYMBOL        i
  -------         ENDDO         
  C:377AH         LINE#         247
  C:377AH         LINE#         248
  C:3780H         LINE#         249
  C:3786H         LINE#         250
  C:3790H         LINE#         251
  C:3797H         LINE#         253
  C:379EH         LINE#         254
  C:379FH         LINE#         255
  C:37B9H         LINE#         256
  C:37BCH         LINE#         257
  C:37BCH         LINE#         258
  -------         ENDPROC       _RF_TXDATA
  -------         PROC          _UCRF_DUMPRXDATA
  D:0001H         SYMBOL        ucPayload
  D:0004H         SYMBOL        length
  C:3A06H         LINE#         272
  C:3A08H         LINE#         273
  C:3A0FH         LINE#         275
  C:3A12H         LINE#         276
  C:3A1CH         LINE#         277
  C:3A1FH         LINE#         278
  C:3A22H         LINE#         279
  C:3A29H         LINE#         280
  C:3A2CH         LINE#         281
  C:3A2CH         LINE#         282
  C:3A2EH         LINE#         283
BL51 BANKED LINKER/LOCATER V6.22                                                      12/16/2017  00:33:59  PAGE 67


  -------         ENDPROC       _UCRF_DUMPRXDATA
  -------         PROC          RF_INIT
  -------         DO            
  X:000AH         SYMBOL        BB_cal_data
  X:000FH         SYMBOL        RF_cal_data
  X:0012H         SYMBOL        RF_cal2_data
  X:0018H         SYMBOL        Dem_cal_data
  X:0019H         SYMBOL        Dem_cal2_data
  -------         ENDDO         
  C:2671H         LINE#         293
  C:2671H         LINE#         294
  C:2684H         LINE#         295
  C:2697H         LINE#         296
  C:26AAH         LINE#         297
  C:26BDH         LINE#         298
  C:26D0H         LINE#         299
  C:26D3H         LINE#         300
  C:26DAH         LINE#         301
  C:26E1H         LINE#         303
  C:26E1H         LINE#         304
  C:26E8H         LINE#         305
  C:26E8H         LINE#         306
  C:26E8H         LINE#         307
  C:26E8H         LINE#         308
  C:26EBH         LINE#         309
  C:26F0H         LINE#         310
  C:26F5H         LINE#         311
  C:26FCH         LINE#         312
  C:2703H         LINE#         313
  C:270AH         LINE#         314
  C:2711H         LINE#         315
  C:2718H         LINE#         316
  C:2729H         LINE#         318
  C:273AH         LINE#         320
  C:2741H         LINE#         321
  C:2752H         LINE#         322
  C:2763H         LINE#         323
  C:2774H         LINE#         324
  C:2785H         LINE#         325
  C:278CH         LINE#         326
  C:2793H         LINE#         332
  C:279AH         LINE#         333
  -------         ENDPROC       RF_INIT
  -------         PROC          _RF_CARRIER
  X:0042H         SYMBOL        ucChannel_Set
  -------         DO            
  D:0007H         SYMBOL        i
  X:0043H         SYMBOL        BB_cal_data
  X:0048H         SYMBOL        RF_cal_data
  X:004BH         SYMBOL        RF_cal2_data
  X:0051H         SYMBOL        Dem_cal_data
  X:0052H         SYMBOL        Dem_cal2_data
  -------         ENDDO         
  C:2A95H         LINE#         341
  C:2A9AH         LINE#         342
  C:2A9BH         LINE#         343
  C:2AADH         LINE#         344
BL51 BANKED LINKER/LOCATER V6.22                                                      12/16/2017  00:33:59  PAGE 68


  C:2AC0H         LINE#         345
  C:2AD3H         LINE#         346
  C:2AE6H         LINE#         347
  C:2AF9H         LINE#         349
  C:2B00H         LINE#         350
  C:2B07H         LINE#         351
  C:2B0EH         LINE#         352
  C:2B11H         LINE#         354
  C:2B13H         LINE#         355
  C:2B14H         LINE#         356
  C:2B15H         LINE#         357
  C:2B16H         LINE#         358
  C:2B17H         LINE#         359
  C:2B1CH         LINE#         361
  C:2B26H         LINE#         362
  C:2B2DH         LINE#         363
  C:2B34H         LINE#         364
  C:2B45H         LINE#         365
  C:2B56H         LINE#         366
  C:2B67H         LINE#         367
  -------         ENDPROC       _RF_CARRIER
  -------         ENDMOD        BSP_2D4

  -------         MODULE        BSP_EEPROM
  C:0000H         SYMBOL        _ICE_DUMMY_
  C:366CH         PUBLIC        _erase_DATAFLASH
  D:0080H         PUBLIC        P0
  D:0090H         PUBLIC        P1
  D:00A0H         PUBLIC        P2
  D:00B0H         PUBLIC        P3
  D:00D8H         PUBLIC        P5
  B:00A8H.7       PUBLIC        EA
  D:00A8H         PUBLIC        IE
  D:00C7H         PUBLIC        TA
  C:0003H         PUBLIC        _read_APROM_BYTE
  D:00B8H         PUBLIC        IP
  C:3140H         PUBLIC        _write_DATAFLASH_BYTE
  D:0098H         PUBLIC        SCON
  D:0088H         PUBLIC        TCON
  D:009FH         PUBLIC        CHPCON
  C:4057H         PUBLIC        EEPROM_InitHard
  D:00A5H         PUBLIC        IAPUEN
  D:00F8H         PUBLIC        SCON_1
  D:00A4H         PUBLIC        IAPTRG
  C:2CE5H         PUBLIC        _write_DATAFLASH_BUF
  D:00E8H         PUBLIC        ADCCON0
  D:00C0H         PUBLIC        I2CON
  D:00A7H         PUBLIC        IAPAH
  D:00AEH         PUBLIC        IAPFD
  D:00C8H         PUBLIC        T2CON
  D:00A6H         PUBLIC        IAPAL
  D:00AFH         PUBLIC        IAPCN
  D:00D0H         PUBLIC        PSW
  -------         PROC          EEPROM_INITHARD
  C:4057H         LINE#         11
  C:4057H         LINE#         13
  -------         ENDPROC       EEPROM_INITHARD
BL51 BANKED LINKER/LOCATER V6.22                                                      12/16/2017  00:33:59  PAGE 69


  -------         PROC          _WRITE_DATAFLASH_BYTE
  D:0006H         SYMBOL        u16_addr
  D:0005H         SYMBOL        u8_data
  C:3140H         LINE#         19
  C:3140H         LINE#         60
  C:3143H         LINE#         61
  C:3146H         LINE#         62
  C:3159H         LINE#         64
  C:316CH         LINE#         66
  C:316FH         LINE#         68
  C:3173H         LINE#         69
  C:3186H         LINE#         73
  C:3199H         LINE#         75
  C:31ACH         LINE#         77
  -------         ENDPROC       _WRITE_DATAFLASH_BYTE
  -------         PROC          _ERASE_DATAFLASH
  D:0006H         SYMBOL        u16_addr
  C:366CH         LINE#         78
  C:366CH         LINE#         79
  C:366EH         LINE#         80
  C:3671H         LINE#         81
  C:3674H         LINE#         82
  C:3687H         LINE#         84
  C:369AH         LINE#         86
  C:369DH         LINE#         87
  C:36B0H         LINE#         89
  -------         ENDPROC       _ERASE_DATAFLASH
  -------         PROC          _WRITE_DATAFLASH_BUF
  X:0010H         SYMBOL        u16_addr
  X:0012H         SYMBOL        pt
  X:0015H         SYMBOL        len
  -------         DO            
  D:0006H         SYMBOL        i
  -------         ENDDO         
  C:2CE5H         LINE#         90
  C:2CF6H         LINE#         91
  C:2CF6H         LINE#         92
  C:2CFFH         LINE#         93
  C:2D02H         LINE#         94
  C:2D15H         LINE#         96
  C:2D28H         LINE#         98
  C:2D2BH         LINE#         99
  C:2D3BH         LINE#         100
  C:2D4FH         LINE#         101
  C:2D62H         LINE#         103
  C:2D69H         LINE#         105
  C:2D7CH         LINE#         107
  C:2D8FH         LINE#         109
  -------         ENDPROC       _WRITE_DATAFLASH_BUF
  -------         PROC          _READ_APROM_BYTE
  D:0082H         SYMBOL        u16_addr
  -------         DO            
  D:0007H         SYMBOL        rdata
  -------         ENDDO         
  C:0003H         LINE#         112
  C:0007H         LINE#         114
  C:000AH         LINE#         115
BL51 BANKED LINKER/LOCATER V6.22                                                      12/16/2017  00:33:59  PAGE 70


  C:000AH         LINE#         116
  -------         ENDPROC       _READ_APROM_BYTE
  -------         ENDMOD        BSP_EEPROM

  -------         MODULE        COMMON
  C:0000H         SYMBOL        _ICE_DUMMY_
  D:00B1H         PUBLIC        P0M1
  D:00B3H         PUBLIC        P1M1
  D:00B2H         PUBLIC        P0M2
  D:0080H         PUBLIC        P0
  D:00B5H         PUBLIC        P2M1
  D:00B4H         PUBLIC        P1M2
  D:0090H         PUBLIC        P1
  D:00B6H         PUBLIC        P2M2
  D:00ACH         PUBLIC        P3M1
  D:00A0H         PUBLIC        P2
  D:00DAH         PUBLIC        P4M1
  D:00B0H         PUBLIC        P3
  D:00ADH         PUBLIC        P3M2
  D:00DCH         PUBLIC        P5M1
  D:00DBH         PUBLIC        P4M2
  D:00DDH         PUBLIC        P5M2
  D:00D8H         PUBLIC        P5
  B:00A8H.7       PUBLIC        EA
  C:3C8CH         PUBLIC        Set_All_GPIO_Quasi_Mode
  C:3A2FH         PUBLIC        _InitialUART0_Timer1_Type1
  C:3A58H         PUBLIC        _InitialUART0_Timer1_Type2
  C:39B2H         PUBLIC        _InitialUART0_Timer1_Type3
  C:39DCH         PUBLIC        _InitialUART0_Timer1_Type4
  D:00A8H         PUBLIC        IE
  D:0096H         PUBLIC        CKSWT
  C:327CH         PUBLIC        _InitialUART0_Timer3_Type5
  C:3CA6H         PUBLIC        SW_Reset
  C:32DFH         PUBLIC        _InitialUART0_Timer3_Type6
  C:3BC5H         PUBLIC        Set_All_GPIO_Input_Mode
  D:00C7H         PUBLIC        TA
  D:00B8H         PUBLIC        IP
  B:0098H.0       PUBLIC        RI
  C:252CH         PUBLIC        _System_Clock_Select
  B:0098H.1       PUBLIC        TI
  D:0097H         PUBLIC        CKEN
  C:4041H         PUBLIC        Fsys_Clock_Output_On_P26
  B:00F8H.0       PUBLIC        RI_1
  B:00F8H.1       PUBLIC        TI_1
  D:0099H         PUBLIC        SBUF
  D:0087H         PUBLIC        PCON
  D:0098H         PUBLIC        SCON
  D:0089H         PUBLIC        TMOD
  D:0088H         PUBLIC        TCON
  D:009FH         PUBLIC        CHPCON
  D:009AH         PUBLIC        SBUF_1
  D:00F8H         PUBLIC        SCON_1
  D:00C6H         PUBLIC        R3H
  D:008DH         PUBLIC        TH1
  D:00C5H         PUBLIC        R3L
  C:3402H         PUBLIC        _InitialUART1_Timer3
  B:0088H.6       PUBLIC        TR1
BL51 BANKED LINKER/LOCATER V6.22                                                      12/16/2017  00:33:59  PAGE 71


  D:00E8H         PUBLIC        ADCCON0
  C:3F69H         PUBLIC        _Send_Data_To_UART0
  C:3F79H         PUBLIC        _Send_Data_To_UART1
  D:00C0H         PUBLIC        I2CON
  D:00C8H         PUBLIC        T2CON
  D:00C4H         PUBLIC        T3CON
  C:3F61H         PUBLIC        Receive_Data_From_UART0
  C:3F71H         PUBLIC        Receive_Data_From_UART1
  D:008EH         PUBLIC        CKCON
  D:00D0H         PUBLIC        PSW
  C:383DH         PUBLIC        _putchar
  -------         PROC          _SYSTEM_CLOCK_SELECT
  D:0007H         SYMBOL        clock
  C:252CH         LINE#         25
  C:252CH         LINE#         26
  C:2546H         LINE#         27
  C:2546H         LINE#         29
  C:2559H         LINE#         31
  C:256CH         LINE#         35
  C:2571H         LINE#         39
  C:2571H         LINE#         41
  C:2571H         LINE#         43
  C:2571H         LINE#         45
  C:2571H         LINE#         46
  C:2574H         LINE#         48
  C:2574H         LINE#         50
  C:2587H         LINE#         52
  C:259AH         LINE#         56
  C:259FH         LINE#         60
  C:259FH         LINE#         62
  C:259FH         LINE#         64
  C:259FH         LINE#         66
  C:259FH         LINE#         67
  C:25A2H         LINE#         69
  C:25A2H         LINE#         70
  C:25A2H         LINE#         72
  C:25B5H         LINE#         76
  C:25BAH         LINE#         80
  C:25C9H         LINE#         82
  C:25C9H         LINE#         84
  C:25C9H         LINE#         86
  C:25C9H         LINE#         87
  C:25CBH         LINE#         89
  C:25CBH         LINE#         91
  C:25DEH         LINE#         95
  C:25E3H         LINE#         99
  C:25F6H         LINE#         101
  C:2605H         LINE#         103
  C:2605H         LINE#         105
  C:2605H         LINE#         106
  C:2607H         LINE#         108
  C:2607H         LINE#         110
  C:261AH         LINE#         112
  C:262DH         LINE#         116
  C:2632H         LINE#         120
  C:2645H         LINE#         122
  C:2658H         LINE#         124
BL51 BANKED LINKER/LOCATER V6.22                                                      12/16/2017  00:33:59  PAGE 72


  C:266BH         LINE#         126
  C:266BH         LINE#         127
  C:266BH         LINE#         129
  C:266BH         LINE#         131
  C:2670H         LINE#         133
  -------         ENDPROC       _SYSTEM_CLOCK_SELECT
  -------         PROC          _INITIALUART0_TIMER1_TYPE1
  D:0004H         SYMBOL        u32Baudrate
  C:3A2FH         LINE#         137
  C:3A2FH         LINE#         138
  C:3A2FH         LINE#         139
  C:3A32H         LINE#         140
  C:3A35H         LINE#         142
  C:3A38H         LINE#         143
  C:3A3BH         LINE#         144
  C:3A3EH         LINE#         147
  C:3A55H         LINE#         152
  C:3A57H         LINE#         153
  -------         ENDPROC       _INITIALUART0_TIMER1_TYPE1
  -------         PROC          _INITIALUART0_TIMER1_TYPE2
  D:0004H         SYMBOL        u32Baudrate
  C:3A58H         LINE#         158
  C:3A58H         LINE#         159
  C:3A58H         LINE#         160
  C:3A5BH         LINE#         161
  C:3A5EH         LINE#         163
  C:3A61H         LINE#         164
  C:3A64H         LINE#         165
  C:3A67H         LINE#         168
  C:3A7DH         LINE#         173
  C:3A7FH         LINE#         174
  -------         ENDPROC       _INITIALUART0_TIMER1_TYPE2
  -------         PROC          _INITIALUART0_TIMER1_TYPE3
  D:0004H         SYMBOL        u32Baudrate
  C:39B2H         LINE#         179
  C:39B2H         LINE#         180
  C:39B2H         LINE#         181
  C:39B5H         LINE#         182
  C:39B8H         LINE#         184
  C:39BBH         LINE#         185
  C:39BEH         LINE#         186
  C:39C1H         LINE#         189
  C:39D9H         LINE#         194
  C:39DBH         LINE#         195
  -------         ENDPROC       _INITIALUART0_TIMER1_TYPE3
  -------         PROC          _INITIALUART0_TIMER1_TYPE4
  D:0004H         SYMBOL        u32Baudrate
  C:39DCH         LINE#         200
  C:39DCH         LINE#         201
  C:39DCH         LINE#         202
  C:39DFH         LINE#         203
  C:39E2H         LINE#         205
  C:39E5H         LINE#         206
  C:39E8H         LINE#         207
  C:39EBH         LINE#         210
  C:3A03H         LINE#         215
  C:3A05H         LINE#         216
BL51 BANKED LINKER/LOCATER V6.22                                                      12/16/2017  00:33:59  PAGE 73


  -------         ENDPROC       _INITIALUART0_TIMER1_TYPE4
  -------         PROC          _INITIALUART0_TIMER3_TYPE5
  X:00A4H         SYMBOL        u32Baudrate
  C:327CH         LINE#         218
  C:3282H         LINE#         219
  C:3282H         LINE#         220
  C:3285H         LINE#         221
  C:3288H         LINE#         222
  C:328BH         LINE#         223
  C:328EH         LINE#         226
  C:32BCH         LINE#         227
  C:32DBH         LINE#         233
  C:32DEH         LINE#         234
  -------         ENDPROC       _INITIALUART0_TIMER3_TYPE5
  -------         PROC          _INITIALUART0_TIMER3_TYPE6
  X:00A8H         SYMBOL        u32Baudrate
  C:32DFH         LINE#         236
  C:32E5H         LINE#         237
  C:32E5H         LINE#         238
  C:32E8H         LINE#         239
  C:32EBH         LINE#         240
  C:32EEH         LINE#         241
  C:32F1H         LINE#         244
  C:331FH         LINE#         245
  C:333EH         LINE#         251
  C:3341H         LINE#         252
  -------         ENDPROC       _INITIALUART0_TIMER3_TYPE6
  -------         PROC          _INITIALUART1_TIMER3
  X:00ACH         SYMBOL        u32Baudrate
  C:3402H         LINE#         254
  C:3408H         LINE#         255
  C:3408H         LINE#         256
  C:340BH         LINE#         257
  C:340EH         LINE#         260
  C:343CH         LINE#         261
  C:345BH         LINE#         267
  C:345EH         LINE#         268
  -------         ENDPROC       _INITIALUART1_TIMER3
  -------         PROC          RECEIVE_DATA_FROM_UART0
  -------         DO            
  D:0007H         SYMBOL        c
  -------         ENDDO         
  C:3F61H         LINE#         280
  C:3F61H         LINE#         283
  C:3F64H         LINE#         285
  C:3F66H         LINE#         286
  C:3F68H         LINE#         287
  C:3F68H         LINE#         288
  -------         ENDPROC       RECEIVE_DATA_FROM_UART0
  -------         PROC          _SEND_DATA_TO_UART0
  D:0007H         SYMBOL        c
  C:3F69H         LINE#         300
  C:3F69H         LINE#         301
  C:3F6BH         LINE#         302
  C:3F6DH         LINE#         303
  C:3F70H         LINE#         305
  -------         ENDPROC       _SEND_DATA_TO_UART0
BL51 BANKED LINKER/LOCATER V6.22                                                      12/16/2017  00:33:59  PAGE 74


  -------         PROC          RECEIVE_DATA_FROM_UART1
  -------         DO            
  D:0007H         SYMBOL        c
  -------         ENDDO         
  C:3F71H         LINE#         317
  C:3F71H         LINE#         320
  C:3F74H         LINE#         322
  C:3F76H         LINE#         323
  C:3F78H         LINE#         324
  C:3F78H         LINE#         325
  -------         ENDPROC       RECEIVE_DATA_FROM_UART1
  -------         PROC          _SEND_DATA_TO_UART1
  D:0007H         SYMBOL        c
  C:3F79H         LINE#         337
  C:3F79H         LINE#         338
  C:3F7BH         LINE#         339
  C:3F7DH         LINE#         340
  C:3F80H         LINE#         342
  -------         ENDPROC       _SEND_DATA_TO_UART1
  -------         PROC          SET_ALL_GPIO_QUASI_MODE
  C:3C8CH         LINE#         344
  C:3C8CH         LINE#         345
  C:3C8FH         LINE#         346
  C:3C91H         LINE#         347
  C:3C93H         LINE#         348
  C:3C95H         LINE#         349
  C:3C97H         LINE#         350
  C:3C99H         LINE#         351
  C:3C9BH         LINE#         352
  C:3C9DH         LINE#         353
  C:3C9FH         LINE#         354
  C:3CA1H         LINE#         355
  C:3CA3H         LINE#         356
  C:3CA5H         LINE#         357
  -------         ENDPROC       SET_ALL_GPIO_QUASI_MODE
  -------         PROC          SET_ALL_GPIO_INPUT_MODE
  C:3BC5H         LINE#         359
  C:3BC5H         LINE#         360
  C:3BC8H         LINE#         361
  C:3BCBH         LINE#         362
  C:3BCEH         LINE#         363
  C:3BD0H         LINE#         364
  C:3BD3H         LINE#         365
  C:3BD5H         LINE#         366
  C:3BD8H         LINE#         367
  C:3BDAH         LINE#         368
  C:3BDDH         LINE#         369
  C:3BDFH         LINE#         370
  C:3BE2H         LINE#         371
  C:3BE4H         LINE#         372
  -------         ENDPROC       SET_ALL_GPIO_INPUT_MODE
  -------         PROC          SW_RESET
  C:3CA6H         LINE#         375
  C:3CA6H         LINE#         376
  C:3CA9H         LINE#         377
  C:3CACH         LINE#         378
  C:3CBFH         LINE#         380
BL51 BANKED LINKER/LOCATER V6.22                                                      12/16/2017  00:33:59  PAGE 75


  -------         ENDPROC       SW_RESET
  -------         PROC          FSYS_CLOCK_OUTPUT_ON_P26
  C:4041H         LINE#         382
  C:4041H         LINE#         383
  C:4044H         LINE#         384
  -------         ENDPROC       FSYS_CLOCK_OUTPUT_ON_P26
  -------         PROC          _PUTCHAR
  D:0007H         SYMBOL        c
  C:383DH         LINE#         393
  C:383DH         LINE#         431
  C:3842H         LINE#         432
  C:3845H         LINE#         433
  C:384AH         LINE#         434
  C:384AH         LINE#         435
  C:384CH         LINE#         436
  C:384FH         LINE#         438
  C:3854H         LINE#         439
  C:3856H         LINE#         440
  C:3856H         LINE#         441
  C:3856H         LINE#         442
  C:3859H         LINE#         444
  C:385BH         LINE#         445
  C:385EH         LINE#         446
  C:385EH         LINE#         447
  C:3861H         LINE#         448
  C:3866H         LINE#         449
  C:3866H         LINE#         450
  C:3868H         LINE#         451
  C:386BH         LINE#         453
  C:3870H         LINE#         454
  C:3872H         LINE#         455
  C:3872H         LINE#         456
  C:3872H         LINE#         457
  C:3875H         LINE#         459
  C:3877H         LINE#         460
  C:3879H         LINE#         462
  -------         ENDPROC       _PUTCHAR
  -------         ENDMOD        COMMON

  -------         MODULE        DELAY
  C:0000H         SYMBOL        _ICE_DUMMY_
  D:0080H         PUBLIC        P0
  D:0090H         PUBLIC        P1
  D:00A0H         PUBLIC        P2
  D:00B0H         PUBLIC        P3
  D:008FH         PUBLIC        WKCON
  D:00D8H         PUBLIC        P5
  D:00A8H         PUBLIC        IE
  D:00B8H         PUBLIC        IP
  C:3516H         PUBLIC        _Timer0_Delay1ms
  C:356FH         PUBLIC        _Timer1_Delay1ms
  C:34BBH         PUBLIC        _Timer3_Delay1ms
  D:0098H         PUBLIC        SCON
  D:0089H         PUBLIC        TMOD
  D:0088H         PUBLIC        TCON
  C:2FD7H         PUBLIC        _?Random_Delay
  C:3BA4H         PUBLIC        _Delay10us
BL51 BANKED LINKER/LOCATER V6.22                                                      12/16/2017  00:33:59  PAGE 76


  D:00F8H         PUBLIC        SCON_1
  B:0088H.5       PUBLIC        TF0
  B:0088H.7       PUBLIC        TF1
  D:008CH         PUBLIC        TH0
  D:00C6H         PUBLIC        R3H
  D:008DH         PUBLIC        TH1
  D:008AH         PUBLIC        TL0
  C:3342H         PUBLIC        _WakeUp_Timer_Delay25ms
  D:00C5H         PUBLIC        R3L
  D:008BH         PUBLIC        TL1
  B:0088H.4       PUBLIC        TR0
  B:0088H.6       PUBLIC        TR1
  D:00E8H         PUBLIC        ADCCON0
  D:00C0H         PUBLIC        I2CON
  D:00C8H         PUBLIC        T2CON
  D:00C4H         PUBLIC        T3CON
  D:008EH         PUBLIC        CKCON
  D:0086H         PUBLIC        RWK
  D:00D0H         PUBLIC        PSW
  -------         PROC          _?RANDOM_DELAY
  -------         DO            
  x:0000H         SYMBOL        u32CNT
  x:0004H         SYMBOL        u32Tmp
  -------         ENDDO         
  C:2FD7H         LINE#         36
  C:2FDDH         LINE#         37
  C:2FDDH         LINE#         41
  C:3008H         LINE#         42
  C:3008H         LINE#         43
  C:302DH         LINE#         44
  C:3054H         LINE#         45
  -------         ENDPROC       _?RANDOM_DELAY
  -------         PROC          _DELAY10US
  D:0006H         SYMBOL        u16CNT
  C:3BA4H         LINE#         47
  C:3BA4H         LINE#         48
  C:3BA7H         LINE#         49
  C:3BAAH         LINE#         50
  C:3BACH         LINE#         51
  C:3BB0H         LINE#         52
  C:3BB3H         LINE#         53
  C:3BB6H         LINE#         54
  C:3BB9H         LINE#         56
  C:3BBBH         LINE#         57
  C:3BC0H         LINE#         58
  C:3BC2H         LINE#         59
  C:3BC4H         LINE#         60
  -------         ENDPROC       _DELAY10US
  -------         PROC          _TIMER0_DELAY1MS
  X:00B0H         SYMBOL        u32CNT
  C:3516H         LINE#         62
  C:351CH         LINE#         63
  C:351FH         LINE#         64
  C:3522H         LINE#         65
  C:3524H         LINE#         66
  C:353DH         LINE#         67
  C:3540H         LINE#         68
BL51 BANKED LINKER/LOCATER V6.22                                                      12/16/2017  00:33:59  PAGE 77


  C:3543H         LINE#         69
  C:3546H         LINE#         71
  C:3548H         LINE#         72
  C:356AH         LINE#         73
  C:356CH         LINE#         74
  C:356EH         LINE#         75
  -------         ENDPROC       _TIMER0_DELAY1MS
  -------         PROC          _TIMER1_DELAY1MS
  X:00B4H         SYMBOL        u32CNT
  C:356FH         LINE#         77
  C:3575H         LINE#         78
  C:3578H         LINE#         79
  C:357BH         LINE#         80
  C:357DH         LINE#         81
  C:3596H         LINE#         82
  C:3599H         LINE#         83
  C:359CH         LINE#         84
  C:359FH         LINE#         86
  C:35A1H         LINE#         87
  C:35C3H         LINE#         88
  C:35C5H         LINE#         89
  C:35C7H         LINE#         90
  -------         ENDPROC       _TIMER1_DELAY1MS
  -------         PROC          _TIMER3_DELAY1MS
  X:00B8H         SYMBOL        u32CNT
  C:34BBH         LINE#         92
  C:34C1H         LINE#         93
  C:34C4H         LINE#         94
  C:34C7H         LINE#         95
  C:34E0H         LINE#         96
  C:34E3H         LINE#         97
  C:34E6H         LINE#         98
  C:34EBH         LINE#         100
  C:34EEH         LINE#         101
  C:3510H         LINE#         102
  C:3512H         LINE#         103
  C:3515H         LINE#         104
  -------         ENDPROC       _TIMER3_DELAY1MS
  -------         PROC          _WAKEUP_TIMER_DELAY25MS
  X:00BCH         SYMBOL        u32CNT
  C:3342H         LINE#         106
  C:3348H         LINE#         107
  C:3348H         LINE#         108
  C:334BH         LINE#         109
  C:334EH         LINE#         110
  C:3351H         LINE#         112
  C:3354H         LINE#         114
  C:3357H         LINE#         115
  C:335AH         LINE#         116
  C:3373H         LINE#         117
  C:3378H         LINE#         119
  C:337BH         LINE#         120
  C:339DH         LINE#         121
  C:339FH         LINE#         122
  C:33A2H         LINE#         123
  -------         ENDPROC       _WAKEUP_TIMER_DELAY25MS
  -------         ENDMOD        DELAY
BL51 BANKED LINKER/LOCATER V6.22                                                      12/16/2017  00:33:59  PAGE 78



  -------         MODULE        VERSION
  C:0000H         SYMBOL        _ICE_DUMMY_
  D:0080H         PUBLIC        P0
  D:0090H         PUBLIC        P1
  D:00A0H         PUBLIC        P2
  D:00B0H         PUBLIC        P3
  D:00D8H         PUBLIC        P5
  D:00A8H         PUBLIC        IE
  D:00B8H         PUBLIC        IP
  D:0098H         PUBLIC        SCON
  D:0088H         PUBLIC        TCON
  D:00F8H         PUBLIC        SCON_1
  C:33A3H         PUBLIC        Show_FW_Version_Number_To_PC
  D:00E8H         PUBLIC        ADCCON0
  D:00C0H         PUBLIC        I2CON
  D:00C8H         PUBLIC        T2CON
  D:00D0H         PUBLIC        PSW
  -------         PROC          SHOW_FW_VERSION_NUMBER_TO_PC
  C:33A3H         LINE#         32
  C:33A3H         LINE#         33
  C:33A3H         LINE#         34
  C:33ACH         LINE#         35
  C:33B5H         LINE#         36
  C:33BEH         LINE#         37
  C:33D8H         LINE#         38
  C:33F9H         LINE#         39
  -------         ENDPROC       SHOW_FW_VERSION_NUMBER_TO_PC
  -------         ENDMOD        VERSION

  -------         MODULE        ?C_STARTUP
  C:2E32H         SEGMENT       ?C_C51STARTUP
  I:00C6H         SEGMENT       ?STACK
  C:0000H         PUBLIC        ?C_STARTUP
  D:00E0H         SYMBOL        ACC
  D:00F0H         SYMBOL        B
  D:0083H         SYMBOL        DPH
  D:0082H         SYMBOL        DPL
  N:0000H         SYMBOL        IBPSTACK
  N:0100H         SYMBOL        IBPSTACKTOP
  N:0080H         SYMBOL        IDATALEN
  C:2E35H         SYMBOL        IDATALOOP
  N:0000H         SYMBOL        PBPSTACK
  N:0000H         SYMBOL        PBPSTACKTOP
  N:0000H         SYMBOL        PDATALEN
  N:0000H         SYMBOL        PDATASTART
  N:0000H         SYMBOL        PPAGE
  N:0000H         SYMBOL        PPAGEENABLE
  D:00A0H         SYMBOL        PPAGE_SFR
  D:0081H         SYMBOL        SP
  C:2E32H         SYMBOL        STARTUP1
  N:0000H         SYMBOL        XBPSTACK
  N:0000H         SYMBOL        XBPSTACKTOP
  N:00FFH         SYMBOL        XDATALEN
  C:2E40H         SYMBOL        XDATALOOP
  N:0000H         SYMBOL        XDATASTART
  C:0000H         LINE#         92
BL51 BANKED LINKER/LOCATER V6.22                                                      12/16/2017  00:33:59  PAGE 79


  C:2E32H         LINE#         99
  C:2E34H         LINE#         100
  C:2E35H         LINE#         101
  C:2E36H         LINE#         102
  C:2E38H         LINE#         106
  C:2E3BH         LINE#         107
  C:2E3DH         LINE#         109
  C:2E3FH         LINE#         113
  C:2E40H         LINE#         114
  C:2E41H         LINE#         115
  C:2E42H         LINE#         116
  C:2E44H         LINE#         117
  C:2E46H         LINE#         151
  C:2E49H         LINE#         155
  -------         ENDMOD        ?C_STARTUP

  -------         MODULE        ?C?COPY
  C:1BBAH         PUBLIC        ?C?COPY
  -------         ENDMOD        ?C?COPY

  -------         MODULE        ?C?CLDPTR
  C:1BE0H         PUBLIC        ?C?CLDPTR
  -------         ENDMOD        ?C?CLDPTR

  -------         MODULE        ?C?CLDOPTR
  C:1BF9H         PUBLIC        ?C?CLDOPTR
  -------         ENDMOD        ?C?CLDOPTR

  -------         MODULE        ?C?CILDOPTR
  C:1C26H         PUBLIC        ?C?CILDOPTR
  -------         ENDMOD        ?C?CILDOPTR

  -------         MODULE        ?C?CSTOPTR
  C:1C59H         PUBLIC        ?C?CSTOPTR
  -------         ENDMOD        ?C?CSTOPTR

  -------         MODULE        ?C?IILDX
  C:1C7BH         PUBLIC        ?C?IILDX
  -------         ENDMOD        ?C?IILDX

  -------         MODULE        ?C?ILDOPTR
  C:1C91H         PUBLIC        ?C?ILDOPTR
  -------         ENDMOD        ?C?ILDOPTR

  -------         MODULE        ?C?IILDOPTR
  C:1CC9H         PUBLIC        ?C?IILDOPTR
  -------         ENDMOD        ?C?IILDOPTR

  -------         MODULE        ?C?ISTOPTR
  C:1D16H         PUBLIC        ?C?ISTOPTR
  -------         ENDMOD        ?C?ISTOPTR

  -------         MODULE        ?C?ULDIV
  C:1D7FH         PUBLIC        ?C?ULDIV
  -------         ENDMOD        ?C?ULDIV

  -------         MODULE        ?C?ULCMP
BL51 BANKED LINKER/LOCATER V6.22                                                      12/16/2017  00:33:59  PAGE 80


  C:1E11H         PUBLIC        ?C?ULCMP
  -------         ENDMOD        ?C?ULCMP

  -------         MODULE        ?C?ULSHR
  C:1E22H         PUBLIC        ?C?ULSHR
  -------         ENDMOD        ?C?ULSHR

  -------         MODULE        ?C?LSTXDATA
  C:1E35H         PUBLIC        ?C?LSTXDATA
  -------         ENDMOD        ?C?LSTXDATA

  -------         MODULE        ?C?LSTKXDATA
  C:1E41H         PUBLIC        ?C?LSTKXDATA
  -------         ENDMOD        ?C?LSTKXDATA

  -------         MODULE        ?C?PLDPTR
  C:1E72H         PUBLIC        ?C?PLDPTR
  -------         ENDMOD        ?C?PLDPTR

  -------         MODULE        ?C?CCASE
  C:1E92H         PUBLIC        ?C?CCASE
  -------         ENDMOD        ?C?CCASE

  -------         MODULE        ?C?ICALL
  C:1EB8H         PUBLIC        ?C?ICALL
  C:1EBCH         PUBLIC        ?C?ICALL2
  -------         ENDMOD        ?C?ICALL

  -------         MODULE        ?C_XBP
  D:000DH         PUBLIC        ?C_XBP
  -------         ENDMOD        ?C_XBP

  -------         MODULE        ?C?ADDXBP
  C:1EBEH         PUBLIC        ?C?ADDXBP
  -------         ENDMOD        ?C?ADDXBP

  -------         MODULE        ?C?XBPOFF
  C:1EE2H         PUBLIC        ?C?XBPOFF
  -------         ENDMOD        ?C?XBPOFF

  -------         MODULE        PRINTF
  X:001AH         PUBLIC        ?_PRINTF517?BYTE
  X:001AH         PUBLIC        ?_PRINTF?BYTE
  X:001AH         PUBLIC        ?_SPRINTF517?BYTE
  X:001AH         PUBLIC        ?_SPRINTF?BYTE
  C:20DEH         PUBLIC        _PRINTF
  C:20DEH         PUBLIC        _PRINTF517
  C:20D8H         PUBLIC        _SPRINTF
  C:20D8H         PUBLIC        _SPRINTF517
  -------         ENDMOD        PRINTF

  -------         MODULE        ?C?STRCPY
  C:1FBBH         PUBLIC        ?C?STRCPY
  -------         ENDMOD        ?C?STRCPY

  -------         MODULE        STRNCPY
  X:000FH         PUBLIC        ?_strncpy?BYTE
BL51 BANKED LINKER/LOCATER V6.22                                                      12/16/2017  00:33:59  PAGE 81


  C:31ADH         PUBLIC        _strncpy
  -------         ENDMOD        STRNCPY

  -------         MODULE        STRLEN
  C:3D04H         PUBLIC        _STRLEN
  -------         ENDMOD        STRLEN

  -------         MODULE        ?C?MEMSET
  C:1FD8H         PUBLIC        ?C?MEMSET
  -------         ENDMOD        ?C?MEMSET

  -------         MODULE        ?C?CSTPTR
  C:2004H         PUBLIC        ?C?CSTPTR
  -------         ENDMOD        ?C?CSTPTR

  -------         MODULE        ?C?ILDIX
  C:2016H         PUBLIC        ?C?ILDIX
  -------         ENDMOD        ?C?ILDIX

  -------         MODULE        ?C?PLDIDATA
  C:202CH         PUBLIC        ?C?PLDIDATA
  -------         ENDMOD        ?C?PLDIDATA

  -------         MODULE        ?C?PLDXDATA
  C:2035H         PUBLIC        ?C?PLDXDATA
  -------         ENDMOD        ?C?PLDXDATA

  -------         MODULE        ?C?PLDIXDATA
  C:203EH         PUBLIC        ?C?PLDIXDATA
  -------         ENDMOD        ?C?PLDIXDATA

  -------         MODULE        ?C?PSTXDATA
  C:2055H         PUBLIC        ?C?PSTXDATA
  -------         ENDMOD        ?C?PSTXDATA

  -------         MODULE        ?C?PLDPDATA
  C:205EH         PUBLIC        ?C?PLDPDATA
  -------         ENDMOD        ?C?PLDPDATA

  -------         MODULE        ?C?PLDCODE
  C:2067H         PUBLIC        ?C?PLDCODE
  -------         ENDMOD        ?C?PLDCODE

Program Size: data=196.3 xdata=196 code=16472
LINK/LOCATE RUN COMPLETE.  0 WARNING(S),  0 ERROR(S)
