BL51 BANKED LINKER/LOCATER V6.22                                                        11/01/2017  06:16:47  PAGE 1


BL51 BANKED LINKER/LOCATER V6.22, INVOKED BY:
C:\KEIL_V5\C51\BIN\BL51.EXE .\Out\Objects\main.obj, .\Out\Objects\app_key.obj, .\Out\Objects\app_work.obj, .\Out\Objects
>> \app_repeat_exe.obj, .\Out\Objects\app_2d4.obj, .\Out\Objects\app_lcd.obj, .\Out\Objects\bsp.obj, .\Out\Objects\bsp_k
>> ey.obj, .\Out\Objects\bsp_display.obj, .\Out\Objects\bsp_timer0.obj, .\Out\Objects\bsp_adc.obj, .\Out\Objects\bsp_key
>> Bright.obj, .\Out\Objects\bsp_lcdBright.obj, .\Out\Objects\bsp_2d4.obj, .\Out\Objects\Common.obj, .\Out\Objects\Delay
>> .obj, .\Out\Objects\Version.obj, .\Out\Objects\STARTUP.obj TO .\Out\Objects\project PRINT (.\Out\Listings\project.m51
>> ) RAMSIZE (256) DISABLEWARNING (16)


MEMORY MODEL: LARGE


INPUT MODULES INCLUDED:
  .\Out\Objects\main.obj (MAIN)
  .\Out\Objects\app_key.obj (APP_KEY)
  .\Out\Objects\app_work.obj (APP_WORK)
  .\Out\Objects\app_repeat_exe.obj (APP_REPEAT_EXE)
  .\Out\Objects\app_2d4.obj (APP_2D4)
  .\Out\Objects\app_lcd.obj (APP_LCD)
  .\Out\Objects\bsp.obj (BSP)
  .\Out\Objects\bsp_key.obj (BSP_KEY)
  .\Out\Objects\bsp_display.obj (BSP_DISPLAY)
  .\Out\Objects\bsp_timer0.obj (BSP_TIMER0)
  .\Out\Objects\bsp_adc.obj (BSP_ADC)
  .\Out\Objects\bsp_keyBright.obj (BSP_KEYBRIGHT)
  .\Out\Objects\bsp_lcdBright.obj (BSP_LCDBRIGHT)
  .\Out\Objects\bsp_2d4.obj (BSP_2D4)
  .\Out\Objects\Common.obj (COMMON)
  .\Out\Objects\Delay.obj (DELAY)
  .\Out\Objects\Version.obj (VERSION)
  .\Out\Objects\STARTUP.obj (?C_STARTUP)
  C:\KEIL_V5\C51\LIB\C51L.LIB (?C_INIT)
  C:\KEIL_V5\C51\LIB\C51L.LIB (?C?COPY)
  C:\KEIL_V5\C51\LIB\C51L.LIB (?C?CLDPTR)
  C:\KEIL_V5\C51\LIB\C51L.LIB (?C?CLDOPTR)
  C:\KEIL_V5\C51\LIB\C51L.LIB (?C?CILDOPTR)
  C:\KEIL_V5\C51\LIB\C51L.LIB (?C?CSTOPTR)
  C:\KEIL_V5\C51\LIB\C51L.LIB (?C?IILDX)
  C:\KEIL_V5\C51\LIB\C51L.LIB (?C?ILDOPTR)
  C:\KEIL_V5\C51\LIB\C51L.LIB (?C?IILDOPTR)
  C:\KEIL_V5\C51\LIB\C51L.LIB (?C?ISTOPTR)
  C:\KEIL_V5\C51\LIB\C51L.LIB (?C?ULDIV)
  C:\KEIL_V5\C51\LIB\C51L.LIB (?C?ULCMP)
  C:\KEIL_V5\C51\LIB\C51L.LIB (?C?ULSHR)
  C:\KEIL_V5\C51\LIB\C51L.LIB (?C?LSTXDATA)
  C:\KEIL_V5\C51\LIB\C51L.LIB (?C?LSTKXDATA)
  C:\KEIL_V5\C51\LIB\C51L.LIB (?C?PLDPTR)
  C:\KEIL_V5\C51\LIB\C51L.LIB (?C?CCASE)
  C:\KEIL_V5\C51\LIB\C51L.LIB (?C?ICALL)
  C:\KEIL_V5\C51\LIB\C51L.LIB (?C_XBP)
  C:\KEIL_V5\C51\LIB\C51L.LIB (?C?ADDXBP)
  C:\KEIL_V5\C51\LIB\C51L.LIB (?C?XBPOFF)
  C:\KEIL_V5\C51\LIB\C51L.LIB (PRINTF)
  C:\KEIL_V5\C51\LIB\C51L.LIB (?C?STRCPY)
  C:\KEIL_V5\C51\LIB\C51L.LIB (STRNCPY)
  C:\KEIL_V5\C51\LIB\C51L.LIB (STRLEN)
  C:\KEIL_V5\C51\LIB\C51L.LIB (?C?MEMSET)
  C:\KEIL_V5\C51\LIB\C51L.LIB (?C?CSTPTR)
BL51 BANKED LINKER/LOCATER V6.22                                                      11/01/2017  06:16:47  PAGE 2


  C:\KEIL_V5\C51\LIB\C51L.LIB (?C?ILDIX)
  C:\KEIL_V5\C51\LIB\C51L.LIB (?C?PLDIDATA)
  C:\KEIL_V5\C51\LIB\C51L.LIB (?C?PLDXDATA)
  C:\KEIL_V5\C51\LIB\C51L.LIB (?C?PLDIXDATA)
  C:\KEIL_V5\C51\LIB\C51L.LIB (?C?PSTXDATA)
  C:\KEIL_V5\C51\LIB\C51L.LIB (?C?PLDPDATA)
  C:\KEIL_V5\C51\LIB\C51L.LIB (?C?PLDCODE)


LINK MAP OF MODULE:  .\Out\Objects\project (MAIN)


            TYPE    BASE      LENGTH    RELOCATION   SEGMENT NAME
            -----------------------------------------------------

            * * * * * * *   D A T A   M E M O R Y   * * * * * * *
            REG     0000H     0008H     ABSOLUTE     "REG BANK 0"
            DATA    0008H     0005H     UNIT         _DATA_GROUP_
            DATA    000DH     0002H     UNIT         ?C?LIB_DATA
            IDATA   000FH     0006H     UNIT         ?ID?APP_WORK
            IDATA   0015H     0005H     UNIT         ?ID?BSP_ADC
                    001AH     0006H                  *** GAP ***
            BIT     0020H.0   0001H.1   UNIT         _BIT_GROUP_
            BIT     0021H.1   0000H.1   UNIT         ?BI?BSP
                    0021H.2   0000H.6                *** GAP ***
            IDATA   0022H     007BH     UNIT         ?ID?BSP_KEY
            IDATA   009DH     0021H     UNIT         ?ID?APP_2D4
            IDATA   00BEH     0001H     UNIT         ?STACK

            * * * * * * *  X D A T A   M E M O R Y  * * * * * * *
            XDATA   0000H     0040H     UNIT         _XDATA_GROUP_
            XDATA   0040H     0020H     UNIT         ?XD?APP_2D4
            XDATA   0060H     0013H     UNIT         ?XD?_RF_CARRIER?BSP_2D4
            XDATA   0073H     0012H     UNIT         ?XD?MAIN
            XDATA   0085H     0012H     UNIT         ?XD?APP_REPEAT_EXE
            XDATA   0097H     0010H     UNIT         ?XD?APP_LCD
            XDATA   00A7H     000BH     UNIT         ?XD?BSP_TIMER0
            XDATA   00B2H     0007H     UNIT         ?XD?BSP_KEY
            XDATA   00B9H     0005H     UNIT         ?XD?BSP_2D4
            XDATA   00BEH     0004H     UNIT         ?XD?_INITIALUART0_TIMER3_TYPE5?COMMON
            XDATA   00C2H     0004H     UNIT         ?XD?_INITIALUART0_TIMER3_TYPE6?COMMON
            XDATA   00C6H     0004H     UNIT         ?XD?_INITIALUART1_TIMER3?COMMON
            XDATA   00CAH     0004H     UNIT         ?XD?_TIMER0_DELAY1MS?DELAY
            XDATA   00CEH     0004H     UNIT         ?XD?_TIMER1_DELAY1MS?DELAY
            XDATA   00D2H     0004H     UNIT         ?XD?_TIMER3_DELAY1MS?DELAY
            XDATA   00D6H     0004H     UNIT         ?XD?_WAKEUP_TIMER_DELAY25MS?DELAY

            * * * * * * *   C O D E   M E M O R Y   * * * * * * *
            CODE    0000H     0003H     ABSOLUTE     
            CODE    0003H     0008H     UNIT         ?CO?APP_LCD
            CODE    000BH     0003H     ABSOLUTE     
            CODE    000EH     004DH     UNIT         ?PR?APP_2D4_PRO?APP_2D4
            CODE    005BH     0003H     ABSOLUTE     
            CODE    005EH     08FAH     UNIT         ?PR?_LCD_SHOWCHAR?BSP_DISPLAY
            CODE    0958H     07E4H     UNIT         ?PR?_APP_2D4_RCV?APP_2D4
            CODE    113CH     0589H     UNIT         ?C?LIB_CODE
            CODE    16C5H     03F5H     UNIT         ?PR?_APP_KEY_PRO?APP_KEY
BL51 BANKED LINKER/LOCATER V6.22                                                      11/01/2017  06:16:47  PAGE 3


            CODE    1ABAH     0365H     UNIT         ?PR?PRINTF?PRINTF
            CODE    1E1FH     0154H     UNIT         ?PR?_BSP_DETECTKEY?BSP_KEY
            CODE    1F73H     0145H     UNIT         ?PR?_SYSTEM_CLOCK_SELECT?COMMON
            CODE    20B8H     012EH     UNIT         ?PR?RF_INIT?BSP_2D4
            CODE    21E6H     0112H     UNIT         ?CO?VERSION
            CODE    22F8H     00E4H     UNIT         ?PR?_LCD_CLEAR_MI?BSP_DISPLAY
            CODE    23DCH     00E3H     UNIT         ?PR?_RF_CARRIER?BSP_2D4
            CODE    24BFH     00DBH     UNIT         ?CO?APP_2D4
            CODE    259AH     00B5H     UNIT         ?PR?REPEAT_PRO?APP_REPEAT_EXE
            CODE    264FH     00B0H     UNIT         ?PR?BSP_INITKEYVAR?BSP_KEY
            CODE    26FFH     00A2H     UNIT         ?PR?_LCD_SHOWSTRING?BSP_DISPLAY
            CODE    27A1H     009AH     UNIT         ?C_C51STARTUP
            CODE    283BH     0096H     UNIT         ?C_INITSEG
            CODE    28D1H     008FH     UNIT         ?PR?MAIN?MAIN
            CODE    2960H     0083H     UNIT         ?PR?_?RANDOM_DELAY?DELAY
            CODE    29E3H     0079H     UNIT         ?PR?TIMER0_ISR?BSP_TIMER0
            CODE    2A5CH     0068H     UNIT         ?PR?_STRNCPY?STRNCPY
            CODE    2AC4H     0067H     UNIT         ?PR?_ISKEYDOWN?BSP_KEY
            CODE    2B2BH     0063H     UNIT         ?PR?_INITIALUART0_TIMER3_TYPE5?COMMON
            CODE    2B8EH     0063H     UNIT         ?PR?_INITIALUART0_TIMER3_TYPE6?COMMON
            CODE    2BF1H     0061H     UNIT         ?PR?_WAKEUP_TIMER_DELAY25MS?DELAY
            CODE    2C52H     005FH     UNIT         ?PR?SHOW_FW_VERSION_NUMBER_TO_PC?VERSION
            CODE    2CB1H     005DH     UNIT         ?PR?_INITIALUART1_TIMER3?COMMON
            CODE    2D0EH     005CH     UNIT         ?PR?ADC_ISR?MAIN
            CODE    2D6AH     005BH     UNIT         ?PR?_TIMER3_DELAY1MS?DELAY
            CODE    2DC5H     0059H     UNIT         ?PR?_TIMER0_DELAY1MS?DELAY
            CODE    2E1EH     0059H     UNIT         ?PR?_TIMER1_DELAY1MS?DELAY
            CODE    2E77H     0051H     UNIT         ?PR?_APP_2D4_SEND?APP_2D4
            CODE    2EC8H     004BH     UNIT         ?PR?_APP_LCD_DEFAULT_STRING_SET?APP_LCD
            CODE    2F13H     0043H     UNIT         ?PR?_RF_WRITEBUF?BSP_2D4
            CODE    2F56H     0043H     UNIT         ?PR?_RF_TXDATA?BSP_2D4
            CODE    2F99H     003FH     UNIT         ?PR?_RF_READBUF?BSP_2D4
            CODE    2FD8H     003DH     UNIT         ?PR?VOL_RESP?APP_2D4
            CODE    3015H     003DH     UNIT         ?PR?_PUTCHAR?COMMON
            CODE    3052H     0036H     UNIT         ?PR?LCD_DISPLAY_INITHARD?BSP_DISPLAY
            CODE    3088H     0033H     UNIT         ?PR?ADC_INIT?BSP_ADC
            CODE    30BBH     0032H     UNIT         ?PR?_REPEAT_START?APP_REPEAT_EXE
            CODE    30EDH     0032H     UNIT         ?PR?USB_TRACK_SHOW_LCD_RESP?APP_2D4
            CODE    311FH     0030H     UNIT         ?PR?FM_STATION_SHOW_LCD_RESP?APP_2D4
            CODE    314FH     002AH     UNIT         ?PR?_INITIALUART0_TIMER1_TYPE3?COMMON
            CODE    3179H     002AH     UNIT         ?PR?_INITIALUART0_TIMER1_TYPE4?COMMON
            CODE    31A3H     0029H     UNIT         ?PR?_UCRF_DUMPRXDATA?BSP_2D4
            CODE    31CCH     0029H     UNIT         ?PR?_INITIALUART0_TIMER1_TYPE1?COMMON
            CODE    31F5H     0028H     UNIT         ?PR?_INITIALUART0_TIMER1_TYPE2?COMMON
            CODE    321DH     0026H     UNIT         ?PR?TIMER0_PARAMINIT?BSP_TIMER0
            CODE    3243H     0026H     UNIT         ?PR?RF_RXMODE?BSP_2D4
            CODE    3269H     0025H     UNIT         ?PR?APP_2D4_INIT?APP_2D4
            CODE    328EH     0024H     UNIT         ?PR?_BSP_SETKEYPARAM?BSP_KEY
            CODE    32B2H     0024H     UNIT         ?CO?BSP_2D4
            CODE    32D6H     0023H     UNIT         ?PR?TIMER0_INITHARD?BSP_TIMER0
            CODE    32F9H     0023H     UNIT         ?PR?_SPI_WR?BSP_2D4
            CODE    331CH     0021H     UNIT         ?PR?ADC_START?BSP_ADC
            CODE    333DH     0021H     UNIT         ?PR?_DELAY10US?DELAY
            CODE    335EH     0020H     UNIT         ?PR?SET_ALL_GPIO_INPUT_MODE?COMMON
            CODE    337EH     001DH     UNIT         ?PR?_SPI_WW?BSP_2D4
            CODE    339BH     001CH     UNIT         ?PR?BSP_GETKEY?BSP_KEY
            CODE    33B7H     001CH     UNIT         ?PR?BSP_GETKEY2?BSP_KEY
BL51 BANKED LINKER/LOCATER V6.22                                                      11/01/2017  06:16:47  PAGE 4


            CODE    33D3H     001BH     UNIT         ?PR?BSP_INIT?BSP
            CODE    33EEH     001BH     UNIT         ?PR?BSP_KEYSCAN?BSP_KEY
            CODE    3409H     001AH     UNIT         ?PR?SET_ALL_GPIO_QUASI_MODE?COMMON
            CODE    3423H     001AH     UNIT         ?PR?SW_RESET?COMMON
            CODE    343DH     0019H     UNIT         ?PR?UCSPI_READ?BSP_2D4
            CODE    3456H     0016H     UNIT         ?PR?SPEAKER_STATUS_RESP?APP_2D4
            CODE    346CH     0016H     UNIT         ?PR?RELAY_STATUS_RESP?APP_2D4
            CODE    3482H     0015H     UNIT         ?PR?_STRLEN?STRLEN
            CODE    3497H     0014H     UNIT         ?PR?REPEAT_STOP?APP_REPEAT_EXE
            CODE    34ABH     0014H     UNIT         ?PR?_BSP_PUTKEY?BSP_KEY
            CODE    34BFH     0013H     UNIT         ?PR?WIRELESS2D4_INITHARD?BSP_2D4
            CODE    34D2H     0013H     UNIT         ?PR?_RF_WRITEREG?BSP_2D4
            CODE    34E5H     0013H     UNIT         ?PR?_UCRF_READREG?BSP_2D4
            CODE    34F8H     0012H     UNIT         ?PR?FM_SCANNING_SHOW_LCD_RESP?APP_2D4
            CODE    350AH     0012H     UNIT         ?PR?ISKEYDOWN_1AND6?BSP_KEY
            CODE    351CH     0010H     UNIT         ?PR?REPEAT_START_EXE?APP_REPEAT_EXE
            CODE    352CH     0010H     UNIT         ?PR?REPEAT_STOP_EXE?APP_REPEAT_EXE
            CODE    353CH     000FH     UNIT         ?PR?CLEAR_LCD_RESP?APP_2D4
            CODE    354BH     000FH     UNIT         ?PR?USB_PAUSE_SHOW_LCD_RESP?APP_2D4
            CODE    355AH     000FH     UNIT         ?PR?BT_NEXT_SHOW_LCD_RESP?APP_2D4
            CODE    3569H     000FH     UNIT         ?PR?BT_PREV_SHOW_LCD_RESP?APP_2D4
            CODE    3578H     000FH     UNIT         ?PR?LED_SHOW_BLINK_NAME_SHOW_LCD_RESP?APP_2D4
            CODE    3587H     000FH     UNIT         ?PR?LED_CLEAR_BLINK_NAME_SHOW_LCD_RESP?APP_2D4
            CODE    3596H     000FH     UNIT         ?PR?APP_LCD_INIT?APP_LCD
            CODE    35A5H     000FH     UNIT         ?PR?APP_LCD_PRO?APP_LCD
            CODE    35B4H     000FH     UNIT         ?PR?ISKEYDOWN2?BSP_KEY
            CODE    35C3H     000FH     UNIT         ?PR?ISKEYDOWN3?BSP_KEY
            CODE    35D2H     000FH     UNIT         ?PR?ISKEYDOWN4?BSP_KEY
            CODE    35E1H     000FH     UNIT         ?PR?ISKEYDOWN8?BSP_KEY
            CODE    35F0H     000FH     UNIT         ?PR?ISKEYDOWN9?BSP_KEY
            CODE    35FFH     000FH     UNIT         ?PR?RF_TXMODE?BSP_2D4
            CODE    360EH     000EH     UNIT         ?PR?ISKEYDOWN5?BSP_KEY
            CODE    361CH     000EH     UNIT         ?PR?_RF_SETCHANNEL?BSP_2D4
            CODE    362AH     000DH     UNIT         ?PR?LCD_CLEAR_ALL?BSP_DISPLAY
            CODE    3637H     000DH     UNIT         ?PR?LCD_CLEAR_MI_ALL?BSP_DISPLAY
            CODE    3644H     000CH     UNIT         ?PR?_REPEAT_SETSTART?APP_REPEAT_EXE
            CODE    3650H     000CH     UNIT         ?PR?_REPEAT_SETSTOP?APP_REPEAT_EXE
            CODE    365CH     000CH     UNIT         ?PR?RF_CLEARFIFO?BSP_2D4
            CODE    3668H     000BH     UNIT         ?PR?_BSP_GETKEYSTATE?BSP_KEY
            CODE    3673H     000AH     UNIT         ?PR?APP_REPEAT_ISENABLE?APP_REPEAT_EXE
            CODE    367DH     000AH     UNIT         ?PR?UCRF_GETSTATUS?BSP_2D4
            CODE    3687H     0009H     UNIT         ?PR?BT_PAUSE_SHOW_LCD_RESP?APP_2D4
            CODE    3690H     0009H     UNIT         ?PR?BT_PLAY_SHOW_LCD_RESP?APP_2D4
            CODE    3699H     0009H     UNIT         ?PR?AUX_MUTE_SHOW_LCD_RESP?APP_2D4
            CODE    36A2H     0009H     UNIT         ?PR?AUX_PLAY_SHOW_LCD_RESP?APP_2D4
            CODE    36ABH     0009H     UNIT         ?PR?ISKEYDOWN1?BSP_KEY
            CODE    36B4H     0009H     UNIT         ?PR?KEY_BRIGHT_INITHARD?BSP_KEYBRIGHT
            CODE    36BDH     0009H     UNIT         ?PR?LCD_BRIGHT_INITHARD?BSP_LCDBRIGHT
            CODE    36C6H     0008H     UNIT         ?PR?RECEIVE_DATA_FROM_UART0?COMMON
            CODE    36CEH     0008H     UNIT         ?PR?_SEND_DATA_TO_UART0?COMMON
            CODE    36D6H     0008H     UNIT         ?PR?RECEIVE_DATA_FROM_UART1?COMMON
            CODE    36DEH     0008H     UNIT         ?PR?_SEND_DATA_TO_UART1?COMMON
            CODE    36E6H     0007H     UNIT         ?CO?MAIN
            CODE    36EDH     0007H     UNIT         ?PR?BSP_INITKEYHARD?BSP_KEY
            CODE    36F4H     0007H     UNIT         ?PR?LCD_CLEAR_LED_ICO?BSP_DISPLAY
            CODE    36FBH     0007H     UNIT         ?PR?LCD_SHOW_LED_ICO?BSP_DISPLAY
            CODE    3702H     0007H     UNIT         ?PR?LCD_CLEAR_FM_ICO?BSP_DISPLAY
BL51 BANKED LINKER/LOCATER V6.22                                                      11/01/2017  06:16:47  PAGE 5


            CODE    3709H     0007H     UNIT         ?PR?LCD_SHOW_FM_ICO?BSP_DISPLAY
            CODE    3710H     0007H     UNIT         ?PR?LCD_CLEAR_BLUETOOTH_ICO?BSP_DISPLAY
            CODE    3717H     0007H     UNIT         ?PR?LCD_SHOW_BLUETOOTH_ICO?BSP_DISPLAY
            CODE    371EH     0007H     UNIT         ?PR?LCD_CLEAR_AUX_ICO?BSP_DISPLAY
            CODE    3725H     0007H     UNIT         ?PR?LCD_SHOW_AUX_ICO?BSP_DISPLAY
            CODE    372CH     0007H     UNIT         ?PR?LCD_CLEAR_USB_ICO?BSP_DISPLAY
            CODE    3733H     0007H     UNIT         ?PR?LCD_SHOW_USB_ICO?BSP_DISPLAY
            CODE    373AH     0007H     UNIT         ?PR?LCD_CLEAR_MHZ_ICO?BSP_DISPLAY
            CODE    3741H     0007H     UNIT         ?PR?LCD_SHOW_MHZ_ICO?BSP_DISPLAY
            CODE    3748H     0007H     UNIT         ?PR?LCD_CLEAR_BAZOOKA_ICO?BSP_DISPLAY
            CODE    374FH     0007H     UNIT         ?PR?LCD_SHOW_BAZOOKA_ICO?BSP_DISPLAY
            CODE    3756H     0007H     UNIT         ?PR?LCD_CLEAR_UPCOLON_ICO?BSP_DISPLAY
            CODE    375DH     0007H     UNIT         ?PR?LCD_SHOW_UPCOLON_ICO?BSP_DISPLAY
            CODE    3764H     0007H     UNIT         ?PR?LCD_CLEAR_DOWNCOLON_ICO?BSP_DISPLAY
            CODE    376BH     0007H     UNIT         ?PR?LCD_SHOW_DOWNCOLON_ICO?BSP_DISPLAY
            CODE    3772H     0007H     UNIT         ?PR?RF_CLEARSTATUS?BSP_2D4
            CODE    3779H     0006H     UNIT         ?PR?ISKEYDOWN6?BSP_KEY
            CODE    377FH     0006H     UNIT         ?PR?ISKEYDOWN7?BSP_KEY
            CODE    3785H     0006H     UNIT         ?PR?BSP_INITKEY?BSP_KEY
            CODE    378BH     0006H     UNIT         ?PR?BSP_CLEARKEY?BSP_KEY
            CODE    3791H     0006H     UNIT         ?PR?LCD_CLEAR_COLON_ICO?BSP_DISPLAY
            CODE    3797H     0006H     UNIT         ?PR?LCD_SHOW_COLON_ICO?BSP_DISPLAY
            CODE    379DH     0006H     UNIT         ?PR?UCRF_GETRSSI?BSP_2D4
            CODE    37A3H     0004H     UNIT         ?PR?FSYS_CLOCK_OUTPUT_ON_P26?COMMON
            CODE    37A7H     0003H     UNIT         ?PR?APP_WORK_INIT?APP_WORK
            CODE    37AAH     0003H     UNIT         ?PR?KEY_BRIGHT_OFF?BSP_KEYBRIGHT
            CODE    37ADH     0003H     UNIT         ?PR?KEY_BRIGHT_ON?BSP_KEYBRIGHT
            CODE    37B0H     0003H     UNIT         ?PR?KEY_BRIGHT_TOGGLE?BSP_KEYBRIGHT
            CODE    37B3H     0003H     UNIT         ?PR?LCD_BRIGHT_OFF?BSP_LCDBRIGHT
            CODE    37B6H     0003H     UNIT         ?PR?LCD_BRIGHT_ON?BSP_LCDBRIGHT
            CODE    37B9H     0001H     UNIT         ?PR?APP_WORK_1S_PRO?APP_WORK
            CODE    37BAH     0001H     UNIT         ?PR?APP_WORK_100MS_PRO?APP_WORK
            CODE    37BBH     0001H     UNIT         ?PR?APP_WORK_PRO?APP_WORK
            CODE    37BCH     0001H     UNIT         ?PR?SPI_INIT?BSP_2D4



OVERLAY MAP OF MODULE:   .\Out\Objects\project (MAIN)


SEGMENT                                             BIT_GROUP          DATA_GROUP          XDATA_GROUP
  +--> CALLED SEGMENT                            START    LENGTH     START    LENGTH     START    LENGTH
--------------------------------------------------------------------------------------------------------
?C_C51STARTUP                                    -----    -----      -----    -----      -----    -----
  +--> ?PR?MAIN?MAIN
  +--> ?C_INITSEG

?PR?MAIN?MAIN                                    -----    -----      -----    -----      0000H    0002H
  +--> ?PR?_SYSTEM_CLOCK_SELECT?COMMON
  +--> ?PR?BSP_INIT?BSP
  +--> ?PR?APP_2D4_INIT?APP_2D4
  +--> ?PR?APP_LCD_INIT?APP_LCD
  +--> ?PR?APP_WORK_INIT?APP_WORK
  +--> ?PR?ADC_START?BSP_ADC
  +--> ?PR?BSP_KEYSCAN?BSP_KEY
  +--> ?PR?REPEAT_PRO?APP_REPEAT_EXE
  +--> ?PR?APP_LCD_PRO?APP_LCD
BL51 BANKED LINKER/LOCATER V6.22                                                      11/01/2017  06:16:47  PAGE 6


  +--> ?CO?MAIN
  +--> ?PR?PRINTF?PRINTF
  +--> ?PR?APP_2D4_PRO?APP_2D4
  +--> ?PR?BSP_GETKEY?BSP_KEY
  +--> ?PR?_APP_KEY_PRO?APP_KEY

?PR?BSP_INIT?BSP                                 -----    -----      -----    -----      -----    -----
  +--> ?PR?SET_ALL_GPIO_INPUT_MODE?COMMON
  +--> ?PR?LCD_DISPLAY_INITHARD?BSP_DISPLAY
  +--> ?PR?ADC_INIT?BSP_ADC
  +--> ?PR?BSP_INITKEY?BSP_KEY
  +--> ?PR?KEY_BRIGHT_INITHARD?BSP_KEYBRIGHT
  +--> ?PR?TIMER0_INITHARD?BSP_TIMER0
  +--> ?PR?WIRELESS2D4_INITHARD?BSP_2D4
  +--> ?PR?LCD_BRIGHT_INITHARD?BSP_LCDBRIGHT

?PR?LCD_DISPLAY_INITHARD?BSP_DISPLAY             -----    -----      -----    -----      -----    -----
  +--> ?PR?LCD_CLEAR_ALL?BSP_DISPLAY

?PR?BSP_INITKEY?BSP_KEY                          -----    -----      -----    -----      -----    -----
  +--> ?PR?BSP_INITKEYVAR?BSP_KEY
  +--> ?PR?BSP_INITKEYHARD?BSP_KEY

?PR?BSP_INITKEYVAR?BSP_KEY                       -----    -----      -----    -----      -----    -----
  +--> ?PR?ISKEYDOWN1?BSP_KEY
  +--> ?PR?ISKEYDOWN2?BSP_KEY
  +--> ?PR?ISKEYDOWN3?BSP_KEY
  +--> ?PR?ISKEYDOWN4?BSP_KEY
  +--> ?PR?ISKEYDOWN5?BSP_KEY
  +--> ?PR?ISKEYDOWN6?BSP_KEY
  +--> ?PR?ISKEYDOWN7?BSP_KEY
  +--> ?PR?ISKEYDOWN8?BSP_KEY
  +--> ?PR?ISKEYDOWN9?BSP_KEY
  +--> ?PR?ISKEYDOWN_1AND6?BSP_KEY

?PR?ISKEYDOWN2?BSP_KEY                           -----    -----      -----    -----      -----    -----
  +--> ?PR?_ISKEYDOWN?BSP_KEY

?PR?ISKEYDOWN3?BSP_KEY                           -----    -----      -----    -----      -----    -----
  +--> ?PR?_ISKEYDOWN?BSP_KEY

?PR?ISKEYDOWN4?BSP_KEY                           -----    -----      -----    -----      -----    -----
  +--> ?PR?_ISKEYDOWN?BSP_KEY

?PR?ISKEYDOWN5?BSP_KEY                           -----    -----      -----    -----      -----    -----
  +--> ?PR?_ISKEYDOWN?BSP_KEY

?PR?ISKEYDOWN6?BSP_KEY                           -----    -----      -----    -----      -----    -----
  +--> ?PR?_ISKEYDOWN?BSP_KEY

?PR?ISKEYDOWN7?BSP_KEY                           -----    -----      -----    -----      -----    -----
  +--> ?PR?_ISKEYDOWN?BSP_KEY

?PR?ISKEYDOWN8?BSP_KEY                           -----    -----      -----    -----      -----    -----
  +--> ?PR?_ISKEYDOWN?BSP_KEY

?PR?ISKEYDOWN9?BSP_KEY                           -----    -----      -----    -----      -----    -----
BL51 BANKED LINKER/LOCATER V6.22                                                      11/01/2017  06:16:47  PAGE 7


  +--> ?PR?_ISKEYDOWN?BSP_KEY

?PR?ISKEYDOWN_1AND6?BSP_KEY                      -----    -----      -----    -----      -----    -----
  +--> ?PR?ISKEYDOWN1?BSP_KEY
  +--> ?PR?ISKEYDOWN6?BSP_KEY

?PR?KEY_BRIGHT_INITHARD?BSP_KEYBRIGHT            -----    -----      -----    -----      -----    -----
  +--> ?PR?KEY_BRIGHT_OFF?BSP_KEYBRIGHT

?PR?TIMER0_INITHARD?BSP_TIMER0                   -----    -----      -----    -----      -----    -----
  +--> ?PR?TIMER0_PARAMINIT?BSP_TIMER0

?PR?LCD_BRIGHT_INITHARD?BSP_LCDBRIGHT            -----    -----      -----    -----      -----    -----
  +--> ?PR?LCD_BRIGHT_ON?BSP_LCDBRIGHT

?PR?APP_2D4_INIT?APP_2D4                         -----    -----      -----    -----      -----    -----
  +--> ?PR?RF_INIT?BSP_2D4
  +--> ?PR?RF_RXMODE?BSP_2D4

?PR?RF_INIT?BSP_2D4                              -----    -----      -----    -----      0002H    0012H
  +--> ?CO?BSP_2D4
  +--> ?PR?SPI_INIT?BSP_2D4
  +--> ?PR?_RF_WRITEREG?BSP_2D4
  +--> ?PR?_RF_WRITEBUF?BSP_2D4

?PR?_RF_WRITEREG?BSP_2D4                         -----    -----      -----    -----      -----    -----
  +--> ?PR?_SPI_WW?BSP_2D4

?PR?_RF_WRITEBUF?BSP_2D4                         -----    -----      -----    -----      0014H    0005H
  +--> ?PR?_SPI_WW?BSP_2D4

?PR?RF_RXMODE?BSP_2D4                            -----    -----      -----    -----      -----    -----
  +--> ?PR?_RF_WRITEREG?BSP_2D4

?PR?APP_LCD_INIT?APP_LCD                         -----    -----      -----    -----      -----    -----
  +--> ?CO?APP_LCD

?PR?APP_WORK_INIT?APP_WORK                       -----    -----      -----    -----      -----    -----
  +--> ?PR?LCD_SHOW_BAZOOKA_ICO?BSP_DISPLAY

?PR?BSP_KEYSCAN?BSP_KEY                          -----    -----      -----    -----      0002H    0001H
  +--> ?PR?_BSP_DETECTKEY?BSP_KEY

?PR?_BSP_DETECTKEY?BSP_KEY                       -----    -----      -----    -----      0003H    0001H
  +--> ?PR?_BSP_PUTKEY?BSP_KEY

?PR?REPEAT_PRO?APP_REPEAT_EXE                    -----    -----      -----    -----      -----    -----
  +--> ?PR?REPEAT_STOP_EXE?APP_REPEAT_EXE
  +--> ?PR?REPEAT_START_EXE?APP_REPEAT_EXE

?PR?APP_LCD_PRO?APP_LCD                          -----    -----      -----    -----      -----    -----
  +--> ?PR?APP_REPEAT_ISENABLE?APP_REPEAT_EXE
  +--> ?PR?_LCD_SHOWSTRING?BSP_DISPLAY

?PR?_LCD_SHOWSTRING?BSP_DISPLAY                  0020H.0  0000H.1    -----    -----      0018H    0004H
  +--> ?PR?_STRLEN?STRLEN
  +--> ?PR?_LCD_SHOWCHAR?BSP_DISPLAY
BL51 BANKED LINKER/LOCATER V6.22                                                      11/01/2017  06:16:47  PAGE 8



?PR?_LCD_SHOWCHAR?BSP_DISPLAY                    -----    -----      -----    -----      -----    -----
  +--> ?PR?_LCD_CLEAR_MI?BSP_DISPLAY

?PR?PRINTF?PRINTF                                0020H.0  0001H.1    0008H    0005H      0018H    0028H
  +--> ?PR?_PUTCHAR?COMMON

?PR?APP_2D4_PRO?APP_2D4                          -----    -----      -----    -----      -----    -----
  +--> ?PR?UCRF_GETSTATUS?BSP_2D4
  +--> ?PR?RF_CLEARFIFO?BSP_2D4
  +--> ?PR?RF_CLEARSTATUS?BSP_2D4
  +--> ?PR?RF_RXMODE?BSP_2D4
  +--> ?PR?_RF_TXDATA?BSP_2D4
  +--> ?PR?_UCRF_DUMPRXDATA?BSP_2D4
  +--> ?PR?_APP_2D4_RCV?APP_2D4

?PR?UCRF_GETSTATUS?BSP_2D4                       -----    -----      -----    -----      -----    -----
  +--> ?PR?_UCRF_READREG?BSP_2D4

?PR?_UCRF_READREG?BSP_2D4                        -----    -----      -----    -----      -----    -----
  +--> ?PR?_SPI_WR?BSP_2D4
  +--> ?PR?UCSPI_READ?BSP_2D4

?PR?RF_CLEARFIFO?BSP_2D4                         -----    -----      -----    -----      -----    -----
  +--> ?PR?_RF_WRITEREG?BSP_2D4

?PR?RF_CLEARSTATUS?BSP_2D4                       -----    -----      -----    -----      -----    -----
  +--> ?PR?_RF_WRITEREG?BSP_2D4

?PR?_RF_TXDATA?BSP_2D4                           -----    -----      -----    -----      0002H    0002H
  +--> ?PR?UCRF_GETSTATUS?BSP_2D4
  +--> ?PR?_RF_WRITEBUF?BSP_2D4
  +--> ?PR?_RF_WRITEREG?BSP_2D4

?PR?_UCRF_DUMPRXDATA?BSP_2D4                     -----    -----      -----    -----      -----    -----
  +--> ?PR?UCRF_GETSTATUS?BSP_2D4
  +--> ?PR?_RF_WRITEREG?BSP_2D4
  +--> ?PR?_RF_READBUF?BSP_2D4
  +--> ?PR?RF_CLEARFIFO?BSP_2D4
  +--> ?PR?RF_CLEARSTATUS?BSP_2D4

?PR?_RF_READBUF?BSP_2D4                          -----    -----      -----    -----      0002H    0005H
  +--> ?PR?_SPI_WR?BSP_2D4
  +--> ?PR?UCSPI_READ?BSP_2D4

?PR?_APP_2D4_RCV?APP_2D4                         -----    -----      -----    -----      0002H    0006H
  +--> ?PR?KEY_BRIGHT_TOGGLE?BSP_KEYBRIGHT
  +--> ?PR?SPEAKER_STATUS_RESP?APP_2D4
  +--> ?PR?BT_PLAY_SHOW_LCD_RESP?APP_2D4
  +--> ?PR?BT_PAUSE_SHOW_LCD_RESP?APP_2D4
  +--> ?PR?FM_SCANNING_SHOW_LCD_RESP?APP_2D4
  +--> ?PR?_REPEAT_SETSTART?APP_REPEAT_EXE
  +--> ?PR?_REPEAT_SETSTOP?APP_REPEAT_EXE
  +--> ?PR?AUX_PLAY_SHOW_LCD_RESP?APP_2D4
  +--> ?PR?CLEAR_LCD_RESP?APP_2D4
  +--> ?PR?AUX_MUTE_SHOW_LCD_RESP?APP_2D4
  +--> ?PR?USB_PAUSE_SHOW_LCD_RESP?APP_2D4
BL51 BANKED LINKER/LOCATER V6.22                                                      11/01/2017  06:16:47  PAGE 9


  +--> ?PR?LED_SHOW_BLINK_NAME_SHOW_LCD_RESP...
  +--> ?PR?LED_CLEAR_BLINK_NAME_SHOW_LCD_RES...
  +--> ?PR?BT_PREV_SHOW_LCD_RESP?APP_2D4
  +--> ?PR?BT_NEXT_SHOW_LCD_RESP?APP_2D4
  +--> ?PR?FM_STATION_SHOW_LCD_RESP?APP_2D4
  +--> ?PR?USB_TRACK_SHOW_LCD_RESP?APP_2D4
  +--> ?PR?LCD_SHOW_USB_ICO?BSP_DISPLAY
  +--> ?CO?APP_2D4
  +--> ?PR?PRINTF?PRINTF
  +--> ?PR?_STRLEN?STRLEN
  +--> ?PR?LCD_SHOW_FM_ICO?BSP_DISPLAY
  +--> ?PR?LCD_SHOW_MHZ_ICO?BSP_DISPLAY
  +--> ?PR?LCD_CLEAR_UPCOLON_ICO?BSP_DISPLAY
  +--> ?PR?LCD_SHOW_DOWNCOLON_ICO?BSP_DISPLAY
  +--> ?PR?VOL_RESP?APP_2D4
  +--> ?PR?RELAY_STATUS_RESP?APP_2D4
  +--> ?PR?LCD_SHOW_LED_ICO?BSP_DISPLAY
  +--> ?PR?_APP_LCD_DEFAULT_STRING_SET?APP_LCD
  +--> ?PR?LCD_CLEAR_LED_ICO?BSP_DISPLAY
  +--> ?PR?_REPEAT_START?APP_REPEAT_EXE
  +--> ?PR?LCD_CLEAR_MHZ_ICO?BSP_DISPLAY
  +--> ?PR?LCD_CLEAR_DOWNCOLON_ICO?BSP_DISPLAY
  +--> ?PR?LCD_CLEAR_BLUETOOTH_ICO?BSP_DISPLAY
  +--> ?PR?LCD_CLEAR_FM_ICO?BSP_DISPLAY
  +--> ?PR?LCD_CLEAR_AUX_ICO?BSP_DISPLAY
  +--> ?PR?LCD_CLEAR_USB_ICO?BSP_DISPLAY
  +--> ?PR?LCD_SHOW_BLUETOOTH_ICO?BSP_DISPLAY
  +--> ?PR?LCD_SHOW_AUX_ICO?BSP_DISPLAY

?PR?SPEAKER_STATUS_RESP?APP_2D4                  -----    -----      -----    -----      -----    -----
  +--> ?CO?APP_2D4
  +--> ?PR?_LCD_SHOWSTRING?BSP_DISPLAY

?PR?BT_PLAY_SHOW_LCD_RESP?APP_2D4                -----    -----      -----    -----      -----    -----
  +--> ?CO?APP_2D4
  +--> ?PR?_LCD_SHOWSTRING?BSP_DISPLAY

?PR?BT_PAUSE_SHOW_LCD_RESP?APP_2D4               -----    -----      -----    -----      -----    -----
  +--> ?CO?APP_2D4
  +--> ?PR?_LCD_SHOWSTRING?BSP_DISPLAY

?PR?FM_SCANNING_SHOW_LCD_RESP?APP_2D4            -----    -----      -----    -----      -----    -----
  +--> ?CO?APP_2D4
  +--> ?PR?_LCD_SHOWSTRING?BSP_DISPLAY
  +--> ?PR?LCD_CLEAR_UPCOLON_ICO?BSP_DISPLAY
  +--> ?PR?LCD_CLEAR_DOWNCOLON_ICO?BSP_DISPLAY
  +--> ?PR?LCD_CLEAR_MHZ_ICO?BSP_DISPLAY

?PR?AUX_PLAY_SHOW_LCD_RESP?APP_2D4               -----    -----      -----    -----      -----    -----
  +--> ?CO?APP_2D4
  +--> ?PR?_LCD_SHOWSTRING?BSP_DISPLAY

?PR?CLEAR_LCD_RESP?APP_2D4                       -----    -----      -----    -----      -----    -----
  +--> ?CO?APP_2D4
  +--> ?PR?_LCD_SHOWSTRING?BSP_DISPLAY
  +--> ?PR?LCD_CLEAR_UPCOLON_ICO?BSP_DISPLAY
  +--> ?PR?LCD_CLEAR_DOWNCOLON_ICO?BSP_DISPLAY
BL51 BANKED LINKER/LOCATER V6.22                                                      11/01/2017  06:16:47  PAGE 10



?PR?AUX_MUTE_SHOW_LCD_RESP?APP_2D4               -----    -----      -----    -----      -----    -----
  +--> ?CO?APP_2D4
  +--> ?PR?_LCD_SHOWSTRING?BSP_DISPLAY

?PR?USB_PAUSE_SHOW_LCD_RESP?APP_2D4              -----    -----      -----    -----      -----    -----
  +--> ?CO?APP_2D4
  +--> ?PR?_LCD_SHOWSTRING?BSP_DISPLAY
  +--> ?PR?LCD_CLEAR_UPCOLON_ICO?BSP_DISPLAY
  +--> ?PR?LCD_CLEAR_DOWNCOLON_ICO?BSP_DISPLAY

?PR?LED_SHOW_BLINK_NAME_SHOW_LCD_RESP...         -----    -----      -----    -----      -----    -----
  +--> ?PR?_LCD_SHOWSTRING?BSP_DISPLAY
  +--> ?PR?LCD_CLEAR_UPCOLON_ICO?BSP_DISPLAY
  +--> ?PR?LCD_CLEAR_DOWNCOLON_ICO?BSP_DISPLAY

?PR?LED_CLEAR_BLINK_NAME_SHOW_LCD_RES...         -----    -----      -----    -----      -----    -----
  +--> ?CO?APP_2D4
  +--> ?PR?_LCD_SHOWSTRING?BSP_DISPLAY
  +--> ?PR?LCD_CLEAR_UPCOLON_ICO?BSP_DISPLAY
  +--> ?PR?LCD_CLEAR_DOWNCOLON_ICO?BSP_DISPLAY

?PR?BT_PREV_SHOW_LCD_RESP?APP_2D4                -----    -----      -----    -----      -----    -----
  +--> ?CO?APP_2D4
  +--> ?PR?_LCD_SHOWSTRING?BSP_DISPLAY
  +--> ?PR?LCD_CLEAR_UPCOLON_ICO?BSP_DISPLAY
  +--> ?PR?LCD_CLEAR_DOWNCOLON_ICO?BSP_DISPLAY

?PR?BT_NEXT_SHOW_LCD_RESP?APP_2D4                -----    -----      -----    -----      -----    -----
  +--> ?CO?APP_2D4
  +--> ?PR?_LCD_SHOWSTRING?BSP_DISPLAY
  +--> ?PR?LCD_CLEAR_UPCOLON_ICO?BSP_DISPLAY
  +--> ?PR?LCD_CLEAR_DOWNCOLON_ICO?BSP_DISPLAY

?PR?FM_STATION_SHOW_LCD_RESP?APP_2D4             -----    -----      -----    -----      -----    -----
  +--> ?CO?APP_2D4
  +--> ?PR?PRINTF?PRINTF
  +--> ?PR?_LCD_SHOWSTRING?BSP_DISPLAY
  +--> ?PR?LCD_CLEAR_UPCOLON_ICO?BSP_DISPLAY
  +--> ?PR?LCD_SHOW_DOWNCOLON_ICO?BSP_DISPLAY

?PR?USB_TRACK_SHOW_LCD_RESP?APP_2D4              -----    -----      -----    -----      -----    -----
  +--> ?CO?APP_2D4
  +--> ?PR?PRINTF?PRINTF
  +--> ?PR?_LCD_SHOWSTRING?BSP_DISPLAY
  +--> ?PR?LCD_CLEAR_UPCOLON_ICO?BSP_DISPLAY
  +--> ?PR?LCD_CLEAR_DOWNCOLON_ICO?BSP_DISPLAY

?PR?VOL_RESP?APP_2D4                             -----    -----      -----    -----      0008H    0010H
  +--> ?CO?APP_2D4
  +--> ?PR?PRINTF?PRINTF
  +--> ?PR?_LCD_SHOWSTRING?BSP_DISPLAY

?PR?RELAY_STATUS_RESP?APP_2D4                    -----    -----      -----    -----      -----    -----
  +--> ?CO?APP_2D4
  +--> ?PR?_LCD_SHOWSTRING?BSP_DISPLAY

BL51 BANKED LINKER/LOCATER V6.22                                                      11/01/2017  06:16:47  PAGE 11


?PR?_APP_LCD_DEFAULT_STRING_SET?APP_LCD          -----    -----      -----    -----      0008H    0004H
  +--> ?PR?_STRNCPY?STRNCPY

?PR?_STRNCPY?STRNCPY                             -----    -----      -----    -----      000CH    000AH

?PR?_REPEAT_START?APP_REPEAT_EXE                 -----    -----      -----    -----      -----    -----
  +--> ?PR?REPEAT_START_EXE?APP_REPEAT_EXE

?PR?_APP_KEY_PRO?APP_KEY                         -----    -----      -----    -----      0002H    0003H
  +--> ?PR?_APP_2D4_SEND?APP_2D4

?PR?_APP_2D4_SEND?APP_2D4                        -----    -----      -----    -----      0005H    0004H
  +--> ?PR?RF_TXMODE?BSP_2D4

?PR?RF_TXMODE?BSP_2D4                            -----    -----      -----    -----      -----    -----
  +--> ?PR?_RF_WRITEREG?BSP_2D4



SYMBOL TABLE OF MODULE:  .\Out\Objects\project (MAIN)

  VALUE           TYPE          NAME
  ----------------------------------

  -------         MODULE        MAIN
  C:0000H         SYMBOL        _ICE_DUMMY_
  D:0080H         PUBLIC        P0
  D:0090H         PUBLIC        P1
  D:00A0H         PUBLIC        P2
  D:00B0H         PUBLIC        P3
  D:00D8H         PUBLIC        P5
  D:00A8H         PUBLIC        IE
  B:00E8H.7       PUBLIC        ADCF
  C:2D0EH         PUBLIC        ADC_ISR
  D:00B8H         PUBLIC        IP
  C:28D1H         PUBLIC        main
  D:0098H         PUBLIC        SCON
  D:0088H         PUBLIC        TCON
  D:00F8H         PUBLIC        SCON_1
  D:00E8H         PUBLIC        ADCCON0
  D:00C0H         PUBLIC        I2CON
  D:00C3H         PUBLIC        ADCRH
  X:0075H         SYMBOL        ss
  D:00C8H         PUBLIC        T2CON
  D:00C2H         PUBLIC        ADCRL
  D:00D0H         PUBLIC        PSW
  -------         PROC          ADC_ISR
  C:2D0EH         LINE#         8
  C:2D1FH         LINE#         9
  C:2D1FH         LINE#         11
  C:2D21H         LINE#         13
  C:2D31H         LINE#         14
  C:2D4DH         LINE#         15
  C:2D5BH         LINE#         17
  -------         ENDPROC       ADC_ISR
  -------         PROC          MAIN
  -------         DO            
BL51 BANKED LINKER/LOCATER V6.22                                                      11/01/2017  06:16:47  PAGE 12


  X:0000H         SYMBOL        ucKeyCode
  -------         DO            
  X:0001H         SYMBOL        i
  X:0073H         SYMBOL        n
  X:0074H         SYMBOL        cnt
  -------         ENDDO         
  -------         DO            
  X:0074H         SYMBOL        cnt
  -------         ENDDO         
  -------         ENDDO         
  C:28D1H         LINE#         19
  C:28D1H         LINE#         21
  C:28D6H         LINE#         24
  C:28D9H         LINE#         29
  C:28DCH         LINE#         30
  C:28DFH         LINE#         31
  C:28E2H         LINE#         35
  C:28E2H         LINE#         36
  C:28E8H         LINE#         37
  C:28EAH         LINE#         39
  C:28EDH         LINE#         40
  C:28EDH         LINE#         41
  C:28F3H         LINE#         42
  C:28F5H         LINE#         45
  C:28F8H         LINE#         46
  C:28F8H         LINE#         47
  C:28FEH         LINE#         48
  C:2903H         LINE#         51
  C:2907H         LINE#         56
  C:290AH         LINE#         60
  C:290DH         LINE#         62
  C:2913H         LINE#         63
  C:2919H         LINE#         64
  C:291BH         LINE#         66
  C:293EH         LINE#         72
  C:293EH         LINE#         73
  C:2941H         LINE#         74
  C:2941H         LINE#         75
  C:2947H         LINE#         77
  C:2949H         LINE#         81
  C:294FH         LINE#         85
  C:294FH         LINE#         89
  C:2957H         LINE#         90
  C:2959H         LINE#         91
  C:295EH         LINE#         92
  C:295EH         LINE#         94
  -------         ENDPROC       MAIN
  -------         ENDMOD        MAIN

  -------         MODULE        APP_KEY
  C:0000H         SYMBOL        _ICE_DUMMY_
  D:0080H         PUBLIC        P0
  D:0090H         PUBLIC        P1
  D:00A0H         PUBLIC        P2
  D:00B0H         PUBLIC        P3
  D:00D8H         PUBLIC        P5
  D:00A8H         PUBLIC        IE
BL51 BANKED LINKER/LOCATER V6.22                                                      11/01/2017  06:16:47  PAGE 13


  D:00B8H         PUBLIC        IP
  C:16C5H         PUBLIC        _app_key_pro
  D:0098H         PUBLIC        SCON
  D:0088H         PUBLIC        TCON
  D:00F8H         PUBLIC        SCON_1
  D:00E8H         PUBLIC        ADCCON0
  D:00C0H         PUBLIC        I2CON
  D:00C8H         PUBLIC        T2CON
  D:00D0H         PUBLIC        PSW
  -------         PROC          _APP_KEY_PRO
  X:0002H         SYMBOL        keyCode
  -------         DO            
  X:0003H         SYMBOL        index
  X:0004H         SYMBOL        i
  -------         ENDDO         
  C:16C5H         LINE#         25
  C:16CAH         LINE#         26
  C:16CDH         LINE#         27
  C:16CFH         LINE#         29
  C:16D3H         LINE#         30
  C:16DFH         LINE#         31
  C:1746H         LINE#         32
  C:1746H         LINE#         33
  C:1753H         LINE#         34
  C:175DH         LINE#         35
  C:1767H         LINE#         36
  C:1786H         LINE#         37
  C:1796H         LINE#         38
  C:179CH         LINE#         39
  C:179CH         LINE#         40
  C:179CH         LINE#         42
  C:179CH         LINE#         43
  C:179CH         LINE#         45
  C:179CH         LINE#         46
  C:179CH         LINE#         47
  C:17A9H         LINE#         48
  C:17B3H         LINE#         49
  C:17BDH         LINE#         50
  C:17DCH         LINE#         51
  C:17ECH         LINE#         52
  C:17F2H         LINE#         53
  C:17F2H         LINE#         54
  C:17F2H         LINE#         56
  C:17F2H         LINE#         57
  C:17F2H         LINE#         58
  C:17FFH         LINE#         59
  C:1809H         LINE#         60
  C:1813H         LINE#         61
  C:1832H         LINE#         62
  C:1842H         LINE#         63
  C:1848H         LINE#         64
  C:1848H         LINE#         65
  C:1848H         LINE#         66
  C:1855H         LINE#         67
  C:185FH         LINE#         68
  C:1869H         LINE#         69
  C:1888H         LINE#         70
BL51 BANKED LINKER/LOCATER V6.22                                                      11/01/2017  06:16:47  PAGE 14


  C:1898H         LINE#         71
  C:189EH         LINE#         72
  C:189EH         LINE#         73
  C:189EH         LINE#         75
  C:189EH         LINE#         76
  C:189EH         LINE#         78
  C:189EH         LINE#         79
  C:189EH         LINE#         80
  C:18ABH         LINE#         81
  C:18B5H         LINE#         82
  C:18BFH         LINE#         83
  C:18DEH         LINE#         84
  C:18EEH         LINE#         85
  C:18F4H         LINE#         86
  C:18F4H         LINE#         87
  C:18F4H         LINE#         89
  C:18F4H         LINE#         90
  C:18F4H         LINE#         92
  C:18F4H         LINE#         93
  C:18F4H         LINE#         94
  C:1901H         LINE#         95
  C:190BH         LINE#         96
  C:1915H         LINE#         97
  C:1934H         LINE#         98
  C:1944H         LINE#         99
  C:194AH         LINE#         100
  C:194AH         LINE#         101
  C:194AH         LINE#         103
  C:194AH         LINE#         104
  C:194AH         LINE#         106
  C:194AH         LINE#         107
  C:194AH         LINE#         108
  C:1957H         LINE#         109
  C:1961H         LINE#         110
  C:196BH         LINE#         111
  C:1975H         LINE#         112
  C:1994H         LINE#         113
  C:19A4H         LINE#         114
  C:19AAH         LINE#         115
  C:19AAH         LINE#         116
  C:19AAH         LINE#         118
  C:19AAH         LINE#         119
  C:19AAH         LINE#         121
  C:19AAH         LINE#         122
  C:19AAH         LINE#         123
  C:19B7H         LINE#         124
  C:19C1H         LINE#         125
  C:19CBH         LINE#         126
  C:19EAH         LINE#         127
  C:19FAH         LINE#         128
  C:1A00H         LINE#         129
  C:1A00H         LINE#         130
  C:1A00H         LINE#         132
  C:1A00H         LINE#         133
  C:1A00H         LINE#         135
  C:1A00H         LINE#         136
  C:1A00H         LINE#         137
BL51 BANKED LINKER/LOCATER V6.22                                                      11/01/2017  06:16:47  PAGE 15


  C:1A0DH         LINE#         138
  C:1A17H         LINE#         139
  C:1A21H         LINE#         140
  C:1A3DH         LINE#         141
  C:1A4DH         LINE#         142
  C:1A53H         LINE#         143
  C:1A53H         LINE#         144
  C:1A53H         LINE#         146
  C:1A53H         LINE#         147
  C:1A53H         LINE#         149
  C:1A53H         LINE#         150
  C:1A53H         LINE#         151
  C:1A60H         LINE#         152
  C:1A6AH         LINE#         153
  C:1A74H         LINE#         154
  C:1A90H         LINE#         155
  C:1AA0H         LINE#         156
  C:1AA6H         LINE#         157
  C:1AA6H         LINE#         158
  C:1AA6H         LINE#         160
  C:1AA6H         LINE#         161
  C:1AA6H         LINE#         163
  C:1AA6H         LINE#         164
  C:1AA6H         LINE#         166
  C:1AA6H         LINE#         167
  C:1AA6H         LINE#         169
  C:1AA6H         LINE#         170
  C:1AA6H         LINE#         172
  C:1AA6H         LINE#         173
  C:1AA6H         LINE#         175
  C:1AA6H         LINE#         176
  C:1AA6H         LINE#         177
  C:1AACH         LINE#         178
  C:1AAEH         LINE#         179
  C:1AB9H         LINE#         180
  C:1AB9H         LINE#         182
  -------         ENDPROC       _APP_KEY_PRO
  -------         ENDMOD        APP_KEY

  -------         MODULE        APP_WORK
  C:0000H         SYMBOL        _ICE_DUMMY_
  D:0080H         PUBLIC        P0
  D:0090H         PUBLIC        P1
  D:00A0H         PUBLIC        P2
  D:00B0H         PUBLIC        P3
  D:00D8H         PUBLIC        P5
  D:00A8H         PUBLIC        IE
  D:00B8H         PUBLIC        IP
  C:37BBH         SYMBOL        app_work_pro
  C:37B9H         PUBLIC        app_work_1s_pro
  D:0098H         PUBLIC        SCON
  D:0088H         PUBLIC        TCON
  D:00F8H         PUBLIC        SCON_1
  D:00E8H         PUBLIC        ADCCON0
  D:00C0H         PUBLIC        I2CON
  C:37A7H         PUBLIC        app_work_Init
  I:000FH         PUBLIC        g_tWork
BL51 BANKED LINKER/LOCATER V6.22                                                      11/01/2017  06:16:47  PAGE 16


  D:00C8H         PUBLIC        T2CON
  C:37BAH         PUBLIC        app_work_100ms_pro
  D:00D0H         PUBLIC        PSW
  -------         PROC          APP_WORK_INIT
  C:37A7H         LINE#         14
  C:37A7H         LINE#         16
  -------         ENDPROC       APP_WORK_INIT
  -------         PROC          APP_WORK_1S_PRO
  C:37B9H         LINE#         19
  C:37B9H         LINE#         21
  -------         ENDPROC       APP_WORK_1S_PRO
  -------         PROC          APP_WORK_100MS_PRO
  C:37BAH         LINE#         22
  C:37BAH         LINE#         24
  -------         ENDPROC       APP_WORK_100MS_PRO
  -------         PROC          APP_WORK_PRO
  C:37BBH         LINE#         26
  C:37BBH         LINE#         28
  -------         ENDPROC       APP_WORK_PRO
  -------         ENDMOD        APP_WORK

  -------         MODULE        APP_REPEAT_EXE
  C:0000H         SYMBOL        _ICE_DUMMY_
  D:0080H         PUBLIC        P0
  D:0090H         PUBLIC        P1
  D:00A0H         PUBLIC        P2
  D:00B0H         PUBLIC        P3
  C:3644H         PUBLIC        _Repeat_SetStart
  D:00D8H         PUBLIC        P5
  D:00A8H         PUBLIC        IE
  C:3673H         PUBLIC        app_repeat_IsEnable
  C:352CH         SYMBOL        Repeat_Stop_exe
  D:00B8H         PUBLIC        IP
  C:3650H         PUBLIC        _Repeat_SetStop
  X:0085H         SYMBOL        g_tRepeat
  D:0098H         PUBLIC        SCON
  D:0088H         PUBLIC        TCON
  D:00F8H         PUBLIC        SCON_1
  C:30BBH         PUBLIC        _Repeat_Start
  D:00E8H         PUBLIC        ADCCON0
  D:00C0H         PUBLIC        I2CON
  D:00C8H         PUBLIC        T2CON
  C:3497H         PUBLIC        Repeat_Stop
  C:259AH         PUBLIC        Repeat_Pro
  C:351CH         SYMBOL        Repeat_Start_exe
  D:00D0H         PUBLIC        PSW
  -------         PROC          _REPEAT_SETSTART
  D:0001H         SYMBOL        fun
  C:3644H         LINE#         12
  C:3644H         LINE#         13
  C:364FH         LINE#         14
  -------         ENDPROC       _REPEAT_SETSTART
  -------         PROC          _REPEAT_SETSTOP
  D:0001H         SYMBOL        fun
  C:3650H         LINE#         16
  C:3650H         LINE#         17
  C:365BH         LINE#         18
BL51 BANKED LINKER/LOCATER V6.22                                                      11/01/2017  06:16:47  PAGE 17


  -------         ENDPROC       _REPEAT_SETSTOP
  -------         PROC          REPEAT_START_EXE
  C:351CH         LINE#         20
  C:351CH         LINE#         21
  C:3528H         LINE#         22
  C:352BH         LINE#         23
  C:352BH         LINE#         24
  -------         ENDPROC       REPEAT_START_EXE
  -------         PROC          REPEAT_STOP_EXE
  C:352CH         LINE#         26
  C:352CH         LINE#         27
  C:3538H         LINE#         28
  C:353BH         LINE#         29
  C:353BH         LINE#         30
  -------         ENDPROC       REPEAT_STOP_EXE
  -------         PROC          _REPEAT_START
  D:0006H         SYMBOL        _usStartTime
  D:0004H         SYMBOL        _usStopTime
  D:0002H         SYMBOL        _usCycle
  C:30BBH         LINE#         42
  C:30BBH         LINE#         43
  C:30BBH         LINE#         44
  C:30BFH         LINE#         46
  C:30BFH         LINE#         48
  C:30C7H         LINE#         49
  C:30CFH         LINE#         50
  C:30D7H         LINE#         51
  C:30DCH         LINE#         52
  C:30E0H         LINE#         53
  C:30E4H         LINE#         54
  C:30E9H         LINE#         56
  C:30ECH         LINE#         57
  -------         ENDPROC       _REPEAT_START
  -------         PROC          REPEAT_STOP
  C:3497H         LINE#         67
  C:3497H         LINE#         68
  C:349CH         LINE#         69
  C:349FH         LINE#         70
  C:34A8H         LINE#         71
  -------         ENDPROC       REPEAT_STOP
  -------         PROC          APP_REPEAT_ISENABLE
  C:3673H         LINE#         75
  C:3673H         LINE#         76
  C:3679H         LINE#         77
  C:367BH         LINE#         78
  C:367BH         LINE#         79
  C:367CH         LINE#         80
  -------         ENDPROC       APP_REPEAT_ISENABLE
  -------         PROC          REPEAT_PRO
  C:259AH         LINE#         90
  C:259AH         LINE#         92
  C:25B1H         LINE#         94
  C:25B1H         LINE#         96
  C:25B7H         LINE#         97
  C:25C3H         LINE#         98
  C:25C3H         LINE#         99
  C:25DCH         LINE#         100
BL51 BANKED LINKER/LOCATER V6.22                                                      11/01/2017  06:16:47  PAGE 18


  C:25DFH         LINE#         101
  C:25E6H         LINE#         102
  C:25EBH         LINE#         103
  C:25EBH         LINE#         104
  C:25ECH         LINE#         106
  C:25ECH         LINE#         107
  C:25F4H         LINE#         108
  C:260CH         LINE#         110
  C:261BH         LINE#         111
  C:262EH         LINE#         113
  C:2633H         LINE#         114
  C:2633H         LINE#         116
  C:2639H         LINE#         117
  C:2640H         LINE#         119
  C:2640H         LINE#         120
  C:2640H         LINE#         121
  C:2647H         LINE#         122
  C:264BH         LINE#         124
  C:264EH         LINE#         125
  C:264EH         LINE#         126
  C:264EH         LINE#         128
  -------         ENDPROC       REPEAT_PRO
  -------         ENDMOD        APP_REPEAT_EXE

  -------         MODULE        APP_2D4
  C:0000H         SYMBOL        _ICE_DUMMY_
  D:0080H         PUBLIC        P0
  D:0090H         PUBLIC        P1
  X:0040H         SYMBOL        testbuf
  D:00A0H         PUBLIC        P2
  D:00B0H         PUBLIC        P3
  C:3269H         PUBLIC        app_2d4_init
  D:00D8H         PUBLIC        P5
  C:3690H         SYMBOL        BT_play_show_lcd_resp
  C:3569H         SYMBOL        BT_prev_show_lcd_resp
  D:00A8H         PUBLIC        IE
  C:3587H         SYMBOL        LED_clear_blink_name_show_lcd_resp
  C:355AH         SYMBOL        BT_next_show_lcd_resp
  C:3456H         SYMBOL        speaker_status_resp
  D:00B8H         PUBLIC        IP
  C:34F8H         SYMBOL        FM_scanning_show_lcd_resp
  C:000EH         PUBLIC        app_2d4_pro
  D:0098H         PUBLIC        SCON
  D:0088H         PUBLIC        TCON
  C:30EDH         SYMBOL        USB_track_show_lcd_resp
  C:353CH         SYMBOL        clear_lcd_resp
  C:354BH         SYMBOL        USB_pause_show_lcd_resp
  C:258AH         SYMBOL        _?ix1000
  D:00F8H         PUBLIC        SCON_1
  C:346CH         SYMBOL        relay_status_resp
  C:3578H         SYMBOL        LED_show_blink_name_show_lcd_resp
  I:009DH         PUBLIC        sendBuf
  C:311FH         SYMBOL        FM_station_show_lcd_resp
  I:00ADH         SYMBOL        sendRcv_flag
  D:00E8H         PUBLIC        ADCCON0
  D:00C0H         PUBLIC        I2CON
  C:36A2H         SYMBOL        AUX_play_show_lcd_resp
BL51 BANKED LINKER/LOCATER V6.22                                                      11/01/2017  06:16:47  PAGE 19


  C:3699H         SYMBOL        AUX_mute_show_lcd_resp
  D:00C8H         PUBLIC        T2CON
  I:00AEH         SYMBOL        rcvBuf
  C:3687H         SYMBOL        BT_pause_show_lcd_resp
  C:2FD8H         SYMBOL        vol_resp
  X:0050H         SYMBOL        tmpBuf
  C:0958H         SYMBOL        _app_2d4_Rcv
  C:2E77H         PUBLIC        _app_2d4_send
  D:00D0H         PUBLIC        PSW
  -------         PROC          APP_2D4_INIT
  C:3269H         LINE#         23
  C:3269H         LINE#         25
  C:326DH         LINE#         26
  C:3279H         LINE#         27
  C:3288H         LINE#         29
  C:328BH         LINE#         30
  -------         ENDPROC       APP_2D4_INIT
  -------         PROC          _APP_2D4_SEND
  X:0005H         SYMBOL        d
  X:0008H         SYMBOL        len
  C:2E77H         LINE#         35
  C:2E85H         LINE#         37
  C:2E8AH         LINE#         39
  C:2E8AH         LINE#         41
  C:2E8DH         LINE#         42
  C:2E91H         LINE#         44
  C:2EACH         LINE#         45
  C:2EC7H         LINE#         46
  C:2EC7H         LINE#         48
  -------         ENDPROC       _APP_2D4_SEND
  -------         PROC          SPEAKER_STATUS_RESP
  C:3456H         LINE#         49
  C:3456H         LINE#         50
  C:345EH         LINE#         51
  C:3462H         LINE#         52
  C:3464H         LINE#         53
  C:346BH         LINE#         54
  C:346BH         LINE#         55
  -------         ENDPROC       SPEAKER_STATUS_RESP
  -------         PROC          RELAY_STATUS_RESP
  C:346CH         LINE#         56
  C:346CH         LINE#         57
  C:3474H         LINE#         58
  C:3478H         LINE#         59
  C:347AH         LINE#         60
  C:3481H         LINE#         61
  C:3481H         LINE#         63
  -------         ENDPROC       RELAY_STATUS_RESP
  -------         PROC          VOL_RESP
  -------         DO            
  X:0008H         SYMBOL        str
  -------         ENDDO         
  C:2FD8H         LINE#         64
  C:2FD8H         LINE#         65
  C:2FEBH         LINE#         67
  C:300CH         LINE#         68
  -------         ENDPROC       VOL_RESP
BL51 BANKED LINKER/LOCATER V6.22                                                      11/01/2017  06:16:47  PAGE 20


  -------         PROC          CLEAR_LCD_RESP
  C:353CH         LINE#         71
  C:353CH         LINE#         72
  C:3545H         LINE#         74
  C:3548H         LINE#         75
  -------         ENDPROC       CLEAR_LCD_RESP
  -------         PROC          BT_PAUSE_SHOW_LCD_RESP
  C:3687H         LINE#         77
  C:3687H         LINE#         78
  -------         ENDPROC       BT_PAUSE_SHOW_LCD_RESP
  -------         PROC          BT_PLAY_SHOW_LCD_RESP
  C:3690H         LINE#         81
  C:3690H         LINE#         82
  -------         ENDPROC       BT_PLAY_SHOW_LCD_RESP
  -------         PROC          FM_SCANNING_SHOW_LCD_RESP
  C:34F8H         LINE#         84
  C:34F8H         LINE#         85
  C:3501H         LINE#         86
  C:3504H         LINE#         87
  C:3507H         LINE#         88
  -------         ENDPROC       FM_SCANNING_SHOW_LCD_RESP
  -------         PROC          AUX_MUTE_SHOW_LCD_RESP
  C:3699H         LINE#         98
  C:3699H         LINE#         99
  -------         ENDPROC       AUX_MUTE_SHOW_LCD_RESP
  -------         PROC          AUX_PLAY_SHOW_LCD_RESP
  C:36A2H         LINE#         102
  C:36A2H         LINE#         103
  -------         ENDPROC       AUX_PLAY_SHOW_LCD_RESP
  -------         PROC          USB_PAUSE_SHOW_LCD_RESP
  C:354BH         LINE#         106
  C:354BH         LINE#         107
  C:3554H         LINE#         108
  C:3557H         LINE#         109
  -------         ENDPROC       USB_PAUSE_SHOW_LCD_RESP
  -------         PROC          BT_NEXT_SHOW_LCD_RESP
  C:355AH         LINE#         118
  C:355AH         LINE#         119
  C:3563H         LINE#         120
  C:3566H         LINE#         121
  -------         ENDPROC       BT_NEXT_SHOW_LCD_RESP
  -------         PROC          BT_PREV_SHOW_LCD_RESP
  C:3569H         LINE#         123
  C:3569H         LINE#         124
  C:3572H         LINE#         125
  C:3575H         LINE#         126
  -------         ENDPROC       BT_PREV_SHOW_LCD_RESP
  -------         PROC          FM_STATION_SHOW_LCD_RESP
  C:311FH         LINE#         128
  C:311FH         LINE#         129
  C:3140H         LINE#         130
  C:3149H         LINE#         131
  C:314CH         LINE#         132
  -------         ENDPROC       FM_STATION_SHOW_LCD_RESP
  -------         PROC          USB_TRACK_SHOW_LCD_RESP
  C:30EDH         LINE#         134
  C:30EDH         LINE#         135
BL51 BANKED LINKER/LOCATER V6.22                                                      11/01/2017  06:16:47  PAGE 21


  C:3110H         LINE#         136
  C:3119H         LINE#         137
  C:311CH         LINE#         138
  -------         ENDPROC       USB_TRACK_SHOW_LCD_RESP
  -------         PROC          LED_SHOW_BLINK_NAME_SHOW_LCD_RESP
  C:3578H         LINE#         140
  C:3578H         LINE#         142
  C:3581H         LINE#         144
  C:3584H         LINE#         145
  -------         ENDPROC       LED_SHOW_BLINK_NAME_SHOW_LCD_RESP
  -------         PROC          LED_CLEAR_BLINK_NAME_SHOW_LCD_RESP
  C:3587H         LINE#         147
  C:3587H         LINE#         149
  C:3590H         LINE#         150
  C:3593H         LINE#         151
  -------         ENDPROC       LED_CLEAR_BLINK_NAME_SHOW_LCD_RESP
  -------         PROC          _APP_2D4_RCV
  X:0002H         SYMBOL        buf
  -------         DO            
  X:0005H         SYMBOL        i
  X:0006H         SYMBOL        index
  X:0007H         SYMBOL        check
  -------         ENDDO         
  C:0958H         LINE#         156
  C:0963H         LINE#         157
  C:0966H         LINE#         158
  C:0968H         LINE#         159
  C:096AH         LINE#         161
  C:0974H         LINE#         163
  C:0974H         LINE#         164
  C:0977H         LINE#         165
  C:0990H         LINE#         167
  C:0990H         LINE#         168
  C:09BCH         LINE#         169
  C:09D1H         LINE#         170
  C:09D9H         LINE#         171
  C:09FFH         LINE#         173
  C:09FFH         LINE#         175
  C:0A0EH         LINE#         176
  C:0A13H         LINE#         177
  C:0A4FH         LINE#         178
  C:0A4FH         LINE#         179
  C:0A59H         LINE#         180
  C:0A5FH         LINE#         181
  C:0A65H         LINE#         182
  C:0A65H         LINE#         184
  C:0A65H         LINE#         185
  C:0A80H         LINE#         186
  C:0A86H         LINE#         187
  C:0A8CH         LINE#         188
  C:0A8CH         LINE#         190
  C:0A8CH         LINE#         191
  C:0A8CH         LINE#         192
  C:0A8EH         LINE#         193
  C:0A8EH         LINE#         194
  C:0A8EH         LINE#         195
  C:0A8EH         LINE#         196
BL51 BANKED LINKER/LOCATER V6.22                                                      11/01/2017  06:16:47  PAGE 22


  C:0A8EH         LINE#         197
  C:0A8EH         LINE#         198
  C:0ABCH         LINE#         199
  C:0ABCH         LINE#         200
  C:0AC5H         LINE#         201
  C:0ACBH         LINE#         202
  C:0ACBH         LINE#         203
  C:0ACBH         LINE#         204
  C:0AE6H         LINE#         205
  C:0AECH         LINE#         206
  C:0AECH         LINE#         207
  C:0AECH         LINE#         208
  C:0AECH         LINE#         209
  C:0AEEH         LINE#         210
  C:0AEEH         LINE#         211
  C:0B02H         LINE#         212
  C:0B0BH         LINE#         213
  C:0B14H         LINE#         214
  C:0B1CH         LINE#         215
  C:0B32H         LINE#         219
  C:0B32H         LINE#         220
  C:0B35H         LINE#         221
  C:0B35H         LINE#         222
  C:0B49H         LINE#         223
  C:0B52H         LINE#         224
  C:0B5BH         LINE#         225
  C:0B63H         LINE#         226
  C:0B7EH         LINE#         227
  C:0B87H         LINE#         228
  C:0B90H         LINE#         229
  C:0B98H         LINE#         230
  C:0B98H         LINE#         231
  C:0B9BH         LINE#         232
  C:0B9BH         LINE#         233
  C:0BB4H         LINE#         237
  C:0BBCH         LINE#         238
  C:0BC5H         LINE#         239
  C:0BCEH         LINE#         240
  C:0BD6H         LINE#         241
  C:0BD6H         LINE#         242
  C:0BD9H         LINE#         243
  C:0BD9H         LINE#         244
  C:0BEEH         LINE#         245
  C:0C02H         LINE#         246
  C:0C0BH         LINE#         247
  C:0C14H         LINE#         248
  C:0C1CH         LINE#         250
  C:0C1FH         LINE#         251
  C:0C1FH         LINE#         252
  C:0C1FH         LINE#         253
  C:0C1FH         LINE#         254
  C:0C1FH         LINE#         255
  C:0C1FH         LINE#         256
  C:0C22H         LINE#         257
  C:0C22H         LINE#         258
  C:0C22H         LINE#         259
  C:0C22H         LINE#         261
BL51 BANKED LINKER/LOCATER V6.22                                                      11/01/2017  06:16:47  PAGE 23


  C:0C22H         LINE#         262
  C:0C22H         LINE#         263
  C:0C48H         LINE#         264
  C:0C48H         LINE#         265
  C:0C51H         LINE#         266
  C:0C57H         LINE#         267
  C:0C57H         LINE#         268
  C:0C57H         LINE#         269
  C:0C72H         LINE#         270
  C:0C78H         LINE#         271
  C:0C78H         LINE#         272
  C:0C78H         LINE#         273
  C:0C78H         LINE#         274
  C:0C7BH         LINE#         275
  C:0C7BH         LINE#         276
  C:0C8FH         LINE#         277
  C:0C95H         LINE#         278
  C:0C95H         LINE#         279
  C:0C95H         LINE#         281
  C:0C98H         LINE#         282
  C:0C98H         LINE#         283
  C:0C98H         LINE#         284
  C:0C98H         LINE#         285
  C:0CAFH         LINE#         286
  C:0CBCH         LINE#         287
  C:0CC2H         LINE#         288
  C:0CC2H         LINE#         289
  C:0CC2H         LINE#         291
  C:0CC5H         LINE#         292
  C:0CC5H         LINE#         293
  C:0CD7H         LINE#         294
  C:0CDAH         LINE#         295
  C:0CDAH         LINE#         296
  C:0CDAH         LINE#         297
  C:0CDAH         LINE#         298
  C:0CDAH         LINE#         299
  C:0CDAH         LINE#         300
  C:0CDAH         LINE#         301
  C:0CDAH         LINE#         302
  C:0CDDH         LINE#         303
  C:0CF9H         LINE#         304
  C:0D02H         LINE#         305
  C:0D04H         LINE#         307
  C:0D3FH         LINE#         308
  C:0D3FH         LINE#         309
  C:0D50H         LINE#         310
  C:0D53H         LINE#         311
  C:0D53H         LINE#         312
  C:0D56H         LINE#         313
  C:0D59H         LINE#         314
  C:0D5CH         LINE#         315
  C:0D5FH         LINE#         317
  C:0D76H         LINE#         318
  C:0D8DH         LINE#         319
  C:0DABH         LINE#         320
  C:0DBDH         LINE#         321
  C:0DBFH         LINE#         322
BL51 BANKED LINKER/LOCATER V6.22                                                      11/01/2017  06:16:47  PAGE 24


  C:0DF0H         LINE#         323
  C:0DF0H         LINE#         324
  C:0E01H         LINE#         325
  C:0E04H         LINE#         326
  C:0E04H         LINE#         327
  C:0E1AH         LINE#         328
  C:0E20H         LINE#         329
  C:0E20H         LINE#         330
  C:0E20H         LINE#         331
  C:0E22H         LINE#         333
  C:0E22H         LINE#         334
  C:0E37H         LINE#         335
  C:0E4BH         LINE#         336
  C:0E54H         LINE#         337
  C:0E5DH         LINE#         338
  C:0E65H         LINE#         339
  C:0E68H         LINE#         340
  C:0E74H         LINE#         341
  C:0E74H         LINE#         342
  C:0E74H         LINE#         343
  C:0E74H         LINE#         344
  C:0E74H         LINE#         346
  C:0E77H         LINE#         347
  C:0E77H         LINE#         348
  C:0E8DH         LINE#         349
  C:0E91H         LINE#         350
  C:0E93H         LINE#         351
  C:0E97H         LINE#         352
  C:0E97H         LINE#         353
  C:0EA0H         LINE#         354
  C:0EA9H         LINE#         355
  C:0EB3H         LINE#         356
  C:0EB6H         LINE#         357
  C:0EB6H         LINE#         370
  C:0ECEH         LINE#         371
  C:0ED1H         LINE#         372
  C:0EE6H         LINE#         373
  C:0EFAH         LINE#         374
  C:0F03H         LINE#         375
  C:0F0CH         LINE#         376
  C:0F15H         LINE#         377
  C:0F18H         LINE#         378
  C:0F2DH         LINE#         379
  C:0F36H         LINE#         380
  C:0F3FH         LINE#         381
  C:0F4BH         LINE#         382
  C:0F4BH         LINE#         383
  C:0F4EH         LINE#         384
  C:0F51H         LINE#         385
  C:0F51H         LINE#         386
  C:0F54H         LINE#         387
  C:0F54H         LINE#         388
  C:0F71H         LINE#         389
  C:0F86H         LINE#         390
  C:0F8FH         LINE#         391
  C:0F98H         LINE#         392
  C:0FA4H         LINE#         393
BL51 BANKED LINKER/LOCATER V6.22                                                      11/01/2017  06:16:47  PAGE 25


  C:0FA6H         LINE#         394
  C:0FA6H         LINE#         395
  C:0FC3H         LINE#         396
  C:0FD8H         LINE#         397
  C:0FE1H         LINE#         398
  C:0FEAH         LINE#         399
  C:0FF9H         LINE#         400
  C:0FFCH         LINE#         401
  C:0FFCH         LINE#         402
  C:0FFFH         LINE#         403
  C:1002H         LINE#         404
  C:1005H         LINE#         405
  C:1008H         LINE#         406
  C:100BH         LINE#         407
  C:100EH         LINE#         408
  C:1011H         LINE#         410
  C:102DH         LINE#         411
  C:102DH         LINE#         412
  C:1030H         LINE#         413
  C:1044H         LINE#         414
  C:1050H         LINE#         415
  C:1066H         LINE#         416
  C:1075H         LINE#         417
  C:1075H         LINE#         418
  C:1086H         LINE#         419
  C:1088H         LINE#         420
  C:1088H         LINE#         422
  C:1088H         LINE#         423
  C:1088H         LINE#         424
  C:108BH         LINE#         425
  C:109FH         LINE#         426
  C:10ABH         LINE#         427
  C:10C1H         LINE#         428
  C:10D0H         LINE#         429
  C:10D0H         LINE#         430
  C:10E4H         LINE#         431
  C:10E4H         LINE#         432
  C:10E4H         LINE#         434
  C:10E4H         LINE#         435
  C:10E4H         LINE#         436
  C:10E4H         LINE#         437
  C:10E4H         LINE#         439
  C:10F3H         LINE#         440
  C:111FH         LINE#         441
  C:1133H         LINE#         443
  C:1139H         LINE#         444
  C:113BH         LINE#         446
  C:113BH         LINE#         448
  -------         ENDPROC       _APP_2D4_RCV
  -------         PROC          APP_2D4_PRO
  C:000EH         LINE#         450
  C:000EH         LINE#         451
  C:0013H         LINE#         452
  C:0023H         LINE#         453
  C:0023H         LINE#         455
  C:0026H         LINE#         456
  C:0029H         LINE#         458
BL51 BANKED LINKER/LOCATER V6.22                                                      11/01/2017  06:16:47  PAGE 26


  C:002DH         LINE#         459
  C:0030H         LINE#         463
  C:0030H         LINE#         464
  C:0030H         LINE#         466
  C:0030H         LINE#         467
  C:0030H         LINE#         468
  C:0032H         LINE#         469
  C:0032H         LINE#         471
  C:0035H         LINE#         472
  C:0038H         LINE#         473
  C:0038H         LINE#         474
  C:0038H         LINE#         476
  C:0043H         LINE#         478
  C:0043H         LINE#         479
  C:0043H         LINE#         481
  C:0043H         LINE#         482
  C:0051H         LINE#         484
  C:005AH         LINE#         485
  C:005AH         LINE#         487
  C:005AH         LINE#         489
  -------         ENDPROC       APP_2D4_PRO
  -------         ENDMOD        APP_2D4

  -------         MODULE        APP_LCD
  C:0000H         SYMBOL        _ICE_DUMMY_
  D:0080H         PUBLIC        P0
  D:0090H         PUBLIC        P1
  D:00A0H         PUBLIC        P2
  D:00B0H         PUBLIC        P3
  D:00D8H         PUBLIC        P5
  C:35A5H         PUBLIC        app_lcd_pro
  D:00A8H         PUBLIC        IE
  D:00B8H         PUBLIC        IP
  D:0098H         PUBLIC        SCON
  D:0088H         PUBLIC        TCON
  D:00F8H         PUBLIC        SCON_1
  C:2EC8H         PUBLIC        _app_lcd_default_string_set
  D:00E8H         PUBLIC        ADCCON0
  D:00C0H         PUBLIC        I2CON
  D:00C8H         PUBLIC        T2CON
  C:3596H         PUBLIC        app_lcd_init
  X:0097H         SYMBOL        lcd_default_string
  D:00D0H         PUBLIC        PSW
  -------         PROC          APP_LCD_INIT
  C:3596H         LINE#         12
  C:3596H         LINE#         13
  -------         ENDPROC       APP_LCD_INIT
  -------         PROC          _APP_LCD_DEFAULT_STRING_SET
  X:0008H         SYMBOL        s
  X:000BH         SYMBOL        len
  C:2EC8H         LINE#         15
  C:2ED6H         LINE#         16
  C:2EFCH         LINE#         17
  C:2F06H         LINE#         18
  C:2F12H         LINE#         19
  C:2F12H         LINE#         20
  -------         ENDPROC       _APP_LCD_DEFAULT_STRING_SET
BL51 BANKED LINKER/LOCATER V6.22                                                      11/01/2017  06:16:47  PAGE 27


  -------         PROC          APP_LCD_PRO
  C:35A5H         LINE#         22
  C:35A5H         LINE#         24
  C:35AAH         LINE#         25
  C:35B3H         LINE#         27
  C:35B3H         LINE#         29
  -------         ENDPROC       APP_LCD_PRO
  -------         ENDMOD        APP_LCD

  -------         MODULE        BSP
  C:0000H         SYMBOL        _ICE_DUMMY_
  D:0080H         PUBLIC        P0
  D:0090H         PUBLIC        P1
  D:00A0H         PUBLIC        P2
  D:00B0H         PUBLIC        P3
  D:00D8H         PUBLIC        P5
  B:00A8H.7       PUBLIC        EA
  D:00A8H         PUBLIC        IE
  D:00B8H         PUBLIC        IP
  B:0021H.1       PUBLIC        BIT_TMP
  D:0098H         PUBLIC        SCON
  D:0088H         PUBLIC        TCON
  C:33D3H         PUBLIC        bsp_Init
  D:00F8H         PUBLIC        SCON_1
  D:00E8H         PUBLIC        ADCCON0
  D:00C0H         PUBLIC        I2CON
  D:00C8H         PUBLIC        T2CON
  D:00D0H         PUBLIC        PSW
  -------         PROC          BSP_INIT
  C:33D3H         LINE#         5
  C:33D3H         LINE#         10
  C:33D6H         LINE#         12
  C:33D9H         LINE#         14
  C:33DCH         LINE#         15
  C:33DFH         LINE#         16
  C:33E2H         LINE#         19
  C:33E5H         LINE#         21
  C:33E8H         LINE#         23
  C:33EBH         LINE#         25
  C:33EDH         LINE#         26
  -------         ENDPROC       BSP_INIT
  -------         ENDMOD        BSP

  -------         MODULE        BSP_KEY
  C:0000H         SYMBOL        _ICE_DUMMY_
  D:00B1H         PUBLIC        P0M1
  D:00B2H         PUBLIC        P0M2
  D:0080H         PUBLIC        P0
  D:0090H         PUBLIC        P1
  D:00A0H         PUBLIC        P2
  C:2ACDH         SYMBOL        _IsKeyDown
  D:00B0H         PUBLIC        P3
  D:00D8H         PUBLIC        P5
  C:34ABH         PUBLIC        _bsp_PutKey
  D:00A8H         PUBLIC        IE
  C:264FH         SYMBOL        bsp_InitKeyVar
  X:00B2H         PUBLIC        pBtn
BL51 BANKED LINKER/LOCATER V6.22                                                      11/01/2017  06:16:47  PAGE 28


  D:00B8H         PUBLIC        IP
  C:350AH         SYMBOL        IsKeyDown_1AND6
  C:33B7H         PUBLIC        bsp_GetKey2
  C:1E1FH         SYMBOL        _bsp_DetectKey
  B:0080H.2       PUBLIC        P02
  C:36ABH         SYMBOL        IsKeyDown1
  D:0098H         PUBLIC        SCON
  C:35B4H         SYMBOL        IsKeyDown2
  D:0088H         PUBLIC        TCON
  C:35C3H         SYMBOL        IsKeyDown3
  C:35D2H         SYMBOL        IsKeyDown4
  C:360EH         SYMBOL        IsKeyDown5
  C:3779H         SYMBOL        IsKeyDown6
  C:377FH         SYMBOL        IsKeyDown7
  C:35E1H         SYMBOL        IsKeyDown8
  C:35F0H         SYMBOL        IsKeyDown9
  C:378BH         PUBLIC        bsp_ClearKey
  X:00B5H         PUBLIC        min
  D:00F8H         PUBLIC        SCON_1
  X:00B7H         PUBLIC        max
  C:33EEH         PUBLIC        bsp_KeyScan
  D:00E8H         PUBLIC        ADCCON0
  D:00C0H         PUBLIC        I2CON
  D:00C8H         PUBLIC        T2CON
  C:3785H         PUBLIC        bsp_InitKey
  C:36EDH         SYMBOL        bsp_InitKeyHard
  I:0022H         SYMBOL        s_tBtn
  I:0090H         SYMBOL        s_tKey
  C:339BH         PUBLIC        bsp_GetKey
  C:328EH         PUBLIC        _bsp_SetKeyParam
  C:3668H         PUBLIC        _bsp_GetKeyState
  D:00D0H         PUBLIC        PSW
  -------         PROC          ISKEYDOWN1
  C:36ABH         LINE#         46
  C:36ABH         LINE#         47
  C:36AEH         LINE#         48
  C:36B1H         LINE#         49
  C:36B1H         LINE#         50
  C:36B3H         LINE#         51
  C:36B3H         LINE#         52
  -------         ENDPROC       ISKEYDOWN1
  -------         PROC          L?0067
  -------         ENDPROC       L?0067
  -------         PROC          _ISKEYDOWN
  D:0006H         SYMBOL        key_ad
  D:0004H         SYMBOL        result_ad
  C:2ACDH         LINE#         55
  C:2ACDH         LINE#         57
  C:2AF2H         LINE#         58
  C:2B11H         LINE#         60
  C:2B2AH         LINE#         61
  -------         ENDPROC       _ISKEYDOWN
  -------         PROC          ISKEYDOWN2
  C:35B4H         LINE#         64
  C:35B4H         LINE#         66
  C:35C2H         LINE#         67
  -------         ENDPROC       ISKEYDOWN2
BL51 BANKED LINKER/LOCATER V6.22                                                      11/01/2017  06:16:47  PAGE 29


  -------         PROC          ISKEYDOWN3
  C:35C3H         LINE#         69
  C:35C3H         LINE#         70
  C:35D1H         LINE#         71
  -------         ENDPROC       ISKEYDOWN3
  -------         PROC          ISKEYDOWN4
  C:35D2H         LINE#         73
  C:35D2H         LINE#         74
  C:35E0H         LINE#         75
  -------         ENDPROC       ISKEYDOWN4
  -------         PROC          ISKEYDOWN5
  C:360EH         LINE#         77
  C:360EH         LINE#         79
  C:361BH         LINE#         80
  -------         ENDPROC       ISKEYDOWN5
  -------         PROC          ISKEYDOWN6
  C:3779H         LINE#         82
  C:3779H         LINE#         83
  C:377EH         LINE#         84
  -------         ENDPROC       ISKEYDOWN6
  -------         PROC          ISKEYDOWN7
  C:377FH         LINE#         86
  C:377FH         LINE#         87
  C:3784H         LINE#         88
  -------         ENDPROC       ISKEYDOWN7
  -------         PROC          ISKEYDOWN8
  C:35E1H         LINE#         90
  C:35E1H         LINE#         91
  C:35EFH         LINE#         92
  -------         ENDPROC       ISKEYDOWN8
  -------         PROC          ISKEYDOWN9
  C:35F0H         LINE#         94
  C:35F0H         LINE#         95
  C:35FEH         LINE#         96
  -------         ENDPROC       ISKEYDOWN9
  -------         PROC          ISKEYDOWN_1AND6
  C:350AH         LINE#         98
  C:350AH         LINE#         99
  C:3516H         LINE#         100
  C:3519H         LINE#         101
  C:3519H         LINE#         102
  C:351BH         LINE#         103
  C:351BH         LINE#         105
  -------         ENDPROC       ISKEYDOWN_1AND6
  -------         PROC          BSP_INITKEY
  C:3785H         LINE#         114
  C:3785H         LINE#         115
  C:3788H         LINE#         116
  -------         ENDPROC       BSP_INITKEY
  -------         PROC          _BSP_PUTKEY
  D:0007H         SYMBOL        _KeyCode
  C:34ABH         LINE#         127
  C:34ABH         LINE#         128
  C:34B3H         LINE#         130
  C:34BCH         LINE#         131
  C:34BEH         LINE#         132
  C:34BEH         LINE#         133
BL51 BANKED LINKER/LOCATER V6.22                                                      11/01/2017  06:16:47  PAGE 30


  -------         ENDPROC       _BSP_PUTKEY
  -------         PROC          BSP_GETKEY
  -------         DO            
  D:0007H         SYMBOL        ret
  -------         ENDDO         
  C:339BH         LINE#         143
  C:339BH         LINE#         146
  C:33A3H         LINE#         147
  C:33A5H         LINE#         148
  C:33A5H         LINE#         149
  C:33ABH         LINE#         151
  C:33B4H         LINE#         152
  C:33B6H         LINE#         153
  C:33B6H         LINE#         154
  C:33B6H         LINE#         155
  C:33B6H         LINE#         156
  -------         ENDPROC       BSP_GETKEY
  -------         PROC          BSP_GETKEY2
  -------         DO            
  D:0007H         SYMBOL        ret
  -------         ENDDO         
  C:33B7H         LINE#         166
  C:33B7H         LINE#         169
  C:33BFH         LINE#         170
  C:33C1H         LINE#         171
  C:33C1H         LINE#         172
  C:33C7H         LINE#         174
  C:33D0H         LINE#         175
  C:33D2H         LINE#         176
  C:33D2H         LINE#         177
  C:33D2H         LINE#         178
  C:33D2H         LINE#         179
  -------         ENDPROC       BSP_GETKEY2
  -------         PROC          _BSP_GETKEYSTATE
  D:0007H         SYMBOL        _ucKeyID
  C:3668H         LINE#         189
  C:3668H         LINE#         190
  C:3672H         LINE#         191
  -------         ENDPROC       _BSP_GETKEYSTATE
  -------         PROC          _BSP_SETKEYPARAM
  D:0007H         SYMBOL        _ucKeyID
  D:0004H         SYMBOL        _LongTime
  D:0003H         SYMBOL        _RepeatSpeed
  C:328EH         LINE#         203
  C:328EH         LINE#         204
  C:329BH         LINE#         205
  C:32A7H         LINE#         206
  C:32B1H         LINE#         207
  -------         ENDPROC       _BSP_SETKEYPARAM
  -------         PROC          BSP_CLEARKEY
  C:378BH         LINE#         217
  C:378BH         LINE#         218
  C:3790H         LINE#         219
  -------         ENDPROC       BSP_CLEARKEY
  -------         PROC          BSP_INITKEYHARD
  C:36EDH         LINE#         229
  C:36EDH         LINE#         231
BL51 BANKED LINKER/LOCATER V6.22                                                      11/01/2017  06:16:47  PAGE 31


  C:36F0H         LINE#         232
  C:36F3H         LINE#         234
  -------         ENDPROC       BSP_INITKEYHARD
  -------         PROC          BSP_INITKEYVAR
  -------         DO            
  D:0007H         SYMBOL        i
  -------         ENDDO         
  C:264FH         LINE#         244
  C:264FH         LINE#         248
  C:2653H         LINE#         249
  C:2655H         LINE#         250
  C:2657H         LINE#         253
  C:2658H         LINE#         254
  C:2665H         LINE#         255
  C:266FH         LINE#         256
  C:2679H         LINE#         260
  C:2683H         LINE#         261
  C:268DH         LINE#         262
  C:2692H         LINE#         264
  C:2696H         LINE#         265
  C:269AH         LINE#         268
  C:26A4H         LINE#         269
  C:26AEH         LINE#         270
  C:26B8H         LINE#         271
  C:26C2H         LINE#         272
  C:26CCH         LINE#         273
  C:26D6H         LINE#         274
  C:26E0H         LINE#         275
  C:26EAH         LINE#         276
  C:26F4H         LINE#         277
  C:26FEH         LINE#         278
  -------         ENDPROC       BSP_INITKEYVAR
  -------         PROC          _BSP_DETECTKEY
  X:0003H         SYMBOL        i
  C:1E1FH         LINE#         289
  C:1E24H         LINE#         290
  C:1E38H         LINE#         291
  C:1E44H         LINE#         292
  C:1E5BH         LINE#         293
  C:1E60H         LINE#         294
  C:1E69H         LINE#         295
  C:1E71H         LINE#         296
  C:1E71H         LINE#         297
  C:1E79H         LINE#         298
  C:1E80H         LINE#         301
  C:1E8DH         LINE#         302
  C:1E8DH         LINE#         304
  C:1EACH         LINE#         305
  C:1EB9H         LINE#         307
  C:1ED0H         LINE#         309
  C:1EDAH         LINE#         310
  C:1EDAH         LINE#         311
  C:1EDCH         LINE#         312
  C:1EEBH         LINE#         313
  C:1EF7H         LINE#         314
  C:1EFEH         LINE#         316
  C:1F0BH         LINE#         317
BL51 BANKED LINKER/LOCATER V6.22                                                      11/01/2017  06:16:47  PAGE 32


  C:1F0BH         LINE#         318
  C:1F0BH         LINE#         319
  C:1F0BH         LINE#         320
  C:1F0BH         LINE#         321
  C:1F0BH         LINE#         322
  C:1F0BH         LINE#         323
  C:1F22H         LINE#         324
  C:1F2AH         LINE#         325
  C:1F2FH         LINE#         326
  C:1F37H         LINE#         327
  C:1F39H         LINE#         328
  C:1F42H         LINE#         329
  C:1F49H         LINE#         332
  C:1F57H         LINE#         333
  C:1F57H         LINE#         334
  C:1F57H         LINE#         335
  C:1F6BH         LINE#         336
  C:1F72H         LINE#         337
  C:1F72H         LINE#         338
  -------         ENDPROC       _BSP_DETECTKEY
  -------         PROC          BSP_KEYSCAN
  -------         DO            
  X:0002H         SYMBOL        i
  -------         ENDDO         
  C:33EEH         LINE#         348
  C:33EEH         LINE#         351
  C:33FDH         LINE#         352
  C:3400H         LINE#         353
  C:3408H         LINE#         354
  -------         ENDPROC       BSP_KEYSCAN
  -------         ENDMOD        BSP_KEY

  -------         MODULE        BSP_DISPLAY
  C:0000H         SYMBOL        _ICE_DUMMY_
  C:374FH         PUBLIC        LCD_Show_BAZOOKA_ICO
  D:00B1H         PUBLIC        P0M1
  D:00B3H         PUBLIC        P1M1
  D:00B2H         PUBLIC        P0M2
  D:0080H         PUBLIC        P0
  D:00B5H         PUBLIC        P2M1
  D:00B4H         PUBLIC        P1M2
  D:0090H         PUBLIC        P1
  D:00B6H         PUBLIC        P2M2
  D:00ACH         PUBLIC        P3M1
  D:00A0H         PUBLIC        P2
  D:00DAH         PUBLIC        P4M1
  D:00B0H         PUBLIC        P3
  D:00ADH         PUBLIC        P3M2
  D:00DCH         PUBLIC        P5M1
  D:00DBH         PUBLIC        P4M2
  D:00DDH         PUBLIC        P5M2
  D:00D8H         PUBLIC        P5
  C:3709H         PUBLIC        LCD_Show_FM_ICO
  D:00A8H         PUBLIC        IE
  C:36F4H         PUBLIC        LCD_Clear_LED_ICO
  C:362AH         PUBLIC        LCD_Clear_All
  D:00B8H         PUBLIC        IP
BL51 BANKED LINKER/LOCATER V6.22                                                      11/01/2017  06:16:47  PAGE 33


  C:3756H         PUBLIC        LCD_Clear_upColon_ICO
  C:372CH         PUBLIC        LCD_Clear_USB_ICO
  C:3052H         PUBLIC        LCD_display_InitHard
  C:371EH         PUBLIC        LCD_Clear_AUX_ICO
  C:373AH         PUBLIC        LCD_Clear_MHZ_ICO
  C:376BH         PUBLIC        LCD_Show_downColon_ICO
  D:00FCH         PUBLIC        LCDDAT
  D:00FAH         PUBLIC        LCDCLK
  D:0098H         PUBLIC        SCON
  D:00F9H         PUBLIC        LCDCON
  D:0088H         PUBLIC        TCON
  C:3710H         PUBLIC        LCD_Clear_BLUETooTH_ICO
  C:3791H         PUBLIC        LCD_Clear_Colon_ICO
  C:3748H         PUBLIC        LCD_Clear_BAZOOKA_ICO
  D:00F8H         PUBLIC        SCON_1
  C:36FBH         PUBLIC        LCD_Show_LED_ICO
  D:00FBH         PUBLIC        LCDPTR
  C:3702H         PUBLIC        LCD_Clear_FM_ICO
  C:26FFH         PUBLIC        _LCD_ShowString
  C:22F8H         SYMBOL        _LCD_Clear_mi
  C:005EH         PUBLIC        _LCD_ShowChar
  C:375DH         PUBLIC        LCD_Show_upColon_ICO
  D:00E8H         PUBLIC        ADCCON0
  D:00C0H         PUBLIC        I2CON
  C:3733H         PUBLIC        LCD_Show_USB_ICO
  C:3725H         PUBLIC        LCD_Show_AUX_ICO
  C:3741H         PUBLIC        LCD_Show_MHZ_ICO
  D:00E5H         PUBLIC        LCDSEG0
  D:00E6H         PUBLIC        LCDSEG1
  D:00E7H         PUBLIC        LCDSEG2
  D:00EEH         PUBLIC        LCDSEG3
  D:00C8H         PUBLIC        T2CON
  C:3717H         PUBLIC        LCD_Show_BLUETooTH_ICO
  C:3637H         PUBLIC        LCD_Clear_mi_all
  C:3797H         PUBLIC        LCD_Show_Colon_ICO
  C:3764H         PUBLIC        LCD_Clear_downColon_ICO
  D:00D0H         PUBLIC        PSW
  -------         PROC          LCD_DISPLAY_INITHARD
  C:3052H         LINE#         16
  C:3052H         LINE#         40
  C:3055H         LINE#         41
  C:3058H         LINE#         43
  C:305AH         LINE#         44
  C:305DH         LINE#         46
  C:305FH         LINE#         47
  C:3062H         LINE#         49
  C:3064H         LINE#         50
  C:3067H         LINE#         52
  C:3069H         LINE#         53
  C:306CH         LINE#         55
  C:306EH         LINE#         56
  C:3071H         LINE#         60
  C:3073H         LINE#         62
  C:3076H         LINE#         65
  C:3079H         LINE#         66
  C:307CH         LINE#         67
  C:307FH         LINE#         68
BL51 BANKED LINKER/LOCATER V6.22                                                      11/01/2017  06:16:47  PAGE 34


  C:3082H         LINE#         70
  C:3085H         LINE#         72
  -------         ENDPROC       LCD_DISPLAY_INITHARD
  -------         PROC          LCD_CLEAR_ALL
  -------         DO            
  D:0007H         SYMBOL        i
  -------         ENDDO         
  C:362AH         LINE#         75
  C:362AH         LINE#         77
  C:362CH         LINE#         78
  C:362EH         LINE#         79
  C:3631H         LINE#         80
  C:3636H         LINE#         81
  -------         ENDPROC       LCD_CLEAR_ALL
  -------         PROC          LCD_CLEAR_LED_ICO
  C:36F4H         LINE#         83
  C:36F4H         LINE#         84
  C:36F7H         LINE#         85
  C:36FAH         LINE#         86
  -------         ENDPROC       LCD_CLEAR_LED_ICO
  -------         PROC          LCD_SHOW_LED_ICO
  C:36FBH         LINE#         87
  C:36FBH         LINE#         88
  C:36FEH         LINE#         89
  C:3701H         LINE#         90
  -------         ENDPROC       LCD_SHOW_LED_ICO
  -------         PROC          LCD_CLEAR_FM_ICO
  C:3702H         LINE#         91
  C:3702H         LINE#         92
  C:3705H         LINE#         93
  C:3708H         LINE#         94
  -------         ENDPROC       LCD_CLEAR_FM_ICO
  -------         PROC          LCD_SHOW_FM_ICO
  C:3709H         LINE#         95
  C:3709H         LINE#         96
  C:370CH         LINE#         97
  C:370FH         LINE#         98
  -------         ENDPROC       LCD_SHOW_FM_ICO
  -------         PROC          LCD_CLEAR_BLUETOOTH_ICO
  C:3710H         LINE#         99
  C:3710H         LINE#         100
  C:3713H         LINE#         101
  C:3716H         LINE#         102
  -------         ENDPROC       LCD_CLEAR_BLUETOOTH_ICO
  -------         PROC          LCD_SHOW_BLUETOOTH_ICO
  C:3717H         LINE#         103
  C:3717H         LINE#         104
  C:371AH         LINE#         105
  C:371DH         LINE#         106
  -------         ENDPROC       LCD_SHOW_BLUETOOTH_ICO
  -------         PROC          LCD_CLEAR_AUX_ICO
  C:371EH         LINE#         107
  C:371EH         LINE#         108
  C:3721H         LINE#         109
  C:3724H         LINE#         110
  -------         ENDPROC       LCD_CLEAR_AUX_ICO
  -------         PROC          LCD_SHOW_AUX_ICO
BL51 BANKED LINKER/LOCATER V6.22                                                      11/01/2017  06:16:47  PAGE 35


  C:3725H         LINE#         111
  C:3725H         LINE#         112
  C:3728H         LINE#         113
  C:372BH         LINE#         114
  -------         ENDPROC       LCD_SHOW_AUX_ICO
  -------         PROC          LCD_CLEAR_USB_ICO
  C:372CH         LINE#         115
  C:372CH         LINE#         116
  C:372FH         LINE#         117
  C:3732H         LINE#         118
  -------         ENDPROC       LCD_CLEAR_USB_ICO
  -------         PROC          LCD_SHOW_USB_ICO
  C:3733H         LINE#         119
  C:3733H         LINE#         120
  C:3736H         LINE#         121
  C:3739H         LINE#         122
  -------         ENDPROC       LCD_SHOW_USB_ICO
  -------         PROC          LCD_CLEAR_MHZ_ICO
  C:373AH         LINE#         123
  C:373AH         LINE#         124
  C:373DH         LINE#         125
  C:3740H         LINE#         126
  -------         ENDPROC       LCD_CLEAR_MHZ_ICO
  -------         PROC          LCD_SHOW_MHZ_ICO
  C:3741H         LINE#         127
  C:3741H         LINE#         128
  C:3744H         LINE#         129
  C:3747H         LINE#         130
  -------         ENDPROC       LCD_SHOW_MHZ_ICO
  -------         PROC          LCD_CLEAR_BAZOOKA_ICO
  C:3748H         LINE#         131
  C:3748H         LINE#         132
  C:374BH         LINE#         133
  C:374EH         LINE#         134
  -------         ENDPROC       LCD_CLEAR_BAZOOKA_ICO
  -------         PROC          LCD_SHOW_BAZOOKA_ICO
  C:374FH         LINE#         135
  C:374FH         LINE#         136
  C:3752H         LINE#         137
  C:3755H         LINE#         138
  -------         ENDPROC       LCD_SHOW_BAZOOKA_ICO
  -------         PROC          LCD_CLEAR_UPCOLON_ICO
  C:3756H         LINE#         144
  C:3756H         LINE#         145
  C:3759H         LINE#         146
  C:375CH         LINE#         147
  -------         ENDPROC       LCD_CLEAR_UPCOLON_ICO
  -------         PROC          LCD_SHOW_UPCOLON_ICO
  C:375DH         LINE#         148
  C:375DH         LINE#         149
  C:3760H         LINE#         150
  C:3763H         LINE#         151
  -------         ENDPROC       LCD_SHOW_UPCOLON_ICO
  -------         PROC          LCD_CLEAR_DOWNCOLON_ICO
  C:3764H         LINE#         152
  C:3764H         LINE#         153
  C:3767H         LINE#         154
BL51 BANKED LINKER/LOCATER V6.22                                                      11/01/2017  06:16:47  PAGE 36


  C:376AH         LINE#         155
  -------         ENDPROC       LCD_CLEAR_DOWNCOLON_ICO
  -------         PROC          LCD_SHOW_DOWNCOLON_ICO
  C:376BH         LINE#         156
  C:376BH         LINE#         157
  C:376EH         LINE#         158
  C:3771H         LINE#         159
  -------         ENDPROC       LCD_SHOW_DOWNCOLON_ICO
  -------         PROC          LCD_CLEAR_COLON_ICO
  C:3791H         LINE#         160
  C:3791H         LINE#         161
  C:3794H         LINE#         162
  -------         ENDPROC       LCD_CLEAR_COLON_ICO
  -------         PROC          LCD_SHOW_COLON_ICO
  C:3797H         LINE#         164
  C:3797H         LINE#         165
  C:379AH         LINE#         166
  -------         ENDPROC       LCD_SHOW_COLON_ICO
  -------         PROC          _LCD_CLEAR_MI
  D:0007H         SYMBOL        n
  C:22F8H         LINE#         168
  C:22F8H         LINE#         169
  C:2320H         LINE#         170
  C:2320H         LINE#         171
  C:2323H         LINE#         172
  C:2326H         LINE#         174
  C:2329H         LINE#         175
  C:232CH         LINE#         177
  C:232FH         LINE#         178
  C:2332H         LINE#         180
  C:2335H         LINE#         181
  C:2335H         LINE#         182
  C:2338H         LINE#         183
  C:2338H         LINE#         184
  C:233BH         LINE#         185
  C:233EH         LINE#         187
  C:2341H         LINE#         188
  C:2344H         LINE#         190
  C:2347H         LINE#         191
  C:234AH         LINE#         193
  C:234DH         LINE#         194
  C:234DH         LINE#         195
  C:2350H         LINE#         196
  C:2350H         LINE#         197
  C:2353H         LINE#         198
  C:2356H         LINE#         200
  C:2359H         LINE#         201
  C:235CH         LINE#         203
  C:235FH         LINE#         204
  C:2362H         LINE#         206
  C:2365H         LINE#         207
  C:2365H         LINE#         208
  C:2367H         LINE#         209
  C:2367H         LINE#         210
  C:236AH         LINE#         211
  C:236DH         LINE#         213
  C:2370H         LINE#         214
BL51 BANKED LINKER/LOCATER V6.22                                                      11/01/2017  06:16:47  PAGE 37


  C:2373H         LINE#         216
  C:2376H         LINE#         217
  C:2379H         LINE#         219
  C:237CH         LINE#         220
  C:237CH         LINE#         221
  C:237EH         LINE#         222
  C:237EH         LINE#         223
  C:2381H         LINE#         224
  C:2384H         LINE#         226
  C:2387H         LINE#         227
  C:238AH         LINE#         229
  C:238DH         LINE#         230
  C:2390H         LINE#         232
  C:2393H         LINE#         233
  C:2393H         LINE#         234
  C:2395H         LINE#         235
  C:2395H         LINE#         236
  C:2398H         LINE#         237
  C:239BH         LINE#         239
  C:239EH         LINE#         240
  C:23A1H         LINE#         242
  C:23A4H         LINE#         243
  C:23A7H         LINE#         245
  C:23AAH         LINE#         246
  C:23AAH         LINE#         247
  C:23ACH         LINE#         248
  C:23ACH         LINE#         249
  C:23AFH         LINE#         250
  C:23B2H         LINE#         252
  C:23B5H         LINE#         253
  C:23B8H         LINE#         255
  C:23BBH         LINE#         256
  C:23BEH         LINE#         258
  C:23C1H         LINE#         259
  C:23C1H         LINE#         260
  C:23C3H         LINE#         261
  C:23C3H         LINE#         262
  C:23C6H         LINE#         263
  C:23C9H         LINE#         265
  C:23CCH         LINE#         266
  C:23CFH         LINE#         268
  C:23D2H         LINE#         269
  C:23D5H         LINE#         271
  C:23D8H         LINE#         272
  C:23DBH         LINE#         273
  C:23DBH         LINE#         274
  C:23DBH         LINE#         275
  -------         ENDPROC       _LCD_CLEAR_MI
  -------         PROC          LCD_CLEAR_MI_ALL
  -------         DO            
  D:0006H         SYMBOL        i
  -------         ENDDO         
  C:3637H         LINE#         276
  C:3637H         LINE#         277
  C:3639H         LINE#         278
  C:3639H         LINE#         279
  C:363EH         LINE#         280
BL51 BANKED LINKER/LOCATER V6.22                                                      11/01/2017  06:16:47  PAGE 38


  C:3643H         LINE#         281
  -------         ENDPROC       LCD_CLEAR_MI_ALL
  -------         PROC          _LCD_SHOWCHAR
  D:0007H         SYMBOL        n
  D:0005H         SYMBOL        c
  C:005EH         LINE#         282
  C:005EH         LINE#         283
  C:0067H         LINE#         285
  C:0067H         LINE#         287
  C:0070H         LINE#         288
  C:0072H         LINE#         289
  C:0078H         LINE#         290
  C:007AH         LINE#         291
  C:0080H         LINE#         292
  C:0082H         LINE#         293
  C:0088H         LINE#         294
  C:008AH         LINE#         295
  C:0090H         LINE#         296
  C:0092H         LINE#         297
  C:0092H         LINE#         298
  C:0145H         LINE#         299
  C:0145H         LINE#         300
  C:0151H         LINE#         301
  C:0154H         LINE#         302
  C:0157H         LINE#         304
  C:015DH         LINE#         305
  C:0160H         LINE#         306
  C:0163H         LINE#         308
  C:0169H         LINE#         309
  C:016CH         LINE#         311
  C:016CH         LINE#         312
  C:016CH         LINE#         313
  C:016FH         LINE#         314
  C:016FH         LINE#         315
  C:017BH         LINE#         316
  C:017EH         LINE#         318
  C:0184H         LINE#         319
  C:0187H         LINE#         321
  C:018DH         LINE#         322
  C:0190H         LINE#         324
  C:0190H         LINE#         325
  C:0190H         LINE#         326
  C:0193H         LINE#         327
  C:0193H         LINE#         328
  C:019FH         LINE#         329
  C:01A2H         LINE#         330
  C:01A5H         LINE#         332
  C:01A5H         LINE#         333
  C:01A5H         LINE#         334
  C:01A5H         LINE#         336
  C:01A5H         LINE#         337
  C:01A5H         LINE#         339
  C:01A5H         LINE#         340
  C:01A5H         LINE#         341
  C:01A8H         LINE#         342
  C:01A8H         LINE#         343
  C:01B4H         LINE#         344
BL51 BANKED LINKER/LOCATER V6.22                                                      11/01/2017  06:16:47  PAGE 39


  C:01B7H         LINE#         345
  C:01BAH         LINE#         347
  C:01BAH         LINE#         348
  C:01BAH         LINE#         349
  C:01BAH         LINE#         351
  C:01BAH         LINE#         352
  C:01BAH         LINE#         354
  C:01BAH         LINE#         355
  C:01BAH         LINE#         356
  C:01BDH         LINE#         357
  C:01BDH         LINE#         358
  C:01C9H         LINE#         359
  C:01CCH         LINE#         360
  C:01CFH         LINE#         362
  C:01CFH         LINE#         363
  C:01CFH         LINE#         365
  C:01CFH         LINE#         366
  C:01CFH         LINE#         368
  C:01CFH         LINE#         369
  C:01CFH         LINE#         370
  C:01D2H         LINE#         371
  C:01D2H         LINE#         372
  C:01DEH         LINE#         373
  C:01E1H         LINE#         374
  C:01E4H         LINE#         376
  C:01E4H         LINE#         377
  C:01E4H         LINE#         378
  C:01E4H         LINE#         380
  C:01E4H         LINE#         381
  C:01E4H         LINE#         383
  C:01E4H         LINE#         384
  C:01E4H         LINE#         385
  C:01E7H         LINE#         386
  C:01E7H         LINE#         387
  C:01F3H         LINE#         388
  C:01F6H         LINE#         390
  C:01F6H         LINE#         391
  C:01F6H         LINE#         392
  C:01F6H         LINE#         394
  C:01F6H         LINE#         395
  C:01F6H         LINE#         397
  C:01F6H         LINE#         398
  C:01F6H         LINE#         399
  C:01F9H         LINE#         400
  C:01F9H         LINE#         401
  C:0205H         LINE#         402
  C:0208H         LINE#         404
  C:020EH         LINE#         405
  C:0211H         LINE#         406
  C:0214H         LINE#         408
  C:021AH         LINE#         409
  C:021DH         LINE#         411
  C:021DH         LINE#         412
  C:021DH         LINE#         413
  C:0220H         LINE#         414
  C:0220H         LINE#         415
  C:022CH         LINE#         416
BL51 BANKED LINKER/LOCATER V6.22                                                      11/01/2017  06:16:47  PAGE 40


  C:022FH         LINE#         418
  C:022FH         LINE#         419
  C:022FH         LINE#         420
  C:022FH         LINE#         422
  C:022FH         LINE#         423
  C:022FH         LINE#         425
  C:022FH         LINE#         426
  C:022FH         LINE#         427
  C:0232H         LINE#         428
  C:0232H         LINE#         429
  C:023EH         LINE#         430
  C:0241H         LINE#         431
  C:0244H         LINE#         433
  C:0244H         LINE#         434
  C:0244H         LINE#         435
  C:0244H         LINE#         437
  C:0244H         LINE#         438
  C:0244H         LINE#         440
  C:0244H         LINE#         441
  C:0244H         LINE#         442
  C:0247H         LINE#         443
  C:0247H         LINE#         444
  C:024AH         LINE#         445
  C:024AH         LINE#         446
  C:024AH         LINE#         447
  C:0256H         LINE#         448
  C:0259H         LINE#         450
  C:0259H         LINE#         451
  C:0259H         LINE#         452
  C:0259H         LINE#         454
  C:0259H         LINE#         455
  C:0259H         LINE#         457
  C:0259H         LINE#         458
  C:0259H         LINE#         459
  C:025CH         LINE#         460
  C:025CH         LINE#         461
  C:0268H         LINE#         462
  C:026BH         LINE#         464
  C:0271H         LINE#         465
  C:0274H         LINE#         466
  C:0277H         LINE#         468
  C:027DH         LINE#         469
  C:0280H         LINE#         471
  C:0280H         LINE#         472
  C:0280H         LINE#         473
  C:0283H         LINE#         474
  C:0283H         LINE#         475
  C:028FH         LINE#         476
  C:0292H         LINE#         477
  C:0295H         LINE#         479
  C:029BH         LINE#         480
  C:029EH         LINE#         481
  C:02A1H         LINE#         483
  C:02A1H         LINE#         484
  C:02A1H         LINE#         486
  C:02A1H         LINE#         487
  C:02A1H         LINE#         488
BL51 BANKED LINKER/LOCATER V6.22                                                      11/01/2017  06:16:47  PAGE 41


  C:02A4H         LINE#         489
  C:02A4H         LINE#         490
  C:02B0H         LINE#         491
  C:02B3H         LINE#         493
  C:02B9H         LINE#         494
  C:02BCH         LINE#         495
  C:02BFH         LINE#         497
  C:02C5H         LINE#         498
  C:02C8H         LINE#         500
  C:02C8H         LINE#         501
  C:02C8H         LINE#         502
  C:02CBH         LINE#         503
  C:02CBH         LINE#         504
  C:02D7H         LINE#         505
  C:02DAH         LINE#         507
  C:02E0H         LINE#         508
  C:02E3H         LINE#         509
  C:02E6H         LINE#         511
  C:02E6H         LINE#         512
  C:02E6H         LINE#         514
  C:02E6H         LINE#         515
  C:02E6H         LINE#         516
  C:02E9H         LINE#         517
  C:02E9H         LINE#         518
  C:02F5H         LINE#         519
  C:02F8H         LINE#         521
  C:02FEH         LINE#         522
  C:0301H         LINE#         523
  C:0304H         LINE#         525
  C:030AH         LINE#         526
  C:030DH         LINE#         528
  C:030DH         LINE#         529
  C:030DH         LINE#         530
  C:0310H         LINE#         531
  C:0310H         LINE#         532
  C:031CH         LINE#         533
  C:031FH         LINE#         534
  C:0322H         LINE#         536
  C:0328H         LINE#         537
  C:032BH         LINE#         538
  C:032EH         LINE#         540
  C:032EH         LINE#         541
  C:032EH         LINE#         543
  C:032EH         LINE#         544
  C:032EH         LINE#         545
  C:0331H         LINE#         546
  C:0331H         LINE#         547
  C:033DH         LINE#         548
  C:0340H         LINE#         550
  C:0346H         LINE#         551
  C:0349H         LINE#         553
  C:034FH         LINE#         554
  C:0352H         LINE#         556
  C:0352H         LINE#         557
  C:0352H         LINE#         558
  C:0355H         LINE#         559
  C:0355H         LINE#         560
BL51 BANKED LINKER/LOCATER V6.22                                                      11/01/2017  06:16:47  PAGE 42


  C:0361H         LINE#         561
  C:0364H         LINE#         563
  C:036AH         LINE#         564
  C:036DH         LINE#         565
  C:0370H         LINE#         567
  C:0376H         LINE#         568
  C:0379H         LINE#         570
  C:0379H         LINE#         571
  C:0379H         LINE#         572
  C:037CH         LINE#         573
  C:037CH         LINE#         574
  C:0388H         LINE#         575
  C:038BH         LINE#         576
  C:038EH         LINE#         578
  C:0394H         LINE#         579
  C:0397H         LINE#         581
  C:039DH         LINE#         582
  C:03A0H         LINE#         584
  C:03A0H         LINE#         585
  C:03A0H         LINE#         586
  C:03A3H         LINE#         587
  C:03A3H         LINE#         588
  C:03AFH         LINE#         589
  C:03B2H         LINE#         591
  C:03B8H         LINE#         592
  C:03BBH         LINE#         594
  C:03C1H         LINE#         595
  C:03C4H         LINE#         597
  C:03C4H         LINE#         598
  C:03C4H         LINE#         599
  C:03C7H         LINE#         600
  C:03C7H         LINE#         601
  C:03D3H         LINE#         602
  C:03D6H         LINE#         603
  C:03D9H         LINE#         605
  C:03DFH         LINE#         606
  C:03E2H         LINE#         608
  C:03E8H         LINE#         609
  C:03EBH         LINE#         611
  C:03EBH         LINE#         612
  C:03EBH         LINE#         613
  C:03EEH         LINE#         614
  C:03EEH         LINE#         615
  C:03FAH         LINE#         616
  C:03FDH         LINE#         617
  C:0400H         LINE#         619
  C:0406H         LINE#         620
  C:0409H         LINE#         621
  C:040CH         LINE#         623
  C:0412H         LINE#         624
  C:0415H         LINE#         626
  C:0415H         LINE#         627
  C:0415H         LINE#         628
  C:0418H         LINE#         629
  C:0418H         LINE#         630
  C:0424H         LINE#         631
  C:0427H         LINE#         632
BL51 BANKED LINKER/LOCATER V6.22                                                      11/01/2017  06:16:47  PAGE 43


  C:042AH         LINE#         634
  C:0430H         LINE#         635
  C:0433H         LINE#         636
  C:0436H         LINE#         638
  C:043CH         LINE#         639
  C:043FH         LINE#         641
  C:043FH         LINE#         642
  C:043FH         LINE#         643
  C:0442H         LINE#         644
  C:0442H         LINE#         645
  C:044EH         LINE#         646
  C:0451H         LINE#         647
  C:0454H         LINE#         649
  C:045AH         LINE#         650
  C:045DH         LINE#         651
  C:0460H         LINE#         653
  C:0466H         LINE#         654
  C:0469H         LINE#         656
  C:0469H         LINE#         657
  C:0469H         LINE#         658
  C:046CH         LINE#         659
  C:046CH         LINE#         660
  C:0478H         LINE#         661
  C:047BH         LINE#         663
  C:0481H         LINE#         664
  C:0484H         LINE#         665
  C:0487H         LINE#         667
  C:048DH         LINE#         668
  C:0490H         LINE#         670
  C:0490H         LINE#         671
  C:0490H         LINE#         672
  C:0493H         LINE#         673
  C:0493H         LINE#         674
  C:049FH         LINE#         675
  C:04A2H         LINE#         676
  C:04A5H         LINE#         678
  C:04ABH         LINE#         679
  C:04AEH         LINE#         680
  C:04B1H         LINE#         682
  C:04B7H         LINE#         683
  C:04BAH         LINE#         685
  C:04BAH         LINE#         686
  C:04BAH         LINE#         687
  C:04BDH         LINE#         688
  C:04BDH         LINE#         689
  C:04C9H         LINE#         690
  C:04CCH         LINE#         692
  C:04D2H         LINE#         693
  C:04D5H         LINE#         694
  C:04D8H         LINE#         696
  C:04DEH         LINE#         697
  C:04E1H         LINE#         699
  C:04E7H         LINE#         700
  C:04EAH         LINE#         701
  C:04EBH         LINE#         702
  C:04EBH         LINE#         703
  C:04EBH         LINE#         704
BL51 BANKED LINKER/LOCATER V6.22                                                      11/01/2017  06:16:47  PAGE 44


  C:04EBH         LINE#         705
  C:04F7H         LINE#         706
  C:04FAH         LINE#         708
  C:0500H         LINE#         709
  C:0503H         LINE#         710
  C:0506H         LINE#         712
  C:050CH         LINE#         713
  C:050FH         LINE#         715
  C:050FH         LINE#         716
  C:050FH         LINE#         717
  C:0512H         LINE#         718
  C:0512H         LINE#         719
  C:051EH         LINE#         720
  C:0521H         LINE#         721
  C:0524H         LINE#         723
  C:052AH         LINE#         724
  C:052DH         LINE#         726
  C:0533H         LINE#         727
  C:0536H         LINE#         729
  C:0536H         LINE#         730
  C:0536H         LINE#         731
  C:0539H         LINE#         732
  C:0539H         LINE#         733
  C:0545H         LINE#         734
  C:0548H         LINE#         736
  C:054EH         LINE#         737
  C:0551H         LINE#         738
  C:0554H         LINE#         740
  C:055AH         LINE#         741
  C:055DH         LINE#         743
  C:0563H         LINE#         744
  C:0566H         LINE#         745
  C:0567H         LINE#         746
  C:0567H         LINE#         747
  C:0573H         LINE#         748
  C:0576H         LINE#         749
  C:0579H         LINE#         751
  C:057FH         LINE#         752
  C:0582H         LINE#         754
  C:0588H         LINE#         755
  C:058BH         LINE#         757
  C:058BH         LINE#         758
  C:058BH         LINE#         759
  C:058EH         LINE#         760
  C:058EH         LINE#         761
  C:059AH         LINE#         762
  C:059DH         LINE#         764
  C:05A3H         LINE#         765
  C:05A6H         LINE#         766
  C:05A9H         LINE#         768
  C:05A9H         LINE#         769
  C:05A9H         LINE#         771
  C:05A9H         LINE#         772
  C:05A9H         LINE#         773
  C:05ACH         LINE#         774
  C:05ACH         LINE#         775
  C:05B8H         LINE#         776
BL51 BANKED LINKER/LOCATER V6.22                                                      11/01/2017  06:16:47  PAGE 45


  C:05BBH         LINE#         777
  C:05BEH         LINE#         779
  C:05C4H         LINE#         780
  C:05C7H         LINE#         782
  C:05CDH         LINE#         783
  C:05D0H         LINE#         785
  C:05D0H         LINE#         786
  C:05D0H         LINE#         787
  C:05D3H         LINE#         788
  C:05D3H         LINE#         789
  C:05DFH         LINE#         790
  C:05E2H         LINE#         791
  C:05E5H         LINE#         793
  C:05EBH         LINE#         794
  C:05EEH         LINE#         795
  C:05F1H         LINE#         797
  C:05F7H         LINE#         798
  C:05FAH         LINE#         800
  C:05FAH         LINE#         801
  C:05FAH         LINE#         802
  C:05FDH         LINE#         803
  C:05FDH         LINE#         804
  C:0609H         LINE#         805
  C:060CH         LINE#         806
  C:060FH         LINE#         808
  C:0615H         LINE#         809
  C:0618H         LINE#         810
  C:061BH         LINE#         812
  C:0621H         LINE#         813
  C:0624H         LINE#         815
  C:0624H         LINE#         816
  C:0624H         LINE#         817
  C:0627H         LINE#         818
  C:0627H         LINE#         819
  C:0633H         LINE#         820
  C:0636H         LINE#         822
  C:063CH         LINE#         823
  C:063FH         LINE#         825
  C:0645H         LINE#         826
  C:0648H         LINE#         828
  C:0648H         LINE#         829
  C:0648H         LINE#         830
  C:064BH         LINE#         831
  C:064BH         LINE#         832
  C:0657H         LINE#         833
  C:065AH         LINE#         834
  C:065DH         LINE#         836
  C:0663H         LINE#         837
  C:0666H         LINE#         839
  C:066CH         LINE#         840
  C:066FH         LINE#         842
  C:066FH         LINE#         843
  C:066FH         LINE#         844
  C:0672H         LINE#         845
  C:0672H         LINE#         846
  C:067EH         LINE#         847
  C:0681H         LINE#         848
BL51 BANKED LINKER/LOCATER V6.22                                                      11/01/2017  06:16:47  PAGE 46


  C:0684H         LINE#         850
  C:068AH         LINE#         851
  C:068DH         LINE#         853
  C:0693H         LINE#         854
  C:0696H         LINE#         856
  C:0696H         LINE#         857
  C:0696H         LINE#         858
  C:0699H         LINE#         859
  C:0699H         LINE#         860
  C:06A5H         LINE#         861
  C:06A8H         LINE#         863
  C:06AEH         LINE#         864
  C:06B1H         LINE#         865
  C:06B4H         LINE#         867
  C:06BAH         LINE#         868
  C:06BDH         LINE#         870
  C:06C3H         LINE#         871
  C:06C6H         LINE#         872
  C:06C7H         LINE#         873
  C:06C7H         LINE#         874
  C:06D3H         LINE#         875
  C:06D6H         LINE#         877
  C:06DCH         LINE#         878
  C:06DFH         LINE#         879
  C:06E2H         LINE#         881
  C:06E8H         LINE#         882
  C:06EBH         LINE#         884
  C:06EBH         LINE#         885
  C:06EBH         LINE#         886
  C:06EEH         LINE#         887
  C:06EEH         LINE#         888
  C:06EEH         LINE#         889
  C:06EEH         LINE#         890
  C:06FAH         LINE#         891
  C:06FDH         LINE#         893
  C:0703H         LINE#         894
  C:0706H         LINE#         896
  C:070CH         LINE#         897
  C:070FH         LINE#         899
  C:070FH         LINE#         900
  C:070FH         LINE#         901
  C:0712H         LINE#         902
  C:0712H         LINE#         903
  C:071EH         LINE#         904
  C:0721H         LINE#         906
  C:0727H         LINE#         907
  C:072AH         LINE#         909
  C:0730H         LINE#         910
  C:0733H         LINE#         912
  C:0733H         LINE#         913
  C:0733H         LINE#         914
  C:0736H         LINE#         915
  C:0736H         LINE#         916
  C:0742H         LINE#         917
  C:0745H         LINE#         919
  C:074BH         LINE#         920
  C:074EH         LINE#         922
BL51 BANKED LINKER/LOCATER V6.22                                                      11/01/2017  06:16:47  PAGE 47


  C:0754H         LINE#         923
  C:0757H         LINE#         925
  C:075DH         LINE#         926
  C:0760H         LINE#         927
  C:0761H         LINE#         928
  C:0761H         LINE#         929
  C:076DH         LINE#         930
  C:0770H         LINE#         932
  C:0776H         LINE#         933
  C:0779H         LINE#         935
  C:077FH         LINE#         936
  C:0782H         LINE#         938
  C:0788H         LINE#         939
  C:078BH         LINE#         940
  C:078CH         LINE#         941
  C:078CH         LINE#         942
  C:078CH         LINE#         943
  C:078CH         LINE#         944
  C:0798H         LINE#         945
  C:079BH         LINE#         946
  C:079EH         LINE#         948
  C:07A4H         LINE#         949
  C:07A7H         LINE#         951
  C:07ADH         LINE#         952
  C:07B0H         LINE#         954
  C:07B0H         LINE#         955
  C:07B0H         LINE#         956
  C:07B2H         LINE#         957
  C:07B2H         LINE#         958
  C:07BEH         LINE#         959
  C:07C1H         LINE#         960
  C:07C4H         LINE#         962
  C:07CAH         LINE#         963
  C:07CDH         LINE#         965
  C:07D3H         LINE#         966
  C:07D6H         LINE#         968
  C:07D6H         LINE#         969
  C:07D6H         LINE#         970
  C:07D8H         LINE#         971
  C:07D8H         LINE#         972
  C:07E4H         LINE#         973
  C:07E7H         LINE#         974
  C:07EAH         LINE#         976
  C:07F0H         LINE#         977
  C:07F3H         LINE#         979
  C:07F9H         LINE#         980
  C:07FCH         LINE#         982
  C:0802H         LINE#         983
  C:0805H         LINE#         984
  C:0806H         LINE#         985
  C:0806H         LINE#         986
  C:0806H         LINE#         987
  C:0806H         LINE#         988
  C:0812H         LINE#         989
  C:0815H         LINE#         990
  C:0818H         LINE#         992
  C:081EH         LINE#         993
BL51 BANKED LINKER/LOCATER V6.22                                                      11/01/2017  06:16:47  PAGE 48


  C:0821H         LINE#         994
  C:0824H         LINE#         996
  C:082AH         LINE#         997
  C:082DH         LINE#         999
  C:0833H         LINE#         1000
  C:0836H         LINE#         1001
  C:0837H         LINE#         1002
  C:0837H         LINE#         1003
  C:0843H         LINE#         1004
  C:0846H         LINE#         1006
  C:084CH         LINE#         1007
  C:084FH         LINE#         1009
  C:0855H         LINE#         1010
  C:0858H         LINE#         1012
  C:0858H         LINE#         1013
  C:0858H         LINE#         1014
  C:085AH         LINE#         1015
  C:085AH         LINE#         1016
  C:085AH         LINE#         1017
  C:085AH         LINE#         1018
  C:0866H         LINE#         1019
  C:0869H         LINE#         1021
  C:086FH         LINE#         1022
  C:0872H         LINE#         1024
  C:0878H         LINE#         1025
  C:087BH         LINE#         1027
  C:0881H         LINE#         1028
  C:0884H         LINE#         1029
  C:0885H         LINE#         1030
  C:0885H         LINE#         1031
  C:0891H         LINE#         1032
  C:0894H         LINE#         1033
  C:0897H         LINE#         1035
  C:089DH         LINE#         1036
  C:08A0H         LINE#         1038
  C:08A6H         LINE#         1039
  C:08A9H         LINE#         1041
  C:08A9H         LINE#         1042
  C:08A9H         LINE#         1043
  C:08ABH         LINE#         1044
  C:08ABH         LINE#         1045
  C:08B7H         LINE#         1046
  C:08BAH         LINE#         1048
  C:08C0H         LINE#         1049
  C:08C3H         LINE#         1051
  C:08C9H         LINE#         1052
  C:08CCH         LINE#         1054
  C:08D2H         LINE#         1055
  C:08D5H         LINE#         1056
  C:08D6H         LINE#         1057
  C:08D6H         LINE#         1058
  C:08E2H         LINE#         1059
  C:08E5H         LINE#         1060
  C:08E8H         LINE#         1062
  C:08EEH         LINE#         1063
  C:08F1H         LINE#         1065
  C:08F7H         LINE#         1066
BL51 BANKED LINKER/LOCATER V6.22                                                      11/01/2017  06:16:47  PAGE 49


  C:08FAH         LINE#         1068
  C:0900H         LINE#         1069
  C:0903H         LINE#         1070
  C:0904H         LINE#         1071
  C:0904H         LINE#         1072
  C:0904H         LINE#         1073
  C:0904H         LINE#         1074
  C:0910H         LINE#         1075
  C:0913H         LINE#         1077
  C:0919H         LINE#         1078
  C:091CH         LINE#         1079
  C:091FH         LINE#         1081
  C:0925H         LINE#         1082
  C:0928H         LINE#         1084
  C:0928H         LINE#         1085
  C:0928H         LINE#         1086
  C:092AH         LINE#         1087
  C:092AH         LINE#         1088
  C:0936H         LINE#         1089
  C:0939H         LINE#         1091
  C:093FH         LINE#         1092
  C:0942H         LINE#         1093
  C:0945H         LINE#         1095
  C:094BH         LINE#         1096
  C:094EH         LINE#         1098
  C:0954H         LINE#         1099
  C:0957H         LINE#         1100
  C:0957H         LINE#         1102
  C:0957H         LINE#         1103
  -------         ENDPROC       _LCD_SHOWCHAR
  -------         PROC          _LCD_SHOWSTRING
  X:0018H         SYMBOL        s
  -------         DO            
  X:001BH         SYMBOL        i
  D:0007H         SYMBOL        len
  B:0020H.0       SYMBOL        b
  -------         ENDDO         
  C:26FFH         LINE#         1105
  C:270AH         LINE#         1106
  C:270DH         LINE#         1107
  C:270EH         LINE#         1108
  C:2710H         LINE#         1110
  C:2717H         LINE#         1112
  C:2717H         LINE#         1113
  C:2725H         LINE#         1114
  C:272BH         LINE#         1115
  C:2730H         LINE#         1116
  C:274CH         LINE#         1117
  C:2759H         LINE#         1118
  C:2759H         LINE#         1119
  C:2768H         LINE#         1120
  C:276BH         LINE#         1121
  C:2781H         LINE#         1122
  C:2781H         LINE#         1123
  C:2783H         LINE#         1124
  C:2785H         LINE#         1125
  C:278CH         LINE#         1126
BL51 BANKED LINKER/LOCATER V6.22                                                      11/01/2017  06:16:47  PAGE 50


  C:278CH         LINE#         1127
  C:278EH         LINE#         1128
  C:2798H         LINE#         1129
  C:2798H         LINE#         1130
  C:27A0H         LINE#         1131
  C:27A0H         LINE#         1133
  -------         ENDPROC       _LCD_SHOWSTRING
  -------         ENDMOD        BSP_DISPLAY

  -------         MODULE        BSP_TIMER0
  C:0000H         SYMBOL        _ICE_DUMMY_
  D:0080H         PUBLIC        P0
  D:0090H         PUBLIC        P1
  D:00A0H         PUBLIC        P2
  D:00B0H         PUBLIC        P3
  C:29E3H         PUBLIC        Timer0_ISR
  D:00D8H         PUBLIC        P5
  D:00A8H         PUBLIC        IE
  D:00B8H         PUBLIC        IP
  X:00A7H         PUBLIC        Task_time
  C:32D6H         PUBLIC        Timer0_InitHard
  X:00B0H         SYMBOL        u8TH0_tmp
  X:00B1H         SYMBOL        u8TL0_tmp
  D:0098H         PUBLIC        SCON
  D:0089H         PUBLIC        TMOD
  D:0088H         PUBLIC        TCON
  C:321DH         SYMBOL        timer0_ParamInit
  D:00F8H         PUBLIC        SCON_1
  B:00A8H.1       PUBLIC        ET0
  D:008CH         PUBLIC        TH0
  D:008AH         PUBLIC        TL0
  B:0088H.4       PUBLIC        TR0
  D:00E8H         PUBLIC        ADCCON0
  D:00C0H         PUBLIC        I2CON
  D:00C8H         PUBLIC        T2CON
  D:00D0H         PUBLIC        PSW
  -------         PROC          TIMER0_INITHARD
  C:32D6H         LINE#         18
  C:32D6H         LINE#         20
  C:32D9H         LINE#         22
  C:32DCH         LINE#         23
  C:32DFH         LINE#         24
  C:32E2H         LINE#         25
  C:32E5H         LINE#         27
  C:32EBH         LINE#         28
  C:32EFH         LINE#         30
  C:32F2H         LINE#         31
  C:32F4H         LINE#         33
  C:32F6H         LINE#         34
  C:32F8H         LINE#         36
  -------         ENDPROC       TIMER0_INITHARD
  -------         PROC          TIMER0_PARAMINIT
  C:321DH         LINE#         38
  C:321DH         LINE#         39
  C:3223H         LINE#         40
  C:3228H         LINE#         41
  C:322CH         LINE#         42
BL51 BANKED LINKER/LOCATER V6.22                                                      11/01/2017  06:16:47  PAGE 51


  C:3232H         LINE#         44
  C:3236H         LINE#         45
  C:323AH         LINE#         46
  C:323EH         LINE#         47
  C:3242H         LINE#         49
  -------         ENDPROC       TIMER0_PARAMINIT
  -------         PROC          TIMER0_ISR
  C:29E3H         LINE#         51
  C:29F4H         LINE#         52
  C:29F4H         LINE#         54
  C:29FAH         LINE#         55
  C:29FEH         LINE#         57
  C:2A09H         LINE#         58
  C:2A0BH         LINE#         59
  C:2A0EH         LINE#         61
  C:2A0EH         LINE#         63
  C:2A19H         LINE#         64
  C:2A1BH         LINE#         65
  C:2A1EH         LINE#         67
  C:2A1EH         LINE#         68
  C:2A29H         LINE#         69
  C:2A2BH         LINE#         70
  C:2A2EH         LINE#         71
  C:2A2EH         LINE#         72
  C:2A43H         LINE#         73
  C:2A4AH         LINE#         74
  C:2A4DH         LINE#         76
  C:2A4DH         LINE#         78
  -------         ENDPROC       TIMER0_ISR
  -------         ENDMOD        BSP_TIMER0

  -------         MODULE        BSP_ADC
  C:0000H         SYMBOL        _ICE_DUMMY_
  D:00B1H         PUBLIC        P0M1
  D:00B2H         PUBLIC        P0M2
  D:0080H         PUBLIC        P0
  D:0090H         PUBLIC        P1
  D:00A0H         PUBLIC        P2
  D:00B0H         PUBLIC        P3
  D:00D8H         PUBLIC        P5
  B:00A8H.6       PUBLIC        EADC
  D:00A8H         PUBLIC        IE
  B:00E8H.0       PUBLIC        ADCHS0
  B:00E8H.1       PUBLIC        ADCHS1
  B:00E8H.2       PUBLIC        ADCHS2
  B:00E8H.3       PUBLIC        ADCHS3
  D:00B8H         PUBLIC        IP
  B:00E8H.6       PUBLIC        ADCS
  D:00F6H         PUBLIC        P0DIDS
  D:0098H         PUBLIC        SCON
  D:0088H         PUBLIC        TCON
  C:331CH         PUBLIC        ADC_Start
  C:3088H         PUBLIC        ADC_Init
  D:00F8H         PUBLIC        SCON_1
  D:00E8H         PUBLIC        ADCCON0
  D:00E1H         PUBLIC        ADCCON1
  D:00C0H         PUBLIC        I2CON
BL51 BANKED LINKER/LOCATER V6.22                                                      11/01/2017  06:16:47  PAGE 52


  D:00C8H         PUBLIC        T2CON
  I:0015H         PUBLIC        g_tADC_Result
  D:00D0H         PUBLIC        PSW
  -------         PROC          ADC_INIT
  C:3088H         LINE#         12
  C:3088H         LINE#         13
  C:308CH         LINE#         14
  C:3092H         LINE#         15
  C:3098H         LINE#         24
  C:309BH         LINE#         26
  C:309DH         LINE#         34
  C:30A0H         LINE#         35
  C:30A3H         LINE#         37
  C:30A6H         LINE#         38
  C:30A9H         LINE#         42
  C:30ACH         LINE#         43
  C:30AFH         LINE#         45
  C:30B2H         LINE#         46
  C:30B5H         LINE#         47
  C:30B8H         LINE#         49
  C:30BAH         LINE#         51
  -------         ENDPROC       ADC_INIT
  -------         PROC          ADC_START
  C:331CH         LINE#         53
  C:331CH         LINE#         54
  C:3321H         LINE#         55
  C:3323H         LINE#         56
  C:3325H         LINE#         57
  C:3327H         LINE#         58
  C:3329H         LINE#         59
  C:332BH         LINE#         60
  C:332DH         LINE#         61
  C:332EH         LINE#         62
  C:3332H         LINE#         63
  C:3334H         LINE#         64
  C:3336H         LINE#         65
  C:3338H         LINE#         66
  C:333AH         LINE#         67
  C:333CH         LINE#         68
  C:333CH         LINE#         70
  -------         ENDPROC       ADC_START
  -------         ENDMOD        BSP_ADC

  -------         MODULE        BSP_KEYBRIGHT
  C:0000H         SYMBOL        _ICE_DUMMY_
  D:00B1H         PUBLIC        P0M1
  D:00B2H         PUBLIC        P0M2
  D:0080H         PUBLIC        P0
  D:0090H         PUBLIC        P1
  D:00A0H         PUBLIC        P2
  D:00B0H         PUBLIC        P3
  D:00D8H         PUBLIC        P5
  D:00A8H         PUBLIC        IE
  C:37B0H         PUBLIC        key_bright_toggle
  D:00B8H         PUBLIC        IP
  C:36B4H         PUBLIC        KEY_Bright_InitHard
  D:0098H         PUBLIC        SCON
BL51 BANKED LINKER/LOCATER V6.22                                                      11/01/2017  06:16:47  PAGE 53


  B:0080H.5       PUBLIC        P05
  D:0088H         PUBLIC        TCON
  D:00F8H         PUBLIC        SCON_1
  C:37AAH         PUBLIC        key_bright_off
  D:00E8H         PUBLIC        ADCCON0
  D:00C0H         PUBLIC        I2CON
  D:00C8H         PUBLIC        T2CON
  C:37ADH         PUBLIC        key_bright_on
  D:00D0H         PUBLIC        PSW
  -------         PROC          KEY_BRIGHT_INITHARD
  C:36B4H         LINE#         10
  C:36B4H         LINE#         12
  C:36B7H         LINE#         13
  C:36BAH         LINE#         15
  -------         ENDPROC       KEY_BRIGHT_INITHARD
  -------         PROC          KEY_BRIGHT_OFF
  C:37AAH         LINE#         18
  C:37AAH         LINE#         19
  C:37ACH         LINE#         20
  -------         ENDPROC       KEY_BRIGHT_OFF
  -------         PROC          KEY_BRIGHT_ON
  C:37ADH         LINE#         21
  C:37ADH         LINE#         22
  C:37AFH         LINE#         23
  -------         ENDPROC       KEY_BRIGHT_ON
  -------         PROC          KEY_BRIGHT_TOGGLE
  C:37B0H         LINE#         24
  C:37B0H         LINE#         25
  C:37B2H         LINE#         26
  -------         ENDPROC       KEY_BRIGHT_TOGGLE
  -------         ENDMOD        BSP_KEYBRIGHT

  -------         MODULE        BSP_LCDBRIGHT
  C:0000H         SYMBOL        _ICE_DUMMY_
  D:00B1H         PUBLIC        P0M1
  D:00B2H         PUBLIC        P0M2
  D:0080H         PUBLIC        P0
  D:0090H         PUBLIC        P1
  D:00A0H         PUBLIC        P2
  D:00B0H         PUBLIC        P3
  D:00D8H         PUBLIC        P5
  D:00A8H         PUBLIC        IE
  C:36BDH         PUBLIC        LCD_Bright_InitHard
  D:00B8H         PUBLIC        IP
  D:0098H         PUBLIC        SCON
  D:0088H         PUBLIC        TCON
  C:37B3H         PUBLIC        lcd_bright_off
  B:0080H.6       PUBLIC        P06
  D:00F8H         PUBLIC        SCON_1
  C:37B6H         PUBLIC        lcd_bright_on
  D:00E8H         PUBLIC        ADCCON0
  D:00C0H         PUBLIC        I2CON
  D:00C8H         PUBLIC        T2CON
  D:00D0H         PUBLIC        PSW
  -------         PROC          LCD_BRIGHT_INITHARD
  C:36BDH         LINE#         10
  C:36BDH         LINE#         12
BL51 BANKED LINKER/LOCATER V6.22                                                      11/01/2017  06:16:47  PAGE 54


  C:36C0H         LINE#         13
  C:36C3H         LINE#         15
  -------         ENDPROC       LCD_BRIGHT_INITHARD
  -------         PROC          LCD_BRIGHT_OFF
  C:37B3H         LINE#         18
  C:37B3H         LINE#         19
  C:37B5H         LINE#         20
  -------         ENDPROC       LCD_BRIGHT_OFF
  -------         PROC          LCD_BRIGHT_ON
  C:37B6H         LINE#         21
  C:37B6H         LINE#         22
  C:37B8H         LINE#         23
  -------         ENDPROC       LCD_BRIGHT_ON
  -------         ENDMOD        BSP_LCDBRIGHT

  -------         MODULE        BSP_2D4
  C:0000H         SYMBOL        _ICE_DUMMY_
  D:00B1H         PUBLIC        P0M1
  D:00B2H         PUBLIC        P0M2
  D:0080H         PUBLIC        P0
  D:0090H         PUBLIC        P1
  D:00ACH         PUBLIC        P3M1
  D:00A0H         PUBLIC        P2
  D:00B0H         PUBLIC        P3
  D:00ADH         PUBLIC        P3M2
  C:37BCH         PUBLIC        SPI_init
  D:00D8H         PUBLIC        P5
  C:365CH         PUBLIC        RF_ClearFIFO
  D:00A8H         PUBLIC        IE
  C:20B8H         PUBLIC        RF_Init
  C:2F99H         PUBLIC        _RF_ReadBuf
  C:34BFH         PUBLIC        Wireless2d4_InitHard
  D:00B8H         PUBLIC        IP
  C:343DH         PUBLIC        ucSPI_Read
  C:2F1DH         PUBLIC        _RF_WriteBuf
  C:34D6H         PUBLIC        _RF_WriteReg
  C:31A3H         PUBLIC        _ucRF_DumpRxData
  B:0080H.3       PUBLIC        P03
  B:0080H.4       PUBLIC        P04
  D:0098H         PUBLIC        SCON
  D:0088H         PUBLIC        TCON
  C:379DH         PUBLIC        ucRF_GetRSSI
  B:00B0H.4       PUBLIC        P34
  C:2F56H         PUBLIC        _RF_TxData
  C:32B2H         SYMBOL        _?ix1000
  C:32B7H         SYMBOL        _?ix1001
  C:32BAH         SYMBOL        _?ix1002
  C:23DCH         PUBLIC        _RF_Carrier
  D:00F8H         PUBLIC        SCON_1
  C:32C0H         SYMBOL        _?ix1003
  X:00B9H         PUBLIC        TX_ADDRESS_DEF
  C:32C1H         SYMBOL        _?ix1004
  C:32C4H         SYMBOL        _?ix1005
  C:32C9H         SYMBOL        _?ix1006
  C:32CCH         SYMBOL        _?ix1007
  C:32D2H         SYMBOL        _?ix1008
  C:3243H         PUBLIC        RF_RxMode
BL51 BANKED LINKER/LOCATER V6.22                                                      11/01/2017  06:16:47  PAGE 55


  C:32D3H         SYMBOL        _?ix1009
  C:35FFH         PUBLIC        RF_TxMode
  D:00E8H         PUBLIC        ADCCON0
  D:00C0H         PUBLIC        I2CON
  C:361CH         PUBLIC        _RF_SetChannel
  D:00C8H         PUBLIC        T2CON
  C:3772H         PUBLIC        RF_ClearStatus
  C:34E5H         PUBLIC        _ucRF_ReadReg
  C:32F9H         PUBLIC        _SPI_WR
  D:00D0H         PUBLIC        PSW
  C:337EH         PUBLIC        _SPI_WW
  C:367DH         PUBLIC        ucRF_GetStatus
  -------         PROC          WIRELESS2D4_INITHARD
  C:34BFH         LINE#         10
  C:34BFH         LINE#         13
  C:34C2H         LINE#         14
  C:34C5H         LINE#         17
  C:34C8H         LINE#         18
  C:34CBH         LINE#         21
  C:34CEH         LINE#         22
  C:34D1H         LINE#         24
  -------         ENDPROC       WIRELESS2D4_INITHARD
  -------         PROC          SPI_INIT
  C:37BCH         LINE#         32
  C:37BCH         LINE#         36
  -------         ENDPROC       SPI_INIT
  -------         PROC          _SPI_WW
  D:0007H         SYMBOL        R_REG
  -------         DO            
  D:0006H         SYMBOL        i
  -------         ENDDO         
  C:337EH         LINE#         42
  C:337EH         LINE#         44
  C:3380H         LINE#         45
  C:3382H         LINE#         46
  C:3386H         LINE#         47
  C:3388H         LINE#         48
  C:338AH         LINE#         49
  C:338CH         LINE#         50
  C:338CH         LINE#         51
  C:3390H         LINE#         52
  C:3392H         LINE#         53
  C:3393H         LINE#         54
  C:3398H         LINE#         55
  C:339AH         LINE#         57
  -------         ENDPROC       _SPI_WW
  C:34D2H         SYMBOL        L?0058
  -------         PROC          L?0057
  -------         ENDPROC       L?0057
  C:34D2H         SYMBOL        L?0058
  -------         PROC          _RF_WRITEREG
  D:0007H         SYMBOL        reg
  D:0005H         SYMBOL        wdata
  C:34D6H         LINE#         63
  C:34D6H         LINE#         64
  C:34D8H         LINE#         65
  C:34D9H         LINE#         66
BL51 BANKED LINKER/LOCATER V6.22                                                      11/01/2017  06:16:47  PAGE 56


  C:34DCH         LINE#         67
  C:34E1H         LINE#         68
  C:34E2H         LINE#         69
  C:34E4H         LINE#         70
  -------         ENDPROC       _RF_WRITEREG
  -------         PROC          L?0059
  -------         ENDPROC       L?0059
  -------         PROC          _RF_WRITEBUF
  D:0007H         SYMBOL        reg
  X:0015H         SYMBOL        pBuf
  X:0018H         SYMBOL        length
  -------         DO            
  D:0005H         SYMBOL        j
  -------         ENDDO         
  C:2F1DH         LINE#         76
  C:2F28H         LINE#         78
  C:2F2AH         LINE#         79
  C:2F2CH         LINE#         80
  C:2F2FH         LINE#         81
  C:2F39H         LINE#         82
  C:2F50H         LINE#         83
  C:2F53H         LINE#         84
  C:2F53H         LINE#         85
  C:2F55H         LINE#         86
  -------         ENDPROC       _RF_WRITEBUF
  -------         PROC          _SPI_WR
  D:0007H         SYMBOL        R_REG
  -------         DO            
  D:0006H         SYMBOL        i
  -------         ENDDO         
  C:32F9H         LINE#         92
  C:32F9H         LINE#         94
  C:32FBH         LINE#         95
  C:32FDH         LINE#         96
  C:3301H         LINE#         97
  C:3303H         LINE#         98
  C:3305H         LINE#         99
  C:3307H         LINE#         100
  C:3307H         LINE#         101
  C:330BH         LINE#         102
  C:330DH         LINE#         103
  C:330EH         LINE#         104
  C:3313H         LINE#         105
  C:3319H         LINE#         107
  C:331BH         LINE#         109
  -------         ENDPROC       _SPI_WR
  -------         PROC          UCSPI_READ
  -------         DO            
  D:0006H         SYMBOL        i
  D:0007H         SYMBOL        dt
  -------         ENDDO         
  C:343DH         LINE#         115
  C:343DH         LINE#         117
  C:343FH         LINE#         118
  C:3440H         LINE#         119
  C:3442H         LINE#         120
  C:3446H         LINE#         121
BL51 BANKED LINKER/LOCATER V6.22                                                      11/01/2017  06:16:47  PAGE 57


  C:3448H         LINE#         122
  C:344BH         LINE#         123
  C:344EH         LINE#         124
  C:344EH         LINE#         125
  C:3453H         LINE#         126
  C:3455H         LINE#         127
  C:3455H         LINE#         128
  -------         ENDPROC       UCSPI_READ
  -------         PROC          _UCRF_READREG
  D:0007H         SYMBOL        reg
  -------         DO            
  D:0007H         SYMBOL        dt
  -------         ENDDO         
  C:34E5H         LINE#         134
  C:34E5H         LINE#         137
  C:34E7H         LINE#         138
  C:34E8H         LINE#         139
  C:34EBH         LINE#         140
  C:34EEH         LINE#         141
  C:34F4H         LINE#         143
  C:34F5H         LINE#         144
  C:34F7H         LINE#         146
  C:34F7H         LINE#         147
  -------         ENDPROC       _UCRF_READREG
  -------         PROC          _RF_READBUF
  D:0007H         SYMBOL        reg
  X:0003H         SYMBOL        pBuf
  X:0006H         SYMBOL        length
  -------         DO            
  D:0005H         SYMBOL        byte_ctr
  -------         ENDDO         
  C:2F99H         LINE#         153
  C:2FA4H         LINE#         156
  C:2FA6H         LINE#         157
  C:2FA9H         LINE#         158
  C:2FB5H         LINE#         159
  C:2FCFH         LINE#         160
  C:2FD5H         LINE#         162
  C:2FD7H         LINE#         163
  -------         ENDPROC       _RF_READBUF
  -------         PROC          RF_TXMODE
  C:35FFH         LINE#         169
  C:35FFH         LINE#         170
  C:3602H         LINE#         171
  C:3609H         LINE#         173
  C:360AH         LINE#         174
  C:360BH         LINE#         175
  C:360CH         LINE#         176
  C:360DH         LINE#         177
  -------         ENDPROC       RF_TXMODE
  -------         PROC          RF_RXMODE
  -------         DO            
  D:0006H         SYMBOL        i
  -------         ENDDO         
  C:3243H         LINE#         183
  C:3243H         LINE#         184
  C:3245H         LINE#         185
BL51 BANKED LINKER/LOCATER V6.22                                                      11/01/2017  06:16:47  PAGE 58


  C:324BH         LINE#         186
  C:3252H         LINE#         187
  C:3259H         LINE#         189
  C:325CH         LINE#         190
  C:325DH         LINE#         191
  C:3268H         LINE#         193
  -------         ENDPROC       RF_RXMODE
  -------         PROC          UCRF_GETSTATUS
  C:367DH         LINE#         199
  C:367DH         LINE#         200
  C:3686H         LINE#         201
  -------         ENDPROC       UCRF_GETSTATUS
  -------         PROC          UCRF_GETRSSI
  C:379DH         LINE#         206
  C:379DH         LINE#         207
  C:37A2H         LINE#         208
  -------         ENDPROC       UCRF_GETRSSI
  -------         PROC          RF_CLEARSTATUS
  C:3772H         LINE#         213
  C:3772H         LINE#         214
  -------         ENDPROC       RF_CLEARSTATUS
  -------         PROC          RF_CLEARFIFO
  C:365CH         LINE#         221
  C:365CH         LINE#         222
  C:3663H         LINE#         223
  -------         ENDPROC       RF_CLEARFIFO
  -------         PROC          _RF_SETCHANNEL
  D:0004H         SYMBOL        Channel
  C:361CH         LINE#         230
  C:361EH         LINE#         231
  C:3621H         LINE#         232
  -------         ENDPROC       _RF_SETCHANNEL
  -------         PROC          _RF_TXDATA
  D:0001H         SYMBOL        ucPayload
  D:0005H         SYMBOL        length
  -------         DO            
  X:0002H         SYMBOL        i
  -------         ENDDO         
  C:2F56H         LINE#         242
  C:2F56H         LINE#         243
  C:2F5CH         LINE#         244
  C:2F62H         LINE#         245
  C:2F6CH         LINE#         246
  C:2F73H         LINE#         248
  C:2F7AH         LINE#         249
  C:2F7BH         LINE#         250
  C:2F95H         LINE#         251
  C:2F98H         LINE#         252
  C:2F98H         LINE#         253
  -------         ENDPROC       _RF_TXDATA
  -------         PROC          _UCRF_DUMPRXDATA
  D:0001H         SYMBOL        ucPayload
  D:0004H         SYMBOL        length
  C:31A3H         LINE#         267
  C:31A5H         LINE#         268
  C:31ACH         LINE#         270
  C:31AFH         LINE#         271
BL51 BANKED LINKER/LOCATER V6.22                                                      11/01/2017  06:16:47  PAGE 59


  C:31B9H         LINE#         272
  C:31BCH         LINE#         273
  C:31BFH         LINE#         274
  C:31C6H         LINE#         275
  C:31C9H         LINE#         276
  C:31C9H         LINE#         277
  C:31CBH         LINE#         278
  -------         ENDPROC       _UCRF_DUMPRXDATA
  -------         PROC          RF_INIT
  -------         DO            
  X:0002H         SYMBOL        BB_cal_data
  X:0007H         SYMBOL        RF_cal_data
  X:000AH         SYMBOL        RF_cal2_data
  X:0010H         SYMBOL        Dem_cal_data
  X:0011H         SYMBOL        Dem_cal2_data
  -------         ENDDO         
  C:20B8H         LINE#         288
  C:20B8H         LINE#         289
  C:20CBH         LINE#         290
  C:20DEH         LINE#         291
  C:20F1H         LINE#         292
  C:2104H         LINE#         293
  C:2117H         LINE#         294
  C:211AH         LINE#         295
  C:2121H         LINE#         296
  C:2128H         LINE#         298
  C:2128H         LINE#         299
  C:212FH         LINE#         300
  C:212FH         LINE#         301
  C:212FH         LINE#         302
  C:212FH         LINE#         303
  C:2132H         LINE#         304
  C:2137H         LINE#         305
  C:213CH         LINE#         306
  C:2143H         LINE#         307
  C:214AH         LINE#         308
  C:2151H         LINE#         309
  C:2158H         LINE#         310
  C:215FH         LINE#         311
  C:2170H         LINE#         313
  C:2181H         LINE#         315
  C:2188H         LINE#         316
  C:2199H         LINE#         317
  C:21AAH         LINE#         318
  C:21BBH         LINE#         319
  C:21CCH         LINE#         320
  C:21D3H         LINE#         321
  C:21DAH         LINE#         327
  C:21E1H         LINE#         328
  -------         ENDPROC       RF_INIT
  -------         PROC          _RF_CARRIER
  X:0060H         SYMBOL        ucChannel_Set
  -------         DO            
  D:0007H         SYMBOL        i
  X:0061H         SYMBOL        BB_cal_data
  X:0066H         SYMBOL        RF_cal_data
  X:0069H         SYMBOL        RF_cal2_data
BL51 BANKED LINKER/LOCATER V6.22                                                      11/01/2017  06:16:47  PAGE 60


  X:006FH         SYMBOL        Dem_cal_data
  X:0070H         SYMBOL        Dem_cal2_data
  -------         ENDDO         
  C:23DCH         LINE#         336
  C:23E1H         LINE#         337
  C:23E2H         LINE#         338
  C:23F4H         LINE#         339
  C:2407H         LINE#         340
  C:241AH         LINE#         341
  C:242DH         LINE#         342
  C:2440H         LINE#         344
  C:2447H         LINE#         345
  C:244EH         LINE#         346
  C:2455H         LINE#         347
  C:2458H         LINE#         349
  C:245AH         LINE#         350
  C:245BH         LINE#         351
  C:245CH         LINE#         352
  C:245DH         LINE#         353
  C:245EH         LINE#         354
  C:2463H         LINE#         356
  C:246DH         LINE#         357
  C:2474H         LINE#         358
  C:247BH         LINE#         359
  C:248CH         LINE#         360
  C:249DH         LINE#         361
  C:24AEH         LINE#         362
  -------         ENDPROC       _RF_CARRIER
  -------         ENDMOD        BSP_2D4

  -------         MODULE        COMMON
  C:0000H         SYMBOL        _ICE_DUMMY_
  D:00B1H         PUBLIC        P0M1
  D:00B3H         PUBLIC        P1M1
  D:00B2H         PUBLIC        P0M2
  D:0080H         PUBLIC        P0
  D:00B5H         PUBLIC        P2M1
  D:00B4H         PUBLIC        P1M2
  D:0090H         PUBLIC        P1
  D:00B6H         PUBLIC        P2M2
  D:00ACH         PUBLIC        P3M1
  D:00A0H         PUBLIC        P2
  D:00DAH         PUBLIC        P4M1
  D:00B0H         PUBLIC        P3
  D:00ADH         PUBLIC        P3M2
  D:00DCH         PUBLIC        P5M1
  D:00DBH         PUBLIC        P4M2
  D:00DDH         PUBLIC        P5M2
  D:00D8H         PUBLIC        P5
  B:00A8H.7       PUBLIC        EA
  C:3409H         PUBLIC        Set_All_GPIO_Quasi_Mode
  C:31CCH         PUBLIC        _InitialUART0_Timer1_Type1
  C:31F5H         PUBLIC        _InitialUART0_Timer1_Type2
  C:314FH         PUBLIC        _InitialUART0_Timer1_Type3
  C:3179H         PUBLIC        _InitialUART0_Timer1_Type4
  D:00A8H         PUBLIC        IE
  D:0096H         PUBLIC        CKSWT
BL51 BANKED LINKER/LOCATER V6.22                                                      11/01/2017  06:16:47  PAGE 61


  C:2B2BH         PUBLIC        _InitialUART0_Timer3_Type5
  C:3423H         PUBLIC        SW_Reset
  C:2B8EH         PUBLIC        _InitialUART0_Timer3_Type6
  C:335EH         PUBLIC        Set_All_GPIO_Input_Mode
  D:00C7H         PUBLIC        TA
  D:00B8H         PUBLIC        IP
  B:0098H.0       PUBLIC        RI
  C:1F73H         PUBLIC        _System_Clock_Select
  B:0098H.1       PUBLIC        TI
  D:0097H         PUBLIC        CKEN
  C:37A3H         PUBLIC        Fsys_Clock_Output_On_P26
  B:00F8H.0       PUBLIC        RI_1
  B:00F8H.1       PUBLIC        TI_1
  D:0099H         PUBLIC        SBUF
  D:0087H         PUBLIC        PCON
  D:0098H         PUBLIC        SCON
  D:0089H         PUBLIC        TMOD
  D:0088H         PUBLIC        TCON
  D:009FH         PUBLIC        CHPCON
  D:009AH         PUBLIC        SBUF_1
  D:00F8H         PUBLIC        SCON_1
  D:00C6H         PUBLIC        R3H
  D:008DH         PUBLIC        TH1
  D:00C5H         PUBLIC        R3L
  C:2CB1H         PUBLIC        _InitialUART1_Timer3
  B:0088H.6       PUBLIC        TR1
  D:00E8H         PUBLIC        ADCCON0
  C:36CEH         PUBLIC        _Send_Data_To_UART0
  C:36DEH         PUBLIC        _Send_Data_To_UART1
  D:00C0H         PUBLIC        I2CON
  D:00C8H         PUBLIC        T2CON
  D:00C4H         PUBLIC        T3CON
  C:36C6H         PUBLIC        Receive_Data_From_UART0
  C:36D6H         PUBLIC        Receive_Data_From_UART1
  D:008EH         PUBLIC        CKCON
  D:00D0H         PUBLIC        PSW
  C:3015H         PUBLIC        _putchar
  -------         PROC          _SYSTEM_CLOCK_SELECT
  D:0007H         SYMBOL        clock
  C:1F73H         LINE#         25
  C:1F73H         LINE#         26
  C:1F8DH         LINE#         27
  C:1F8DH         LINE#         29
  C:1FA0H         LINE#         31
  C:1FB3H         LINE#         35
  C:1FB8H         LINE#         39
  C:1FB8H         LINE#         41
  C:1FB8H         LINE#         43
  C:1FB8H         LINE#         45
  C:1FB8H         LINE#         46
  C:1FBBH         LINE#         48
  C:1FBBH         LINE#         50
  C:1FCEH         LINE#         52
  C:1FE1H         LINE#         56
  C:1FE6H         LINE#         60
  C:1FE6H         LINE#         62
  C:1FE6H         LINE#         64
BL51 BANKED LINKER/LOCATER V6.22                                                      11/01/2017  06:16:47  PAGE 62


  C:1FE6H         LINE#         66
  C:1FE6H         LINE#         67
  C:1FE9H         LINE#         69
  C:1FE9H         LINE#         70
  C:1FE9H         LINE#         72
  C:1FFCH         LINE#         76
  C:2001H         LINE#         80
  C:2010H         LINE#         82
  C:2010H         LINE#         84
  C:2010H         LINE#         86
  C:2010H         LINE#         87
  C:2012H         LINE#         89
  C:2012H         LINE#         91
  C:2025H         LINE#         95
  C:202AH         LINE#         99
  C:203DH         LINE#         101
  C:204CH         LINE#         103
  C:204CH         LINE#         105
  C:204CH         LINE#         106
  C:204EH         LINE#         108
  C:204EH         LINE#         110
  C:2061H         LINE#         112
  C:2074H         LINE#         116
  C:2079H         LINE#         120
  C:208CH         LINE#         122
  C:209FH         LINE#         124
  C:20B2H         LINE#         126
  C:20B2H         LINE#         127
  C:20B2H         LINE#         129
  C:20B2H         LINE#         131
  C:20B7H         LINE#         133
  -------         ENDPROC       _SYSTEM_CLOCK_SELECT
  -------         PROC          _INITIALUART0_TIMER1_TYPE1
  D:0004H         SYMBOL        u32Baudrate
  C:31CCH         LINE#         137
  C:31CCH         LINE#         138
  C:31CCH         LINE#         139
  C:31CFH         LINE#         140
  C:31D2H         LINE#         142
  C:31D5H         LINE#         143
  C:31D8H         LINE#         144
  C:31DBH         LINE#         147
  C:31F2H         LINE#         152
  C:31F4H         LINE#         153
  -------         ENDPROC       _INITIALUART0_TIMER1_TYPE1
  -------         PROC          _INITIALUART0_TIMER1_TYPE2
  D:0004H         SYMBOL        u32Baudrate
  C:31F5H         LINE#         158
  C:31F5H         LINE#         159
  C:31F5H         LINE#         160
  C:31F8H         LINE#         161
  C:31FBH         LINE#         163
  C:31FEH         LINE#         164
  C:3201H         LINE#         165
  C:3204H         LINE#         168
  C:321AH         LINE#         173
  C:321CH         LINE#         174
BL51 BANKED LINKER/LOCATER V6.22                                                      11/01/2017  06:16:47  PAGE 63


  -------         ENDPROC       _INITIALUART0_TIMER1_TYPE2
  -------         PROC          _INITIALUART0_TIMER1_TYPE3
  D:0004H         SYMBOL        u32Baudrate
  C:314FH         LINE#         179
  C:314FH         LINE#         180
  C:314FH         LINE#         181
  C:3152H         LINE#         182
  C:3155H         LINE#         184
  C:3158H         LINE#         185
  C:315BH         LINE#         186
  C:315EH         LINE#         189
  C:3176H         LINE#         194
  C:3178H         LINE#         195
  -------         ENDPROC       _INITIALUART0_TIMER1_TYPE3
  -------         PROC          _INITIALUART0_TIMER1_TYPE4
  D:0004H         SYMBOL        u32Baudrate
  C:3179H         LINE#         200
  C:3179H         LINE#         201
  C:3179H         LINE#         202
  C:317CH         LINE#         203
  C:317FH         LINE#         205
  C:3182H         LINE#         206
  C:3185H         LINE#         207
  C:3188H         LINE#         210
  C:31A0H         LINE#         215
  C:31A2H         LINE#         216
  -------         ENDPROC       _INITIALUART0_TIMER1_TYPE4
  -------         PROC          _INITIALUART0_TIMER3_TYPE5
  X:00BEH         SYMBOL        u32Baudrate
  C:2B2BH         LINE#         218
  C:2B31H         LINE#         219
  C:2B31H         LINE#         220
  C:2B34H         LINE#         221
  C:2B37H         LINE#         222
  C:2B3AH         LINE#         223
  C:2B3DH         LINE#         226
  C:2B6BH         LINE#         227
  C:2B8AH         LINE#         233
  C:2B8DH         LINE#         234
  -------         ENDPROC       _INITIALUART0_TIMER3_TYPE5
  -------         PROC          _INITIALUART0_TIMER3_TYPE6
  X:00C2H         SYMBOL        u32Baudrate
  C:2B8EH         LINE#         236
  C:2B94H         LINE#         237
  C:2B94H         LINE#         238
  C:2B97H         LINE#         239
  C:2B9AH         LINE#         240
  C:2B9DH         LINE#         241
  C:2BA0H         LINE#         244
  C:2BCEH         LINE#         245
  C:2BEDH         LINE#         251
  C:2BF0H         LINE#         252
  -------         ENDPROC       _INITIALUART0_TIMER3_TYPE6
  -------         PROC          _INITIALUART1_TIMER3
  X:00C6H         SYMBOL        u32Baudrate
  C:2CB1H         LINE#         254
  C:2CB7H         LINE#         255
BL51 BANKED LINKER/LOCATER V6.22                                                      11/01/2017  06:16:47  PAGE 64


  C:2CB7H         LINE#         256
  C:2CBAH         LINE#         257
  C:2CBDH         LINE#         260
  C:2CEBH         LINE#         261
  C:2D0AH         LINE#         267
  C:2D0DH         LINE#         268
  -------         ENDPROC       _INITIALUART1_TIMER3
  -------         PROC          RECEIVE_DATA_FROM_UART0
  -------         DO            
  D:0007H         SYMBOL        c
  -------         ENDDO         
  C:36C6H         LINE#         280
  C:36C6H         LINE#         283
  C:36C9H         LINE#         285
  C:36CBH         LINE#         286
  C:36CDH         LINE#         287
  C:36CDH         LINE#         288
  -------         ENDPROC       RECEIVE_DATA_FROM_UART0
  -------         PROC          _SEND_DATA_TO_UART0
  D:0007H         SYMBOL        c
  C:36CEH         LINE#         300
  C:36CEH         LINE#         301
  C:36D0H         LINE#         302
  C:36D2H         LINE#         303
  C:36D5H         LINE#         305
  -------         ENDPROC       _SEND_DATA_TO_UART0
  -------         PROC          RECEIVE_DATA_FROM_UART1
  -------         DO            
  D:0007H         SYMBOL        c
  -------         ENDDO         
  C:36D6H         LINE#         317
  C:36D6H         LINE#         320
  C:36D9H         LINE#         322
  C:36DBH         LINE#         323
  C:36DDH         LINE#         324
  C:36DDH         LINE#         325
  -------         ENDPROC       RECEIVE_DATA_FROM_UART1
  -------         PROC          _SEND_DATA_TO_UART1
  D:0007H         SYMBOL        c
  C:36DEH         LINE#         337
  C:36DEH         LINE#         338
  C:36E0H         LINE#         339
  C:36E2H         LINE#         340
  C:36E5H         LINE#         342
  -------         ENDPROC       _SEND_DATA_TO_UART1
  -------         PROC          SET_ALL_GPIO_QUASI_MODE
  C:3409H         LINE#         344
  C:3409H         LINE#         345
  C:340CH         LINE#         346
  C:340EH         LINE#         347
  C:3410H         LINE#         348
  C:3412H         LINE#         349
  C:3414H         LINE#         350
  C:3416H         LINE#         351
  C:3418H         LINE#         352
  C:341AH         LINE#         353
  C:341CH         LINE#         354
BL51 BANKED LINKER/LOCATER V6.22                                                      11/01/2017  06:16:47  PAGE 65


  C:341EH         LINE#         355
  C:3420H         LINE#         356
  C:3422H         LINE#         357
  -------         ENDPROC       SET_ALL_GPIO_QUASI_MODE
  -------         PROC          SET_ALL_GPIO_INPUT_MODE
  C:335EH         LINE#         359
  C:335EH         LINE#         360
  C:3361H         LINE#         361
  C:3364H         LINE#         362
  C:3367H         LINE#         363
  C:3369H         LINE#         364
  C:336CH         LINE#         365
  C:336EH         LINE#         366
  C:3371H         LINE#         367
  C:3373H         LINE#         368
  C:3376H         LINE#         369
  C:3378H         LINE#         370
  C:337BH         LINE#         371
  C:337DH         LINE#         372
  -------         ENDPROC       SET_ALL_GPIO_INPUT_MODE
  -------         PROC          SW_RESET
  C:3423H         LINE#         375
  C:3423H         LINE#         376
  C:3426H         LINE#         377
  C:3429H         LINE#         378
  C:343CH         LINE#         380
  -------         ENDPROC       SW_RESET
  -------         PROC          FSYS_CLOCK_OUTPUT_ON_P26
  C:37A3H         LINE#         382
  C:37A3H         LINE#         383
  C:37A6H         LINE#         384
  -------         ENDPROC       FSYS_CLOCK_OUTPUT_ON_P26
  -------         PROC          _PUTCHAR
  D:0007H         SYMBOL        c
  C:3015H         LINE#         393
  C:3015H         LINE#         431
  C:301AH         LINE#         432
  C:301DH         LINE#         433
  C:3022H         LINE#         434
  C:3022H         LINE#         435
  C:3024H         LINE#         436
  C:3027H         LINE#         438
  C:302CH         LINE#         439
  C:302EH         LINE#         440
  C:302EH         LINE#         441
  C:302EH         LINE#         442
  C:3031H         LINE#         444
  C:3033H         LINE#         445
  C:3036H         LINE#         446
  C:3036H         LINE#         447
  C:3039H         LINE#         448
  C:303EH         LINE#         449
  C:303EH         LINE#         450
  C:3040H         LINE#         451
  C:3043H         LINE#         453
  C:3048H         LINE#         454
  C:304AH         LINE#         455
BL51 BANKED LINKER/LOCATER V6.22                                                      11/01/2017  06:16:47  PAGE 66


  C:304AH         LINE#         456
  C:304AH         LINE#         457
  C:304DH         LINE#         459
  C:304FH         LINE#         460
  C:3051H         LINE#         462
  -------         ENDPROC       _PUTCHAR
  -------         ENDMOD        COMMON

  -------         MODULE        DELAY
  C:0000H         SYMBOL        _ICE_DUMMY_
  D:0080H         PUBLIC        P0
  D:0090H         PUBLIC        P1
  D:00A0H         PUBLIC        P2
  D:00B0H         PUBLIC        P3
  D:008FH         PUBLIC        WKCON
  D:00D8H         PUBLIC        P5
  D:00A8H         PUBLIC        IE
  D:00B8H         PUBLIC        IP
  C:2DC5H         PUBLIC        _Timer0_Delay1ms
  C:2E1EH         PUBLIC        _Timer1_Delay1ms
  C:2D6AH         PUBLIC        _Timer3_Delay1ms
  D:0098H         PUBLIC        SCON
  D:0089H         PUBLIC        TMOD
  D:0088H         PUBLIC        TCON
  C:2960H         PUBLIC        _?Random_Delay
  C:333DH         PUBLIC        _Delay10us
  D:00F8H         PUBLIC        SCON_1
  B:0088H.5       PUBLIC        TF0
  B:0088H.7       PUBLIC        TF1
  D:008CH         PUBLIC        TH0
  D:00C6H         PUBLIC        R3H
  D:008DH         PUBLIC        TH1
  D:008AH         PUBLIC        TL0
  C:2BF1H         PUBLIC        _WakeUp_Timer_Delay25ms
  D:00C5H         PUBLIC        R3L
  D:008BH         PUBLIC        TL1
  B:0088H.4       PUBLIC        TR0
  B:0088H.6       PUBLIC        TR1
  D:00E8H         PUBLIC        ADCCON0
  D:00C0H         PUBLIC        I2CON
  D:00C8H         PUBLIC        T2CON
  D:00C4H         PUBLIC        T3CON
  D:008EH         PUBLIC        CKCON
  D:0086H         PUBLIC        RWK
  D:00D0H         PUBLIC        PSW
  -------         PROC          _?RANDOM_DELAY
  -------         DO            
  x:0000H         SYMBOL        u32CNT
  x:0004H         SYMBOL        u32Tmp
  -------         ENDDO         
  C:2960H         LINE#         36
  C:2966H         LINE#         37
  C:2966H         LINE#         41
  C:2991H         LINE#         42
  C:2991H         LINE#         43
  C:29B6H         LINE#         44
  C:29DDH         LINE#         45
BL51 BANKED LINKER/LOCATER V6.22                                                      11/01/2017  06:16:47  PAGE 67


  -------         ENDPROC       _?RANDOM_DELAY
  -------         PROC          _DELAY10US
  D:0006H         SYMBOL        u16CNT
  C:333DH         LINE#         47
  C:333DH         LINE#         48
  C:3340H         LINE#         49
  C:3343H         LINE#         50
  C:3345H         LINE#         51
  C:3349H         LINE#         52
  C:334CH         LINE#         53
  C:334FH         LINE#         54
  C:3352H         LINE#         56
  C:3354H         LINE#         57
  C:3359H         LINE#         58
  C:335BH         LINE#         59
  C:335DH         LINE#         60
  -------         ENDPROC       _DELAY10US
  -------         PROC          _TIMER0_DELAY1MS
  X:00CAH         SYMBOL        u32CNT
  C:2DC5H         LINE#         62
  C:2DCBH         LINE#         63
  C:2DCEH         LINE#         64
  C:2DD1H         LINE#         65
  C:2DD3H         LINE#         66
  C:2DECH         LINE#         67
  C:2DEFH         LINE#         68
  C:2DF2H         LINE#         69
  C:2DF5H         LINE#         71
  C:2DF7H         LINE#         72
  C:2E19H         LINE#         73
  C:2E1BH         LINE#         74
  C:2E1DH         LINE#         75
  -------         ENDPROC       _TIMER0_DELAY1MS
  -------         PROC          _TIMER1_DELAY1MS
  X:00CEH         SYMBOL        u32CNT
  C:2E1EH         LINE#         77
  C:2E24H         LINE#         78
  C:2E27H         LINE#         79
  C:2E2AH         LINE#         80
  C:2E2CH         LINE#         81
  C:2E45H         LINE#         82
  C:2E48H         LINE#         83
  C:2E4BH         LINE#         84
  C:2E4EH         LINE#         86
  C:2E50H         LINE#         87
  C:2E72H         LINE#         88
  C:2E74H         LINE#         89
  C:2E76H         LINE#         90
  -------         ENDPROC       _TIMER1_DELAY1MS
  -------         PROC          _TIMER3_DELAY1MS
  X:00D2H         SYMBOL        u32CNT
  C:2D6AH         LINE#         92
  C:2D70H         LINE#         93
  C:2D73H         LINE#         94
  C:2D76H         LINE#         95
  C:2D8FH         LINE#         96
  C:2D92H         LINE#         97
BL51 BANKED LINKER/LOCATER V6.22                                                      11/01/2017  06:16:47  PAGE 68


  C:2D95H         LINE#         98
  C:2D9AH         LINE#         100
  C:2D9DH         LINE#         101
  C:2DBFH         LINE#         102
  C:2DC1H         LINE#         103
  C:2DC4H         LINE#         104
  -------         ENDPROC       _TIMER3_DELAY1MS
  -------         PROC          _WAKEUP_TIMER_DELAY25MS
  X:00D6H         SYMBOL        u32CNT
  C:2BF1H         LINE#         106
  C:2BF7H         LINE#         107
  C:2BF7H         LINE#         108
  C:2BFAH         LINE#         109
  C:2BFDH         LINE#         110
  C:2C00H         LINE#         112
  C:2C03H         LINE#         114
  C:2C06H         LINE#         115
  C:2C09H         LINE#         116
  C:2C22H         LINE#         117
  C:2C27H         LINE#         119
  C:2C2AH         LINE#         120
  C:2C4CH         LINE#         121
  C:2C4EH         LINE#         122
  C:2C51H         LINE#         123
  -------         ENDPROC       _WAKEUP_TIMER_DELAY25MS
  -------         ENDMOD        DELAY

  -------         MODULE        VERSION
  C:0000H         SYMBOL        _ICE_DUMMY_
  D:0080H         PUBLIC        P0
  D:0090H         PUBLIC        P1
  D:00A0H         PUBLIC        P2
  D:00B0H         PUBLIC        P3
  D:00D8H         PUBLIC        P5
  D:00A8H         PUBLIC        IE
  D:00B8H         PUBLIC        IP
  D:0098H         PUBLIC        SCON
  D:0088H         PUBLIC        TCON
  D:00F8H         PUBLIC        SCON_1
  C:2C52H         PUBLIC        Show_FW_Version_Number_To_PC
  D:00E8H         PUBLIC        ADCCON0
  D:00C0H         PUBLIC        I2CON
  D:00C8H         PUBLIC        T2CON
  D:00D0H         PUBLIC        PSW
  -------         PROC          SHOW_FW_VERSION_NUMBER_TO_PC
  C:2C52H         LINE#         32
  C:2C52H         LINE#         33
  C:2C52H         LINE#         34
  C:2C5BH         LINE#         35
  C:2C64H         LINE#         36
  C:2C6DH         LINE#         37
  C:2C87H         LINE#         38
  C:2CA8H         LINE#         39
  -------         ENDPROC       SHOW_FW_VERSION_NUMBER_TO_PC
  -------         ENDMOD        VERSION

  -------         MODULE        ?C_STARTUP
BL51 BANKED LINKER/LOCATER V6.22                                                      11/01/2017  06:16:47  PAGE 69


  C:27A1H         SEGMENT       ?C_C51STARTUP
  I:00BEH         SEGMENT       ?STACK
  C:0000H         PUBLIC        ?C_STARTUP
  D:00E0H         SYMBOL        ACC
  D:00F0H         SYMBOL        B
  D:0083H         SYMBOL        DPH
  D:0082H         SYMBOL        DPL
  N:0000H         SYMBOL        IBPSTACK
  N:0100H         SYMBOL        IBPSTACKTOP
  N:0080H         SYMBOL        IDATALEN
  C:27A4H         SYMBOL        IDATALOOP
  N:0000H         SYMBOL        PBPSTACK
  N:0000H         SYMBOL        PBPSTACKTOP
  N:0000H         SYMBOL        PDATALEN
  N:0000H         SYMBOL        PDATASTART
  N:0000H         SYMBOL        PPAGE
  N:0000H         SYMBOL        PPAGEENABLE
  D:00A0H         SYMBOL        PPAGE_SFR
  D:0081H         SYMBOL        SP
  C:27A1H         SYMBOL        STARTUP1
  N:0000H         SYMBOL        XBPSTACK
  N:0000H         SYMBOL        XBPSTACKTOP
  N:00FFH         SYMBOL        XDATALEN
  C:27AFH         SYMBOL        XDATALOOP
  N:0000H         SYMBOL        XDATASTART
  C:0000H         LINE#         92
  C:27A1H         LINE#         99
  C:27A3H         LINE#         100
  C:27A4H         LINE#         101
  C:27A5H         LINE#         102
  C:27A7H         LINE#         106
  C:27AAH         LINE#         107
  C:27ACH         LINE#         109
  C:27AEH         LINE#         113
  C:27AFH         LINE#         114
  C:27B0H         LINE#         115
  C:27B1H         LINE#         116
  C:27B3H         LINE#         117
  C:27B5H         LINE#         151
  C:27B8H         LINE#         155
  -------         ENDMOD        ?C_STARTUP

  -------         MODULE        ?C?COPY
  C:120CH         PUBLIC        ?C?COPY
  -------         ENDMOD        ?C?COPY

  -------         MODULE        ?C?CLDPTR
  C:1232H         PUBLIC        ?C?CLDPTR
  -------         ENDMOD        ?C?CLDPTR

  -------         MODULE        ?C?CLDOPTR
  C:124BH         PUBLIC        ?C?CLDOPTR
  -------         ENDMOD        ?C?CLDOPTR

  -------         MODULE        ?C?CILDOPTR
  C:1278H         PUBLIC        ?C?CILDOPTR
  -------         ENDMOD        ?C?CILDOPTR
BL51 BANKED LINKER/LOCATER V6.22                                                      11/01/2017  06:16:47  PAGE 70



  -------         MODULE        ?C?CSTOPTR
  C:12ABH         PUBLIC        ?C?CSTOPTR
  -------         ENDMOD        ?C?CSTOPTR

  -------         MODULE        ?C?IILDX
  C:12CDH         PUBLIC        ?C?IILDX
  -------         ENDMOD        ?C?IILDX

  -------         MODULE        ?C?ILDOPTR
  C:12E3H         PUBLIC        ?C?ILDOPTR
  -------         ENDMOD        ?C?ILDOPTR

  -------         MODULE        ?C?IILDOPTR
  C:131BH         PUBLIC        ?C?IILDOPTR
  -------         ENDMOD        ?C?IILDOPTR

  -------         MODULE        ?C?ISTOPTR
  C:1368H         PUBLIC        ?C?ISTOPTR
  -------         ENDMOD        ?C?ISTOPTR

  -------         MODULE        ?C?ULDIV
  C:13D1H         PUBLIC        ?C?ULDIV
  -------         ENDMOD        ?C?ULDIV

  -------         MODULE        ?C?ULCMP
  C:1463H         PUBLIC        ?C?ULCMP
  -------         ENDMOD        ?C?ULCMP

  -------         MODULE        ?C?ULSHR
  C:1474H         PUBLIC        ?C?ULSHR
  -------         ENDMOD        ?C?ULSHR

  -------         MODULE        ?C?LSTXDATA
  C:1487H         PUBLIC        ?C?LSTXDATA
  -------         ENDMOD        ?C?LSTXDATA

  -------         MODULE        ?C?LSTKXDATA
  C:1493H         PUBLIC        ?C?LSTKXDATA
  -------         ENDMOD        ?C?LSTKXDATA

  -------         MODULE        ?C?PLDPTR
  C:14C4H         PUBLIC        ?C?PLDPTR
  -------         ENDMOD        ?C?PLDPTR

  -------         MODULE        ?C?CCASE
  C:14E4H         PUBLIC        ?C?CCASE
  -------         ENDMOD        ?C?CCASE

  -------         MODULE        ?C?ICALL
  C:150AH         PUBLIC        ?C?ICALL
  C:150EH         PUBLIC        ?C?ICALL2
  -------         ENDMOD        ?C?ICALL

  -------         MODULE        ?C_XBP
  D:000DH         PUBLIC        ?C_XBP
  -------         ENDMOD        ?C_XBP
BL51 BANKED LINKER/LOCATER V6.22                                                      11/01/2017  06:16:47  PAGE 71



  -------         MODULE        ?C?ADDXBP
  C:1510H         PUBLIC        ?C?ADDXBP
  -------         ENDMOD        ?C?ADDXBP

  -------         MODULE        ?C?XBPOFF
  C:1534H         PUBLIC        ?C?XBPOFF
  -------         ENDMOD        ?C?XBPOFF

  -------         MODULE        PRINTF
  X:0018H         PUBLIC        ?_PRINTF517?BYTE
  X:0018H         PUBLIC        ?_PRINTF?BYTE
  X:0018H         PUBLIC        ?_SPRINTF517?BYTE
  X:0018H         PUBLIC        ?_SPRINTF?BYTE
  C:1B25H         PUBLIC        _PRINTF
  C:1B25H         PUBLIC        _PRINTF517
  C:1B1FH         PUBLIC        _SPRINTF
  C:1B1FH         PUBLIC        _SPRINTF517
  -------         ENDMOD        PRINTF

  -------         MODULE        ?C?STRCPY
  C:160DH         PUBLIC        ?C?STRCPY
  -------         ENDMOD        ?C?STRCPY

  -------         MODULE        STRNCPY
  X:000CH         PUBLIC        ?_strncpy?BYTE
  C:2A5CH         PUBLIC        _strncpy
  -------         ENDMOD        STRNCPY

  -------         MODULE        STRLEN
  C:3482H         PUBLIC        _STRLEN
  -------         ENDMOD        STRLEN

  -------         MODULE        ?C?MEMSET
  C:162AH         PUBLIC        ?C?MEMSET
  -------         ENDMOD        ?C?MEMSET

  -------         MODULE        ?C?CSTPTR
  C:1656H         PUBLIC        ?C?CSTPTR
  -------         ENDMOD        ?C?CSTPTR

  -------         MODULE        ?C?ILDIX
  C:1668H         PUBLIC        ?C?ILDIX
  -------         ENDMOD        ?C?ILDIX

  -------         MODULE        ?C?PLDIDATA
  C:167EH         PUBLIC        ?C?PLDIDATA
  -------         ENDMOD        ?C?PLDIDATA

  -------         MODULE        ?C?PLDXDATA
  C:1687H         PUBLIC        ?C?PLDXDATA
  -------         ENDMOD        ?C?PLDXDATA

  -------         MODULE        ?C?PLDIXDATA
  C:1690H         PUBLIC        ?C?PLDIXDATA
  -------         ENDMOD        ?C?PLDIXDATA

BL51 BANKED LINKER/LOCATER V6.22                                                      11/01/2017  06:16:47  PAGE 72


  -------         MODULE        ?C?PSTXDATA
  C:16A7H         PUBLIC        ?C?PSTXDATA
  -------         ENDMOD        ?C?PSTXDATA

  -------         MODULE        ?C?PLDPDATA
  C:16B0H         PUBLIC        ?C?PLDPDATA
  -------         ENDMOD        ?C?PLDPDATA

  -------         MODULE        ?C?PLDCODE
  C:16B9H         PUBLIC        ?C?PLDCODE
  -------         ENDMOD        ?C?PLDCODE

Program Size: data=184.2 xdata=218 code=14269
LINK/LOCATE RUN COMPLETE.  0 WARNING(S),  0 ERROR(S)
