BL51 BANKED LINKER/LOCATER V6.22                                                        12/15/2017  17:13:45  PAGE 1


BL51 BANKED LINKER/LOCATER V6.22, INVOKED BY:
C:\KEIL_V5\C51\BIN\BL51.EXE .\Out\Objects\main.obj, .\Out\Objects\app_key.obj, .\Out\Objects\app_work.obj, .\Out\Objects
>> \app_repeat_exe.obj, .\Out\Objects\app_2d4.obj, .\Out\Objects\app_lcd.obj, .\Out\Objects\bsp.obj, .\Out\Objects\bsp_k
>> ey.obj, .\Out\Objects\bsp_display.obj, .\Out\Objects\bsp_timer0.obj, .\Out\Objects\bsp_adc.obj, .\Out\Objects\bsp_key
>> Bright.obj, .\Out\Objects\bsp_lcdBright.obj, .\Out\Objects\bsp_2d4.obj, .\Out\Objects\Common.obj, .\Out\Objects\Delay
>> .obj, .\Out\Objects\Version.obj, .\Out\Objects\STARTUP.obj TO .\Out\Objects\project PRINT (.\Out\Listings\project.m51
>> ) RAMSIZE (256) DISABLEWARNING (16)


MEMORY MODEL: LARGE


INPUT MODULES INCLUDED:
  .\Out\Objects\main.obj (MAIN)
  .\Out\Objects\app_key.obj (APP_KEY)
  .\Out\Objects\app_work.obj (APP_WORK)
  .\Out\Objects\app_repeat_exe.obj (APP_REPEAT_EXE)
  .\Out\Objects\app_2d4.obj (APP_2D4)
  .\Out\Objects\app_lcd.obj (APP_LCD)
  .\Out\Objects\bsp.obj (BSP)
  .\Out\Objects\bsp_key.obj (BSP_KEY)
  .\Out\Objects\bsp_display.obj (BSP_DISPLAY)
  .\Out\Objects\bsp_timer0.obj (BSP_TIMER0)
  .\Out\Objects\bsp_adc.obj (BSP_ADC)
  .\Out\Objects\bsp_keyBright.obj (BSP_KEYBRIGHT)
  .\Out\Objects\bsp_lcdBright.obj (BSP_LCDBRIGHT)
  .\Out\Objects\bsp_2d4.obj (BSP_2D4)
  .\Out\Objects\Common.obj (COMMON)
  .\Out\Objects\Delay.obj (DELAY)
  .\Out\Objects\Version.obj (VERSION)
  .\Out\Objects\STARTUP.obj (?C_STARTUP)
  C:\KEIL_V5\C51\LIB\C51L.LIB (?C_INIT)
  C:\KEIL_V5\C51\LIB\C51L.LIB (?C?COPY)
  C:\KEIL_V5\C51\LIB\C51L.LIB (?C?CLDPTR)
  C:\KEIL_V5\C51\LIB\C51L.LIB (?C?CLDOPTR)
  C:\KEIL_V5\C51\LIB\C51L.LIB (?C?CILDOPTR)
  C:\KEIL_V5\C51\LIB\C51L.LIB (?C?CSTOPTR)
  C:\KEIL_V5\C51\LIB\C51L.LIB (?C?IILDX)
  C:\KEIL_V5\C51\LIB\C51L.LIB (?C?ILDOPTR)
  C:\KEIL_V5\C51\LIB\C51L.LIB (?C?IILDOPTR)
  C:\KEIL_V5\C51\LIB\C51L.LIB (?C?ISTOPTR)
  C:\KEIL_V5\C51\LIB\C51L.LIB (?C?ULDIV)
  C:\KEIL_V5\C51\LIB\C51L.LIB (?C?ULCMP)
  C:\KEIL_V5\C51\LIB\C51L.LIB (?C?ULSHR)
  C:\KEIL_V5\C51\LIB\C51L.LIB (?C?LSTXDATA)
  C:\KEIL_V5\C51\LIB\C51L.LIB (?C?LSTKXDATA)
  C:\KEIL_V5\C51\LIB\C51L.LIB (?C?PLDPTR)
  C:\KEIL_V5\C51\LIB\C51L.LIB (?C?CCASE)
  C:\KEIL_V5\C51\LIB\C51L.LIB (?C?ICALL)
  C:\KEIL_V5\C51\LIB\C51L.LIB (?C_XBP)
  C:\KEIL_V5\C51\LIB\C51L.LIB (?C?ADDXBP)
  C:\KEIL_V5\C51\LIB\C51L.LIB (?C?XBPOFF)
  C:\KEIL_V5\C51\LIB\C51L.LIB (PRINTF)
  C:\KEIL_V5\C51\LIB\C51L.LIB (?C?STRCPY)
  C:\KEIL_V5\C51\LIB\C51L.LIB (STRNCPY)
  C:\KEIL_V5\C51\LIB\C51L.LIB (STRLEN)
  C:\KEIL_V5\C51\LIB\C51L.LIB (?C?MEMSET)
  C:\KEIL_V5\C51\LIB\C51L.LIB (?C?CSTPTR)
BL51 BANKED LINKER/LOCATER V6.22                                                      12/15/2017  17:13:45  PAGE 2


  C:\KEIL_V5\C51\LIB\C51L.LIB (?C?ILDIX)
  C:\KEIL_V5\C51\LIB\C51L.LIB (?C?PLDIDATA)
  C:\KEIL_V5\C51\LIB\C51L.LIB (?C?PLDXDATA)
  C:\KEIL_V5\C51\LIB\C51L.LIB (?C?PLDIXDATA)
  C:\KEIL_V5\C51\LIB\C51L.LIB (?C?PSTXDATA)
  C:\KEIL_V5\C51\LIB\C51L.LIB (?C?PLDPDATA)
  C:\KEIL_V5\C51\LIB\C51L.LIB (?C?PLDCODE)


LINK MAP OF MODULE:  .\Out\Objects\project (MAIN)


            TYPE    BASE      LENGTH    RELOCATION   SEGMENT NAME
            -----------------------------------------------------

            * * * * * * *   D A T A   M E M O R Y   * * * * * * *
            REG     0000H     0008H     ABSOLUTE     "REG BANK 0"
            DATA    0008H     0005H     UNIT         _DATA_GROUP_
            DATA    000DH     0002H     UNIT         ?C?LIB_DATA
            IDATA   000FH     0007H     UNIT         ?ID?APP_WORK
            IDATA   0016H     0005H     UNIT         ?ID?BSP_ADC
                    001BH     0005H                  *** GAP ***
            BIT     0020H.0   0001H.1   UNIT         _BIT_GROUP_
            BIT     0021H.1   0000H.1   UNIT         ?BI?APP_2D4
            BIT     0021H.2   0000H.1   UNIT         ?BI?BSP
                    0021H.3   0000H.5                *** GAP ***
            IDATA   0022H     007BH     UNIT         ?ID?BSP_KEY
            IDATA   009DH     0021H     UNIT         ?ID?APP_2D4
            IDATA   00BEH     0001H     UNIT         ?STACK

            * * * * * * *  X D A T A   M E M O R Y  * * * * * * *
            XDATA   0000H     0043H     UNIT         _XDATA_GROUP_
            XDATA   0043H     0013H     UNIT         ?XD?_RF_CARRIER?BSP_2D4
            XDATA   0056H     0012H     UNIT         ?XD?APP_REPEAT_EXE
            XDATA   0068H     0011H     UNIT         ?XD?APP_LCD
            XDATA   0079H     0010H     UNIT         ?XD?APP_2D4
            XDATA   0089H     000BH     UNIT         ?XD?BSP_TIMER0
            XDATA   0094H     0007H     UNIT         ?XD?BSP_KEY
            XDATA   009BH     0005H     UNIT         ?XD?BSP_2D4
            XDATA   00A0H     0004H     UNIT         ?XD?_INITIALUART0_TIMER3_TYPE5?COMMON
            XDATA   00A4H     0004H     UNIT         ?XD?_INITIALUART0_TIMER3_TYPE6?COMMON
            XDATA   00A8H     0004H     UNIT         ?XD?_INITIALUART1_TIMER3?COMMON
            XDATA   00ACH     0004H     UNIT         ?XD?_TIMER0_DELAY1MS?DELAY
            XDATA   00B0H     0004H     UNIT         ?XD?_TIMER1_DELAY1MS?DELAY
            XDATA   00B4H     0004H     UNIT         ?XD?_TIMER3_DELAY1MS?DELAY
            XDATA   00B8H     0004H     UNIT         ?XD?_WAKEUP_TIMER_DELAY25MS?DELAY
            XDATA   00BCH     0002H     UNIT         ?XD?APP_WORK
            XDATA   00BEH     0001H     UNIT         ?XD?MAIN
            XDATA   00BFH     0001H     UNIT         ?XD?APP_KEY

            * * * * * * *   C O D E   M E M O R Y   * * * * * * *
            CODE    0000H     0003H     ABSOLUTE     
            CODE    0003H     0008H     UNIT         ?PR?APP_WORK_CNT_CLEAR?APP_WORK
            CODE    000BH     0003H     ABSOLUTE     
            CODE    000EH     0043H     UNIT         ?PR?VOL_RESP?APP_2D4
            CODE    0051H     000AH     UNIT         ?PR?APP_REPEAT_ISENABLE?APP_REPEAT_EXE
            CODE    005BH     0003H     ABSOLUTE     
BL51 BANKED LINKER/LOCATER V6.22                                                      12/15/2017  17:13:45  PAGE 3


            CODE    005EH     0B0BH     UNIT         ?PR?_APP_2D4_RCV?APP_2D4
            CODE    0B69H     08FAH     UNIT         ?PR?_LCD_SHOWCHAR?BSP_DISPLAY
            CODE    1463H     05B4H     UNIT         ?PR?_APP_KEY_PRO?APP_KEY
            CODE    1A17H     0589H     UNIT         ?C?LIB_CODE
            CODE    1FA0H     0365H     UNIT         ?PR?PRINTF?PRINTF
            CODE    2305H     0154H     UNIT         ?PR?_BSP_DETECTKEY?BSP_KEY
            CODE    2459H     0145H     UNIT         ?PR?_SYSTEM_CLOCK_SELECT?COMMON
            CODE    259EH     012EH     UNIT         ?PR?RF_INIT?BSP_2D4
            CODE    26CCH     0112H     UNIT         ?CO?VERSION
            CODE    27DEH     00F6H     UNIT         ?CO?APP_2D4
            CODE    28D4H     00E4H     UNIT         ?PR?_LCD_CLEAR_MI?BSP_DISPLAY
            CODE    29B8H     00E3H     UNIT         ?PR?_RF_CARRIER?BSP_2D4
            CODE    2A9BH     00B8H     UNIT         ?PR?BSP_INITKEYVAR?BSP_KEY
            CODE    2B53H     00B5H     UNIT         ?PR?REPEAT_PRO?APP_REPEAT_EXE
            CODE    2C08H     00A2H     UNIT         ?PR?_LCD_SHOWSTRING?BSP_DISPLAY
            CODE    2CAAH     009AH     UNIT         ?C_C51STARTUP
            CODE    2D44H     0085H     UNIT         ?PR?APP_2D4_PRO?APP_2D4
            CODE    2DC9H     0083H     UNIT         ?PR?_?RANDOM_DELAY?DELAY
            CODE    2E4CH     007EH     UNIT         ?C_INITSEG
            CODE    2ECAH     0079H     UNIT         ?PR?TIMER0_ISR?BSP_TIMER0
            CODE    2F43H     0069H     UNIT         ?PR?MAIN?MAIN
            CODE    2FACH     0068H     UNIT         ?PR?_STRNCPY?STRNCPY
            CODE    3014H     0067H     UNIT         ?PR?_ISKEYDOWN?BSP_KEY
            CODE    307BH     0063H     UNIT         ?PR?_INITIALUART0_TIMER3_TYPE5?COMMON
            CODE    30DEH     0063H     UNIT         ?PR?_INITIALUART0_TIMER3_TYPE6?COMMON
            CODE    3141H     0061H     UNIT         ?PR?_WAKEUP_TIMER_DELAY25MS?DELAY
            CODE    31A2H     005FH     UNIT         ?PR?SHOW_FW_VERSION_NUMBER_TO_PC?VERSION
            CODE    3201H     005DH     UNIT         ?PR?_INITIALUART1_TIMER3?COMMON
            CODE    325EH     005CH     UNIT         ?PR?ADC_ISR?MAIN
            CODE    32BAH     005BH     UNIT         ?PR?_TIMER3_DELAY1MS?DELAY
            CODE    3315H     0059H     UNIT         ?PR?_TIMER0_DELAY1MS?DELAY
            CODE    336EH     0059H     UNIT         ?PR?_TIMER1_DELAY1MS?DELAY
            CODE    33C7H     0053H     UNIT         ?PR?_APP_LCD_DEFAULT_STRING_SET?APP_LCD
            CODE    341AH     0051H     UNIT         ?PR?_APP_2D4_SEND?APP_2D4
            CODE    346BH     0043H     UNIT         ?PR?_RF_WRITEBUF?BSP_2D4
            CODE    34AEH     0043H     UNIT         ?PR?_RF_TXDATA?BSP_2D4
            CODE    34F1H     0041H     UNIT         ?PR?APP_LCD_PRO?APP_LCD
            CODE    3532H     003FH     UNIT         ?PR?_RF_READBUF?BSP_2D4
            CODE    3571H     003DH     UNIT         ?PR?_PUTCHAR?COMMON
            CODE    35AEH     003CH     UNIT         ?PR?APP_WORK_1S_PRO?APP_WORK
            CODE    35EAH     0036H     UNIT         ?PR?LCD_DISPLAY_INITHARD?BSP_DISPLAY
            CODE    3620H     0033H     UNIT         ?PR?FM_STATION_SHOW_LCD_RESP?APP_2D4
            CODE    3653H     0033H     UNIT         ?PR?ADC_INIT?BSP_ADC
            CODE    3686H     0032H     UNIT         ?PR?_REPEAT_START?APP_REPEAT_EXE
            CODE    36B8H     0032H     UNIT         ?PR?USB_TRACK_SHOW_LCD_RESP?APP_2D4
            CODE    36EAH     002AH     UNIT         ?PR?_INITIALUART0_TIMER1_TYPE3?COMMON
            CODE    3714H     002AH     UNIT         ?PR?_INITIALUART0_TIMER1_TYPE4?COMMON
            CODE    373EH     0029H     UNIT         ?PR?_UCRF_DUMPRXDATA?BSP_2D4
            CODE    3767H     0029H     UNIT         ?PR?_INITIALUART0_TIMER1_TYPE1?COMMON
            CODE    3790H     0028H     UNIT         ?PR?_INITIALUART0_TIMER1_TYPE2?COMMON
            CODE    37B8H     0026H     UNIT         ?PR?TIMER0_PARAMINIT?BSP_TIMER0
            CODE    37DEH     0026H     UNIT         ?PR?RF_RXMODE?BSP_2D4
            CODE    3804H     0025H     UNIT         ?PR?APP_2D4_INIT?APP_2D4
            CODE    3829H     0025H     UNIT         ?PR?_SPI_WR?BSP_2D4
            CODE    384EH     0024H     UNIT         ?PR?_BSP_SETKEYPARAM?BSP_KEY
            CODE    3872H     0024H     UNIT         ?CO?BSP_2D4
            CODE    3896H     0023H     UNIT         ?PR?TIMER0_INITHARD?BSP_TIMER0
BL51 BANKED LINKER/LOCATER V6.22                                                      12/15/2017  17:13:45  PAGE 4


            CODE    38B9H     0023H     UNIT         ?PR?ADC_START?BSP_ADC
            CODE    38DCH     0021H     UNIT         ?PR?_DELAY10US?DELAY
            CODE    38FDH     0020H     UNIT         ?PR?SET_ALL_GPIO_INPUT_MODE?COMMON
            CODE    391DH     001FH     UNIT         ?PR?_SPI_WW?BSP_2D4
            CODE    393CH     001CH     UNIT         ?PR?BSP_GETKEY?BSP_KEY
            CODE    3958H     001CH     UNIT         ?PR?BSP_GETKEY2?BSP_KEY
            CODE    3974H     001BH     UNIT         ?PR?BSP_INIT?BSP
            CODE    398FH     001BH     UNIT         ?PR?BSP_KEYSCAN?BSP_KEY
            CODE    39AAH     001AH     UNIT         ?PR?UCSPI_READ?BSP_2D4
            CODE    39C4H     001AH     UNIT         ?PR?SET_ALL_GPIO_QUASI_MODE?COMMON
            CODE    39DEH     001AH     UNIT         ?PR?SW_RESET?COMMON
            CODE    39F8H     0018H     UNIT         ?PR?APP_WORK_INIT?APP_WORK
            CODE    3A10H     0016H     UNIT         ?PR?SPEAKER_STATUS_RESP?APP_2D4
            CODE    3A26H     0016H     UNIT         ?PR?RELAY_STATUS_RESP?APP_2D4
            CODE    3A3CH     0015H     UNIT         ?PR?_STRLEN?STRLEN
            CODE    3A51H     0014H     UNIT         ?PR?REPEAT_STOP?APP_REPEAT_EXE
            CODE    3A65H     0014H     UNIT         ?PR?APP_LCD_INIT?APP_LCD
            CODE    3A79H     0014H     UNIT         ?PR?_BSP_PUTKEY?BSP_KEY
            CODE    3A8DH     0013H     UNIT         ?PR?WIRELESS2D4_INITHARD?BSP_2D4
            CODE    3AA0H     0013H     UNIT         ?PR?_RF_WRITEREG?BSP_2D4
            CODE    3AB3H     0013H     UNIT         ?PR?_UCRF_READREG?BSP_2D4
            CODE    3AC6H     0012H     UNIT         ?PR?ISKEYDOWN_1AND6?BSP_KEY
            CODE    3AD8H     0010H     UNIT         ?PR?REPEAT_START_EXE?APP_REPEAT_EXE
            CODE    3AE8H     0010H     UNIT         ?PR?REPEAT_STOP_EXE?APP_REPEAT_EXE
            CODE    3AF8H     000FH     UNIT         ?PR?CLEAR_LCD_RESP?APP_2D4
            CODE    3B07H     000FH     UNIT         ?PR?USB_PAUSE_SHOW_LCD_RESP?APP_2D4
            CODE    3B16H     000FH     UNIT         ?PR?BT_NEXT_SHOW_LCD_RESP?APP_2D4
            CODE    3B25H     000FH     UNIT         ?PR?BT_PREV_SHOW_LCD_RESP?APP_2D4
            CODE    3B34H     000FH     UNIT         ?PR?LED_SHOW_BLINK_NAME_SHOW_LCD_RESP?APP_2D4
            CODE    3B43H     000FH     UNIT         ?PR?LED_CLEAR_BLINK_NAME_SHOW_LCD_RESP?APP_2D4
            CODE    3B52H     000FH     UNIT         ?PR?ISKEYDOWN2?BSP_KEY
            CODE    3B61H     000FH     UNIT         ?PR?ISKEYDOWN6?BSP_KEY
            CODE    3B70H     000FH     UNIT         ?PR?ISKEYDOWN7?BSP_KEY
            CODE    3B7FH     000FH     UNIT         ?PR?ISKEYDOWN8?BSP_KEY
            CODE    3B8EH     000FH     UNIT         ?PR?ISKEYDOWN9?BSP_KEY
            CODE    3B9DH     000FH     UNIT         ?PR?RF_TXMODE?BSP_2D4
            CODE    3BACH     000EH     UNIT         ?PR?ISKEYDOWN5?BSP_KEY
            CODE    3BBAH     000EH     UNIT         ?PR?_RF_SETCHANNEL?BSP_2D4
            CODE    3BC8H     000DH     UNIT         ?PR?LCD_CLEAR_ALL?BSP_DISPLAY
            CODE    3BD5H     000DH     UNIT         ?PR?LCD_CLEAR_MI_ALL?BSP_DISPLAY
            CODE    3BE2H     000CH     UNIT         ?PR?_REPEAT_SETSTART?APP_REPEAT_EXE
            CODE    3BEEH     000CH     UNIT         ?PR?_REPEAT_SETSTOP?APP_REPEAT_EXE
            CODE    3BFAH     000CH     UNIT         ?PR?RF_CLEARFIFO?BSP_2D4
            CODE    3C06H     000BH     UNIT         ?PR?_BSP_GETKEYSTATE?BSP_KEY
            CODE    3C11H     000AH     UNIT         ?PR?UCRF_GETSTATUS?BSP_2D4
            CODE    3C1BH     0009H     UNIT         ?CO?APP_WORK
            CODE    3C24H     0009H     UNIT         ?PR?BT_PAUSE_SHOW_LCD_RESP?APP_2D4
            CODE    3C2DH     0009H     UNIT         ?PR?AUX_MUTE_SHOW_LCD_RESP?APP_2D4
            CODE    3C36H     0009H     UNIT         ?CO?APP_LCD
            CODE    3C3FH     0009H     UNIT         ?PR?ISKEYDOWN1?BSP_KEY
            CODE    3C48H     0009H     UNIT         ?PR?KEY_BRIGHT_INITHARD?BSP_KEYBRIGHT
            CODE    3C51H     0009H     UNIT         ?PR?LCD_BRIGHT_INITHARD?BSP_LCDBRIGHT
            CODE    3C5AH     0008H     UNIT         ?PR?RECEIVE_DATA_FROM_UART0?COMMON
            CODE    3C62H     0008H     UNIT         ?PR?_SEND_DATA_TO_UART0?COMMON
            CODE    3C6AH     0008H     UNIT         ?PR?RECEIVE_DATA_FROM_UART1?COMMON
            CODE    3C72H     0008H     UNIT         ?PR?_SEND_DATA_TO_UART1?COMMON
            CODE    3C7AH     0007H     UNIT         ?PR?BSP_INITKEYHARD?BSP_KEY
BL51 BANKED LINKER/LOCATER V6.22                                                      12/15/2017  17:13:45  PAGE 5


            CODE    3C81H     0007H     UNIT         ?PR?LCD_CLEAR_LED_ICO?BSP_DISPLAY
            CODE    3C88H     0007H     UNIT         ?PR?LCD_SHOW_LED_ICO?BSP_DISPLAY
            CODE    3C8FH     0007H     UNIT         ?PR?LCD_CLEAR_FM_ICO?BSP_DISPLAY
            CODE    3C96H     0007H     UNIT         ?PR?LCD_SHOW_FM_ICO?BSP_DISPLAY
            CODE    3C9DH     0007H     UNIT         ?PR?LCD_CLEAR_BLUETOOTH_ICO?BSP_DISPLAY
            CODE    3CA4H     0007H     UNIT         ?PR?LCD_SHOW_BLUETOOTH_ICO?BSP_DISPLAY
            CODE    3CABH     0007H     UNIT         ?PR?LCD_CLEAR_AUX_ICO?BSP_DISPLAY
            CODE    3CB2H     0007H     UNIT         ?PR?LCD_SHOW_AUX_ICO?BSP_DISPLAY
            CODE    3CB9H     0007H     UNIT         ?PR?LCD_CLEAR_USB_ICO?BSP_DISPLAY
            CODE    3CC0H     0007H     UNIT         ?PR?LCD_SHOW_USB_ICO?BSP_DISPLAY
            CODE    3CC7H     0007H     UNIT         ?PR?LCD_CLEAR_MHZ_ICO?BSP_DISPLAY
            CODE    3CCEH     0007H     UNIT         ?PR?LCD_SHOW_MHZ_ICO?BSP_DISPLAY
            CODE    3CD5H     0007H     UNIT         ?PR?LCD_CLEAR_BAZOOKA_ICO?BSP_DISPLAY
            CODE    3CDCH     0007H     UNIT         ?PR?LCD_SHOW_BAZOOKA_ICO?BSP_DISPLAY
            CODE    3CE3H     0007H     UNIT         ?PR?LCD_CLEAR_UPCOLON_ICO?BSP_DISPLAY
            CODE    3CEAH     0007H     UNIT         ?PR?LCD_SHOW_UPCOLON_ICO?BSP_DISPLAY
            CODE    3CF1H     0007H     UNIT         ?PR?LCD_CLEAR_DOWNCOLON_ICO?BSP_DISPLAY
            CODE    3CF8H     0007H     UNIT         ?PR?LCD_SHOW_DOWNCOLON_ICO?BSP_DISPLAY
            CODE    3CFFH     0007H     UNIT         ?PR?RF_CLEARSTATUS?BSP_2D4
            CODE    3D06H     0006H     UNIT         ?PR?ISKEYDOWN3?BSP_KEY
            CODE    3D0CH     0006H     UNIT         ?PR?ISKEYDOWN4?BSP_KEY
            CODE    3D12H     0006H     UNIT         ?PR?BSP_INITKEY?BSP_KEY
            CODE    3D18H     0006H     UNIT         ?PR?BSP_CLEARKEY?BSP_KEY
            CODE    3D1EH     0006H     UNIT         ?PR?LCD_CLEAR_COLON_ICO?BSP_DISPLAY
            CODE    3D24H     0006H     UNIT         ?PR?LCD_SHOW_COLON_ICO?BSP_DISPLAY
            CODE    3D2AH     0006H     UNIT         ?PR?UCRF_GETRSSI?BSP_2D4
            CODE    3D30H     0004H     UNIT         ?PR?FSYS_CLOCK_OUTPUT_ON_P26?COMMON
            CODE    3D34H     0003H     UNIT         ?PR?KEY_BRIGHT_OFF?BSP_KEYBRIGHT
            CODE    3D37H     0003H     UNIT         ?PR?KEY_BRIGHT_ON?BSP_KEYBRIGHT
            CODE    3D3AH     0003H     UNIT         ?PR?KEY_BRIGHT_TOGGLE?BSP_KEYBRIGHT
            CODE    3D3DH     0003H     UNIT         ?PR?LCD_BRIGHT_OFF?BSP_LCDBRIGHT
            CODE    3D40H     0003H     UNIT         ?PR?LCD_BRIGHT_ON?BSP_LCDBRIGHT
            CODE    3D43H     0001H     UNIT         ?PR?APP_WORK_100MS_PRO?APP_WORK
            CODE    3D44H     0001H     UNIT         ?PR?APP_WORK_PRO?APP_WORK
            CODE    3D45H     0001H     UNIT         ?PR?SPI_INIT?BSP_2D4



OVERLAY MAP OF MODULE:   .\Out\Objects\project (MAIN)


SEGMENT                                             BIT_GROUP          DATA_GROUP          XDATA_GROUP
  +--> CALLED SEGMENT                            START    LENGTH     START    LENGTH     START    LENGTH
--------------------------------------------------------------------------------------------------------
?C_C51STARTUP                                    -----    -----      -----    -----      -----    -----
  +--> ?PR?MAIN?MAIN
  +--> ?C_INITSEG

?PR?MAIN?MAIN                                    -----    -----      -----    -----      0000H    0002H
  +--> ?PR?_SYSTEM_CLOCK_SELECT?COMMON
  +--> ?PR?BSP_INIT?BSP
  +--> ?PR?APP_2D4_INIT?APP_2D4
  +--> ?PR?APP_LCD_INIT?APP_LCD
  +--> ?PR?APP_WORK_INIT?APP_WORK
  +--> ?PR?ADC_START?BSP_ADC
  +--> ?PR?BSP_KEYSCAN?BSP_KEY
  +--> ?PR?APP_2D4_PRO?APP_2D4
BL51 BANKED LINKER/LOCATER V6.22                                                      12/15/2017  17:13:45  PAGE 6


  +--> ?PR?REPEAT_PRO?APP_REPEAT_EXE
  +--> ?PR?APP_LCD_PRO?APP_LCD
  +--> ?PR?APP_WORK_1S_PRO?APP_WORK
  +--> ?PR?BSP_GETKEY?BSP_KEY
  +--> ?PR?_APP_KEY_PRO?APP_KEY

?PR?BSP_INIT?BSP                                 -----    -----      -----    -----      -----    -----
  +--> ?PR?SET_ALL_GPIO_INPUT_MODE?COMMON
  +--> ?PR?LCD_DISPLAY_INITHARD?BSP_DISPLAY
  +--> ?PR?ADC_INIT?BSP_ADC
  +--> ?PR?BSP_INITKEY?BSP_KEY
  +--> ?PR?KEY_BRIGHT_INITHARD?BSP_KEYBRIGHT
  +--> ?PR?TIMER0_INITHARD?BSP_TIMER0
  +--> ?PR?WIRELESS2D4_INITHARD?BSP_2D4
  +--> ?PR?LCD_BRIGHT_INITHARD?BSP_LCDBRIGHT

?PR?LCD_DISPLAY_INITHARD?BSP_DISPLAY             -----    -----      -----    -----      -----    -----
  +--> ?PR?LCD_CLEAR_ALL?BSP_DISPLAY

?PR?BSP_INITKEY?BSP_KEY                          -----    -----      -----    -----      -----    -----
  +--> ?PR?BSP_INITKEYVAR?BSP_KEY
  +--> ?PR?BSP_INITKEYHARD?BSP_KEY

?PR?BSP_INITKEYVAR?BSP_KEY                       -----    -----      -----    -----      -----    -----
  +--> ?PR?ISKEYDOWN1?BSP_KEY
  +--> ?PR?ISKEYDOWN2?BSP_KEY
  +--> ?PR?ISKEYDOWN3?BSP_KEY
  +--> ?PR?ISKEYDOWN4?BSP_KEY
  +--> ?PR?ISKEYDOWN5?BSP_KEY
  +--> ?PR?ISKEYDOWN6?BSP_KEY
  +--> ?PR?ISKEYDOWN7?BSP_KEY
  +--> ?PR?ISKEYDOWN8?BSP_KEY
  +--> ?PR?ISKEYDOWN9?BSP_KEY
  +--> ?PR?ISKEYDOWN_1AND6?BSP_KEY

?PR?ISKEYDOWN2?BSP_KEY                           -----    -----      -----    -----      -----    -----
  +--> ?PR?_ISKEYDOWN?BSP_KEY

?PR?ISKEYDOWN3?BSP_KEY                           -----    -----      -----    -----      -----    -----
  +--> ?PR?_ISKEYDOWN?BSP_KEY

?PR?ISKEYDOWN4?BSP_KEY                           -----    -----      -----    -----      -----    -----
  +--> ?PR?_ISKEYDOWN?BSP_KEY

?PR?ISKEYDOWN5?BSP_KEY                           -----    -----      -----    -----      -----    -----
  +--> ?PR?_ISKEYDOWN?BSP_KEY

?PR?ISKEYDOWN6?BSP_KEY                           -----    -----      -----    -----      -----    -----
  +--> ?PR?_ISKEYDOWN?BSP_KEY

?PR?ISKEYDOWN7?BSP_KEY                           -----    -----      -----    -----      -----    -----
  +--> ?PR?_ISKEYDOWN?BSP_KEY

?PR?ISKEYDOWN8?BSP_KEY                           -----    -----      -----    -----      -----    -----
  +--> ?PR?_ISKEYDOWN?BSP_KEY

?PR?ISKEYDOWN9?BSP_KEY                           -----    -----      -----    -----      -----    -----
BL51 BANKED LINKER/LOCATER V6.22                                                      12/15/2017  17:13:45  PAGE 7


  +--> ?PR?_ISKEYDOWN?BSP_KEY

?PR?ISKEYDOWN_1AND6?BSP_KEY                      -----    -----      -----    -----      -----    -----
  +--> ?PR?ISKEYDOWN1?BSP_KEY
  +--> ?PR?ISKEYDOWN6?BSP_KEY

?PR?KEY_BRIGHT_INITHARD?BSP_KEYBRIGHT            -----    -----      -----    -----      -----    -----
  +--> ?PR?KEY_BRIGHT_OFF?BSP_KEYBRIGHT

?PR?TIMER0_INITHARD?BSP_TIMER0                   -----    -----      -----    -----      -----    -----
  +--> ?PR?TIMER0_PARAMINIT?BSP_TIMER0

?PR?LCD_BRIGHT_INITHARD?BSP_LCDBRIGHT            -----    -----      -----    -----      -----    -----
  +--> ?PR?LCD_BRIGHT_ON?BSP_LCDBRIGHT

?PR?APP_2D4_INIT?APP_2D4                         -----    -----      -----    -----      -----    -----
  +--> ?PR?RF_INIT?BSP_2D4
  +--> ?PR?RF_RXMODE?BSP_2D4

?PR?RF_INIT?BSP_2D4                              -----    -----      -----    -----      0002H    0012H
  +--> ?CO?BSP_2D4
  +--> ?PR?SPI_INIT?BSP_2D4
  +--> ?PR?_RF_WRITEREG?BSP_2D4
  +--> ?PR?_RF_WRITEBUF?BSP_2D4

?PR?_RF_WRITEREG?BSP_2D4                         -----    -----      -----    -----      -----    -----
  +--> ?PR?_SPI_WW?BSP_2D4

?PR?_RF_WRITEBUF?BSP_2D4                         -----    -----      -----    -----      0014H    0005H
  +--> ?PR?_SPI_WW?BSP_2D4

?PR?RF_RXMODE?BSP_2D4                            -----    -----      -----    -----      -----    -----
  +--> ?PR?_RF_WRITEREG?BSP_2D4

?PR?APP_LCD_INIT?APP_LCD                         -----    -----      -----    -----      -----    -----
  +--> ?CO?APP_LCD

?PR?APP_WORK_INIT?APP_WORK                       -----    -----      -----    -----      -----    -----
  +--> ?PR?LCD_SHOW_BAZOOKA_ICO?BSP_DISPLAY

?PR?BSP_KEYSCAN?BSP_KEY                          -----    -----      -----    -----      0002H    0001H
  +--> ?PR?_BSP_DETECTKEY?BSP_KEY

?PR?_BSP_DETECTKEY?BSP_KEY                       -----    -----      -----    -----      0003H    0001H
  +--> ?PR?_BSP_PUTKEY?BSP_KEY

?PR?APP_2D4_PRO?APP_2D4                          -----    -----      -----    -----      0002H    0001H
  +--> ?PR?UCRF_GETSTATUS?BSP_2D4
  +--> ?PR?RF_CLEARFIFO?BSP_2D4
  +--> ?PR?RF_CLEARSTATUS?BSP_2D4
  +--> ?PR?RF_RXMODE?BSP_2D4
  +--> ?PR?_RF_TXDATA?BSP_2D4
  +--> ?PR?_UCRF_DUMPRXDATA?BSP_2D4
  +--> ?PR?_APP_2D4_RCV?APP_2D4

?PR?UCRF_GETSTATUS?BSP_2D4                       -----    -----      -----    -----      -----    -----
  +--> ?PR?_UCRF_READREG?BSP_2D4
BL51 BANKED LINKER/LOCATER V6.22                                                      12/15/2017  17:13:45  PAGE 8



?PR?_UCRF_READREG?BSP_2D4                        -----    -----      -----    -----      -----    -----
  +--> ?PR?_SPI_WR?BSP_2D4
  +--> ?PR?UCSPI_READ?BSP_2D4

?PR?RF_CLEARFIFO?BSP_2D4                         -----    -----      -----    -----      -----    -----
  +--> ?PR?_RF_WRITEREG?BSP_2D4

?PR?RF_CLEARSTATUS?BSP_2D4                       -----    -----      -----    -----      -----    -----
  +--> ?PR?_RF_WRITEREG?BSP_2D4

?PR?_RF_TXDATA?BSP_2D4                           -----    -----      -----    -----      0003H    0002H
  +--> ?PR?UCRF_GETSTATUS?BSP_2D4
  +--> ?PR?_RF_WRITEBUF?BSP_2D4
  +--> ?PR?_RF_WRITEREG?BSP_2D4

?PR?_UCRF_DUMPRXDATA?BSP_2D4                     -----    -----      -----    -----      -----    -----
  +--> ?PR?UCRF_GETSTATUS?BSP_2D4
  +--> ?PR?_RF_WRITEREG?BSP_2D4
  +--> ?PR?_RF_READBUF?BSP_2D4
  +--> ?PR?RF_CLEARFIFO?BSP_2D4
  +--> ?PR?RF_CLEARSTATUS?BSP_2D4

?PR?_RF_READBUF?BSP_2D4                          -----    -----      -----    -----      0003H    0005H
  +--> ?PR?_SPI_WR?BSP_2D4
  +--> ?PR?UCSPI_READ?BSP_2D4

?PR?_APP_2D4_RCV?APP_2D4                         -----    -----      -----    -----      0003H    0008H
  +--> ?PR?APP_WORK_CNT_CLEAR?APP_WORK
  +--> ?PR?LCD_SHOW_LED_ICO?BSP_DISPLAY
  +--> ?PR?LCD_CLEAR_MHZ_ICO?BSP_DISPLAY
  +--> ?PR?LCD_CLEAR_FM_ICO?BSP_DISPLAY
  +--> ?PR?LCD_CLEAR_USB_ICO?BSP_DISPLAY
  +--> ?PR?LCD_CLEAR_AUX_ICO?BSP_DISPLAY
  +--> ?PR?LCD_CLEAR_BLUETOOTH_ICO?BSP_DISPLAY
  +--> ?PR?LCD_SHOW_BLUETOOTH_ICO?BSP_DISPLAY
  +--> ?PR?LCD_SHOW_FM_ICO?BSP_DISPLAY
  +--> ?PR?LCD_SHOW_USB_ICO?BSP_DISPLAY
  +--> ?PR?LCD_SHOW_AUX_ICO?BSP_DISPLAY
  +--> ?PR?_STRLEN?STRLEN
  +--> ?PR?_APP_LCD_DEFAULT_STRING_SET?APP_LCD
  +--> ?PR?LED_SHOW_BLINK_NAME_SHOW_LCD_RESP...
  +--> ?PR?_REPEAT_SETSTART?APP_REPEAT_EXE
  +--> ?PR?LED_CLEAR_BLINK_NAME_SHOW_LCD_RES...
  +--> ?PR?_REPEAT_SETSTOP?APP_REPEAT_EXE
  +--> ?PR?APP_REPEAT_ISENABLE?APP_REPEAT_EXE
  +--> ?PR?REPEAT_STOP?APP_REPEAT_EXE
  +--> ?PR?LCD_CLEAR_DOWNCOLON_ICO?BSP_DISPLAY
  +--> ?PR?LCD_CLEAR_UPCOLON_ICO?BSP_DISPLAY
  +--> ?PR?SPEAKER_STATUS_RESP?APP_2D4
  +--> ?CO?APP_2D4
  +--> ?PR?PRINTF?PRINTF
  +--> ?PR?LCD_CLEAR_ALL?BSP_DISPLAY
  +--> ?PR?BT_PAUSE_SHOW_LCD_RESP?APP_2D4
  +--> ?PR?CLEAR_LCD_RESP?APP_2D4
  +--> ?PR?AUX_MUTE_SHOW_LCD_RESP?APP_2D4
  +--> ?PR?USB_PAUSE_SHOW_LCD_RESP?APP_2D4
BL51 BANKED LINKER/LOCATER V6.22                                                      12/15/2017  17:13:45  PAGE 9


  +--> ?PR?BT_PREV_SHOW_LCD_RESP?APP_2D4
  +--> ?PR?BT_NEXT_SHOW_LCD_RESP?APP_2D4
  +--> ?PR?FM_STATION_SHOW_LCD_RESP?APP_2D4
  +--> ?PR?USB_TRACK_SHOW_LCD_RESP?APP_2D4
  +--> ?PR?LCD_SHOW_MHZ_ICO?BSP_DISPLAY
  +--> ?PR?VOL_RESP?APP_2D4
  +--> ?PR?RELAY_STATUS_RESP?APP_2D4
  +--> ?PR?LCD_CLEAR_LED_ICO?BSP_DISPLAY
  +--> ?PR?_REPEAT_START?APP_REPEAT_EXE

?PR?_APP_LCD_DEFAULT_STRING_SET?APP_LCD          -----    -----      -----    -----      000BH    0005H
  +--> ?PR?_STRNCPY?STRNCPY

?PR?_STRNCPY?STRNCPY                             -----    -----      -----    -----      0010H    000AH

?PR?LED_SHOW_BLINK_NAME_SHOW_LCD_RESP...         -----    -----      -----    -----      -----    -----
  +--> ?PR?_LCD_SHOWSTRING?BSP_DISPLAY
  +--> ?PR?LCD_CLEAR_UPCOLON_ICO?BSP_DISPLAY
  +--> ?PR?LCD_CLEAR_DOWNCOLON_ICO?BSP_DISPLAY

?PR?_LCD_SHOWSTRING?BSP_DISPLAY                  0020H.0  0000H.1    -----    -----      001BH    0004H
  +--> ?PR?_STRLEN?STRLEN
  +--> ?PR?_LCD_SHOWCHAR?BSP_DISPLAY

?PR?_LCD_SHOWCHAR?BSP_DISPLAY                    -----    -----      -----    -----      -----    -----
  +--> ?PR?_LCD_CLEAR_MI?BSP_DISPLAY

?PR?LED_CLEAR_BLINK_NAME_SHOW_LCD_RES...         -----    -----      -----    -----      -----    -----
  +--> ?CO?APP_2D4
  +--> ?PR?_LCD_SHOWSTRING?BSP_DISPLAY
  +--> ?PR?LCD_CLEAR_UPCOLON_ICO?BSP_DISPLAY
  +--> ?PR?LCD_CLEAR_DOWNCOLON_ICO?BSP_DISPLAY

?PR?REPEAT_STOP?APP_REPEAT_EXE                   -----    -----      -----    -----      -----    -----
  +--> ?PR?REPEAT_STOP_EXE?APP_REPEAT_EXE
  +--> ?PR?_REPEAT_SETSTART?APP_REPEAT_EXE
  +--> ?PR?_REPEAT_SETSTOP?APP_REPEAT_EXE

?PR?SPEAKER_STATUS_RESP?APP_2D4                  -----    -----      -----    -----      -----    -----
  +--> ?CO?APP_2D4
  +--> ?PR?_LCD_SHOWSTRING?BSP_DISPLAY

?PR?PRINTF?PRINTF                                0020H.0  0001H.1    0008H    0005H      001BH    0028H
  +--> ?PR?_PUTCHAR?COMMON

?PR?BT_PAUSE_SHOW_LCD_RESP?APP_2D4               -----    -----      -----    -----      -----    -----
  +--> ?CO?APP_2D4
  +--> ?PR?_LCD_SHOWSTRING?BSP_DISPLAY

?PR?CLEAR_LCD_RESP?APP_2D4                       -----    -----      -----    -----      -----    -----
  +--> ?CO?APP_2D4
  +--> ?PR?_LCD_SHOWSTRING?BSP_DISPLAY
  +--> ?PR?LCD_CLEAR_UPCOLON_ICO?BSP_DISPLAY
  +--> ?PR?LCD_CLEAR_DOWNCOLON_ICO?BSP_DISPLAY

?PR?AUX_MUTE_SHOW_LCD_RESP?APP_2D4               -----    -----      -----    -----      -----    -----
  +--> ?CO?APP_2D4
BL51 BANKED LINKER/LOCATER V6.22                                                      12/15/2017  17:13:45  PAGE 10


  +--> ?PR?_LCD_SHOWSTRING?BSP_DISPLAY

?PR?USB_PAUSE_SHOW_LCD_RESP?APP_2D4              -----    -----      -----    -----      -----    -----
  +--> ?CO?APP_2D4
  +--> ?PR?_LCD_SHOWSTRING?BSP_DISPLAY
  +--> ?PR?LCD_CLEAR_UPCOLON_ICO?BSP_DISPLAY
  +--> ?PR?LCD_CLEAR_DOWNCOLON_ICO?BSP_DISPLAY

?PR?BT_PREV_SHOW_LCD_RESP?APP_2D4                -----    -----      -----    -----      -----    -----
  +--> ?CO?APP_2D4
  +--> ?PR?_LCD_SHOWSTRING?BSP_DISPLAY
  +--> ?PR?LCD_CLEAR_UPCOLON_ICO?BSP_DISPLAY
  +--> ?PR?LCD_CLEAR_DOWNCOLON_ICO?BSP_DISPLAY

?PR?BT_NEXT_SHOW_LCD_RESP?APP_2D4                -----    -----      -----    -----      -----    -----
  +--> ?CO?APP_2D4
  +--> ?PR?_LCD_SHOWSTRING?BSP_DISPLAY
  +--> ?PR?LCD_CLEAR_UPCOLON_ICO?BSP_DISPLAY
  +--> ?PR?LCD_CLEAR_DOWNCOLON_ICO?BSP_DISPLAY

?PR?FM_STATION_SHOW_LCD_RESP?APP_2D4             -----    -----      -----    -----      -----    -----
  +--> ?CO?APP_2D4
  +--> ?PR?PRINTF?PRINTF
  +--> ?PR?_LCD_SHOWSTRING?BSP_DISPLAY
  +--> ?PR?LCD_CLEAR_MHZ_ICO?BSP_DISPLAY
  +--> ?PR?LCD_CLEAR_UPCOLON_ICO?BSP_DISPLAY
  +--> ?PR?LCD_SHOW_DOWNCOLON_ICO?BSP_DISPLAY

?PR?USB_TRACK_SHOW_LCD_RESP?APP_2D4              -----    -----      -----    -----      -----    -----
  +--> ?CO?APP_2D4
  +--> ?PR?PRINTF?PRINTF
  +--> ?PR?_LCD_SHOWSTRING?BSP_DISPLAY
  +--> ?PR?LCD_CLEAR_UPCOLON_ICO?BSP_DISPLAY
  +--> ?PR?LCD_CLEAR_DOWNCOLON_ICO?BSP_DISPLAY

?PR?VOL_RESP?APP_2D4                             -----    -----      -----    -----      000BH    0010H
  +--> ?CO?APP_2D4
  +--> ?PR?LCD_CLEAR_UPCOLON_ICO?BSP_DISPLAY
  +--> ?PR?LCD_CLEAR_DOWNCOLON_ICO?BSP_DISPLAY
  +--> ?PR?PRINTF?PRINTF
  +--> ?PR?_LCD_SHOWSTRING?BSP_DISPLAY

?PR?RELAY_STATUS_RESP?APP_2D4                    -----    -----      -----    -----      -----    -----
  +--> ?CO?APP_2D4
  +--> ?PR?_LCD_SHOWSTRING?BSP_DISPLAY

?PR?_REPEAT_START?APP_REPEAT_EXE                 -----    -----      -----    -----      -----    -----
  +--> ?PR?REPEAT_START_EXE?APP_REPEAT_EXE

?PR?REPEAT_PRO?APP_REPEAT_EXE                    -----    -----      -----    -----      -----    -----
  +--> ?PR?REPEAT_STOP_EXE?APP_REPEAT_EXE
  +--> ?PR?REPEAT_START_EXE?APP_REPEAT_EXE

?PR?APP_LCD_PRO?APP_LCD                          -----    -----      -----    -----      -----    -----
  +--> ?PR?APP_REPEAT_ISENABLE?APP_REPEAT_EXE
  +--> ?PR?_LCD_SHOWSTRING?BSP_DISPLAY
  +--> ?PR?LCD_CLEAR_DOWNCOLON_ICO?BSP_DISPLAY
BL51 BANKED LINKER/LOCATER V6.22                                                      12/15/2017  17:13:45  PAGE 11


  +--> ?PR?LCD_CLEAR_UPCOLON_ICO?BSP_DISPLAY
  +--> ?PR?LCD_SHOW_UPCOLON_ICO?BSP_DISPLAY
  +--> ?PR?LCD_SHOW_DOWNCOLON_ICO?BSP_DISPLAY

?PR?APP_WORK_1S_PRO?APP_WORK                     -----    -----      -----    -----      -----    -----
  +--> ?PR?REPEAT_STOP?APP_REPEAT_EXE
  +--> ?PR?LCD_CLEAR_ALL?BSP_DISPLAY
  +--> ?PR?LCD_SHOW_BAZOOKA_ICO?BSP_DISPLAY
  +--> ?CO?APP_WORK
  +--> ?PR?_LCD_SHOWSTRING?BSP_DISPLAY
  +--> ?PR?_APP_LCD_DEFAULT_STRING_SET?APP_LCD

?PR?_APP_KEY_PRO?APP_KEY                         -----    -----      -----    -----      0002H    0003H
  +--> ?PR?_APP_2D4_SEND?APP_2D4

?PR?_APP_2D4_SEND?APP_2D4                        -----    -----      -----    -----      0005H    0004H
  +--> ?PR?RF_TXMODE?BSP_2D4

?PR?RF_TXMODE?BSP_2D4                            -----    -----      -----    -----      -----    -----
  +--> ?PR?_RF_WRITEREG?BSP_2D4



SYMBOL TABLE OF MODULE:  .\Out\Objects\project (MAIN)

  VALUE           TYPE          NAME
  ----------------------------------

  -------         MODULE        MAIN
  C:0000H         SYMBOL        _ICE_DUMMY_
  D:0080H         PUBLIC        P0
  D:0090H         PUBLIC        P1
  D:00A0H         PUBLIC        P2
  D:00B0H         PUBLIC        P3
  D:00D8H         PUBLIC        P5
  D:00A8H         PUBLIC        IE
  B:00E8H.7       PUBLIC        ADCF
  C:325EH         PUBLIC        ADC_ISR
  D:00B8H         PUBLIC        IP
  C:2F43H         PUBLIC        main
  D:0098H         PUBLIC        SCON
  D:0088H         PUBLIC        TCON
  D:00F8H         PUBLIC        SCON_1
  D:00E8H         PUBLIC        ADCCON0
  D:00C0H         PUBLIC        I2CON
  D:00C3H         PUBLIC        ADCRH
  D:00C8H         PUBLIC        T2CON
  D:00C2H         PUBLIC        ADCRL
  D:00D0H         PUBLIC        PSW
  -------         PROC          ADC_ISR
  C:325EH         LINE#         8
  C:326FH         LINE#         9
  C:326FH         LINE#         11
  C:3271H         LINE#         13
  C:3281H         LINE#         14
  C:329DH         LINE#         15
  C:32ABH         LINE#         17
BL51 BANKED LINKER/LOCATER V6.22                                                      12/15/2017  17:13:45  PAGE 12


  -------         ENDPROC       ADC_ISR
  -------         PROC          MAIN
  -------         DO            
  X:0000H         SYMBOL        ucKeyCode
  -------         DO            
  X:0001H         SYMBOL        i
  X:00BEH         SYMBOL        n
  -------         ENDDO         
  -------         ENDDO         
  C:2F43H         LINE#         19
  C:2F43H         LINE#         21
  C:2F48H         LINE#         24
  C:2F4BH         LINE#         29
  C:2F4EH         LINE#         30
  C:2F51H         LINE#         31
  C:2F54H         LINE#         35
  C:2F54H         LINE#         36
  C:2F5AH         LINE#         37
  C:2F5CH         LINE#         39
  C:2F5FH         LINE#         40
  C:2F5FH         LINE#         41
  C:2F65H         LINE#         42
  C:2F67H         LINE#         44
  C:2F6AH         LINE#         46
  C:2F6DH         LINE#         47
  C:2F6DH         LINE#         48
  C:2F73H         LINE#         49
  C:2F78H         LINE#         52
  C:2F7CH         LINE#         57
  C:2F7FH         LINE#         59
  C:2F82H         LINE#         61
  C:2F88H         LINE#         62
  C:2F8EH         LINE#         63
  C:2F90H         LINE#         67
  C:2F90H         LINE#         68
  C:2F90H         LINE#         69
  C:2F96H         LINE#         71
  C:2F98H         LINE#         73
  C:2F9BH         LINE#         77
  C:2F9BH         LINE#         81
  C:2FA3H         LINE#         82
  C:2FA5H         LINE#         84
  C:2FAAH         LINE#         85
  C:2FAAH         LINE#         87
  -------         ENDPROC       MAIN
  -------         ENDMOD        MAIN

  -------         MODULE        APP_KEY
  C:0000H         SYMBOL        _ICE_DUMMY_
  D:0080H         PUBLIC        P0
  D:0090H         PUBLIC        P1
  D:00A0H         PUBLIC        P2
  D:00B0H         PUBLIC        P3
  D:00D8H         PUBLIC        P5
  D:00A8H         PUBLIC        IE
  D:00B8H         PUBLIC        IP
  C:1463H         PUBLIC        _app_key_pro
BL51 BANKED LINKER/LOCATER V6.22                                                      12/15/2017  17:13:45  PAGE 13


  D:0098H         PUBLIC        SCON
  D:0088H         PUBLIC        TCON
  D:00F8H         PUBLIC        SCON_1
  X:00BFH         SYMBOL        press_long_lock
  D:00E8H         PUBLIC        ADCCON0
  D:00C0H         PUBLIC        I2CON
  D:00C8H         PUBLIC        T2CON
  D:00D0H         PUBLIC        PSW
  -------         PROC          _APP_KEY_PRO
  X:0002H         SYMBOL        keyCode
  -------         DO            
  X:0003H         SYMBOL        index
  X:0004H         SYMBOL        i
  -------         ENDDO         
  C:1463H         LINE#         27
  C:1468H         LINE#         29
  C:146BH         LINE#         30
  C:146DH         LINE#         32
  C:1471H         LINE#         33
  C:147DH         LINE#         34
  C:14E4H         LINE#         35
  C:14E4H         LINE#         36
  C:14EAH         LINE#         37
  C:14F7H         LINE#         38
  C:1501H         LINE#         39
  C:150BH         LINE#         40
  C:1527H         LINE#         41
  C:1537H         LINE#         42
  C:153DH         LINE#         43
  C:153DH         LINE#         44
  C:1542H         LINE#         45
  C:1545H         LINE#         46
  C:1545H         LINE#         48
  C:1545H         LINE#         49
  C:1545H         LINE#         50
  C:154BH         LINE#         51
  C:1558H         LINE#         52
  C:1562H         LINE#         53
  C:156CH         LINE#         54
  C:158BH         LINE#         55
  C:159BH         LINE#         56
  C:15A1H         LINE#         57
  C:15A1H         LINE#         58
  C:15A1H         LINE#         60
  C:15A1H         LINE#         61
  C:15A1H         LINE#         62
  C:15AEH         LINE#         63
  C:15B8H         LINE#         64
  C:15C2H         LINE#         65
  C:15E1H         LINE#         66
  C:15F1H         LINE#         67
  C:15F7H         LINE#         68
  C:15F7H         LINE#         69
  C:15F7H         LINE#         70
  C:1604H         LINE#         71
  C:160EH         LINE#         72
  C:1618H         LINE#         73
BL51 BANKED LINKER/LOCATER V6.22                                                      12/15/2017  17:13:45  PAGE 14


  C:1637H         LINE#         74
  C:1647H         LINE#         75
  C:164DH         LINE#         76
  C:164DH         LINE#         77
  C:164DH         LINE#         79
  C:164DH         LINE#         80
  C:164DH         LINE#         81
  C:165AH         LINE#         82
  C:1664H         LINE#         83
  C:166EH         LINE#         84
  C:168DH         LINE#         85
  C:169DH         LINE#         86
  C:16A3H         LINE#         87
  C:16A3H         LINE#         88
  C:16A3H         LINE#         89
  C:16B0H         LINE#         90
  C:16BAH         LINE#         91
  C:16C4H         LINE#         92
  C:16E3H         LINE#         93
  C:16F3H         LINE#         94
  C:16F9H         LINE#         95
  C:16F9H         LINE#         96
  C:16F9H         LINE#         98
  C:16F9H         LINE#         99
  C:16F9H         LINE#         100
  C:1706H         LINE#         101
  C:1710H         LINE#         102
  C:171AH         LINE#         103
  C:1739H         LINE#         104
  C:1749H         LINE#         105
  C:174FH         LINE#         106
  C:174FH         LINE#         107
  C:174FH         LINE#         108
  C:175CH         LINE#         109
  C:1766H         LINE#         110
  C:1770H         LINE#         111
  C:178FH         LINE#         112
  C:179FH         LINE#         113
  C:17A5H         LINE#         114
  C:17A5H         LINE#         115
  C:17A5H         LINE#         117
  C:17A5H         LINE#         118
  C:17A5H         LINE#         119
  C:17B2H         LINE#         120
  C:17BCH         LINE#         121
  C:17C6H         LINE#         122
  C:17E5H         LINE#         123
  C:17F5H         LINE#         124
  C:17FBH         LINE#         125
  C:17FBH         LINE#         126
  C:17FBH         LINE#         127
  C:1808H         LINE#         128
  C:1812H         LINE#         129
  C:181CH         LINE#         130
  C:183BH         LINE#         131
  C:184BH         LINE#         132
  C:1851H         LINE#         133
BL51 BANKED LINKER/LOCATER V6.22                                                      12/15/2017  17:13:45  PAGE 15


  C:1851H         LINE#         134
  C:1851H         LINE#         136
  C:1851H         LINE#         137
  C:1851H         LINE#         138
  C:185EH         LINE#         139
  C:1868H         LINE#         140
  C:1872H         LINE#         141
  C:187CH         LINE#         142
  C:189BH         LINE#         143
  C:18ABH         LINE#         144
  C:18B1H         LINE#         145
  C:18B1H         LINE#         146
  C:18B1H         LINE#         148
  C:18B1H         LINE#         149
  C:18B1H         LINE#         151
  C:18B1H         LINE#         152
  C:18B1H         LINE#         153
  C:18BEH         LINE#         154
  C:18C8H         LINE#         155
  C:18D2H         LINE#         156
  C:18F1H         LINE#         157
  C:1901H         LINE#         158
  C:1907H         LINE#         159
  C:1907H         LINE#         160
  C:1907H         LINE#         161
  C:1914H         LINE#         162
  C:191EH         LINE#         163
  C:1928H         LINE#         164
  C:1947H         LINE#         165
  C:1957H         LINE#         166
  C:195DH         LINE#         167
  C:195DH         LINE#         168
  C:195DH         LINE#         169
  C:196AH         LINE#         170
  C:1974H         LINE#         171
  C:197EH         LINE#         172
  C:199AH         LINE#         173
  C:19AAH         LINE#         174
  C:19B0H         LINE#         175
  C:19B0H         LINE#         176
  C:19B0H         LINE#         178
  C:19B0H         LINE#         179
  C:19B0H         LINE#         181
  C:19B0H         LINE#         182
  C:19B0H         LINE#         183
  C:19BDH         LINE#         184
  C:19C7H         LINE#         185
  C:19D1H         LINE#         186
  C:19EDH         LINE#         187
  C:19FDH         LINE#         188
  C:1A03H         LINE#         189
  C:1A03H         LINE#         190
  C:1A03H         LINE#         192
  C:1A03H         LINE#         193
  C:1A03H         LINE#         195
  C:1A03H         LINE#         196
  C:1A03H         LINE#         198
BL51 BANKED LINKER/LOCATER V6.22                                                      12/15/2017  17:13:45  PAGE 16


  C:1A03H         LINE#         199
  C:1A03H         LINE#         201
  C:1A03H         LINE#         202
  C:1A03H         LINE#         204
  C:1A03H         LINE#         205
  C:1A03H         LINE#         207
  C:1A03H         LINE#         208
  C:1A03H         LINE#         209
  C:1A09H         LINE#         210
  C:1A0BH         LINE#         211
  C:1A16H         LINE#         212
  C:1A16H         LINE#         214
  -------         ENDPROC       _APP_KEY_PRO
  -------         ENDMOD        APP_KEY

  -------         MODULE        APP_WORK
  C:0000H         SYMBOL        _ICE_DUMMY_
  D:0080H         PUBLIC        P0
  D:0090H         PUBLIC        P1
  D:00A0H         PUBLIC        P2
  D:00B0H         PUBLIC        P3
  D:00D8H         PUBLIC        P5
  D:00A8H         PUBLIC        IE
  D:00B8H         PUBLIC        IP
  C:3D44H         SYMBOL        app_work_pro
  X:00BCH         SYMBOL        flag
  C:35AEH         PUBLIC        app_work_1s_pro
  D:0098H         PUBLIC        SCON
  D:0088H         PUBLIC        TCON
  D:00F8H         PUBLIC        SCON_1
  X:00BDH         SYMBOL        cnt
  D:00E8H         PUBLIC        ADCCON0
  D:00C0H         PUBLIC        I2CON
  C:39F8H         PUBLIC        app_work_Init
  I:000FH         PUBLIC        g_tWork
  D:00C8H         PUBLIC        T2CON
  C:3D43H         PUBLIC        app_work_100ms_pro
  C:0003H         PUBLIC        app_work_cnt_clear
  D:00D0H         PUBLIC        PSW
  -------         PROC          APP_WORK_INIT
  C:39F8H         LINE#         17
  C:39F8H         LINE#         18
  C:39FDH         LINE#         19
  C:3A01H         LINE#         20
  C:3A0DH         LINE#         21
  -------         ENDPROC       APP_WORK_INIT
  -------         PROC          APP_WORK_1S_PRO
  C:35AEH         LINE#         24
  C:35AEH         LINE#         28
  C:35B4H         LINE#         29
  C:35C0H         LINE#         30
  C:35C2H         LINE#         31
  C:35C7H         LINE#         32
  C:35CAH         LINE#         33
  C:35CDH         LINE#         34
  C:35D0H         LINE#         35
  C:35D9H         LINE#         36
BL51 BANKED LINKER/LOCATER V6.22                                                      12/15/2017  17:13:45  PAGE 17


  C:35E9H         LINE#         37
  C:35E9H         LINE#         38
  -------         ENDPROC       APP_WORK_1S_PRO
  -------         PROC          APP_WORK_100MS_PRO
  C:3D43H         LINE#         39
  C:3D43H         LINE#         41
  -------         ENDPROC       APP_WORK_100MS_PRO
  -------         PROC          APP_WORK_CNT_CLEAR
  C:0003H         LINE#         42
  C:0003H         LINE#         43
  C:0008H         LINE#         44
  C:000AH         LINE#         45
  -------         ENDPROC       APP_WORK_CNT_CLEAR
  -------         PROC          APP_WORK_PRO
  C:3D44H         LINE#         46
  C:3D44H         LINE#         48
  -------         ENDPROC       APP_WORK_PRO
  -------         ENDMOD        APP_WORK

  -------         MODULE        APP_REPEAT_EXE
  C:0000H         SYMBOL        _ICE_DUMMY_
  D:0080H         PUBLIC        P0
  D:0090H         PUBLIC        P1
  D:00A0H         PUBLIC        P2
  D:00B0H         PUBLIC        P3
  C:3BE2H         PUBLIC        _Repeat_SetStart
  D:00D8H         PUBLIC        P5
  D:00A8H         PUBLIC        IE
  C:0051H         PUBLIC        app_repeat_IsEnable
  C:3AE8H         SYMBOL        Repeat_Stop_exe
  D:00B8H         PUBLIC        IP
  C:3BEEH         PUBLIC        _Repeat_SetStop
  X:0056H         SYMBOL        g_tRepeat
  D:0098H         PUBLIC        SCON
  D:0088H         PUBLIC        TCON
  D:00F8H         PUBLIC        SCON_1
  C:3686H         PUBLIC        _Repeat_Start
  D:00E8H         PUBLIC        ADCCON0
  D:00C0H         PUBLIC        I2CON
  D:00C8H         PUBLIC        T2CON
  C:3A51H         PUBLIC        Repeat_Stop
  C:2B53H         PUBLIC        Repeat_Pro
  C:3AD8H         SYMBOL        Repeat_Start_exe
  D:00D0H         PUBLIC        PSW
  -------         PROC          _REPEAT_SETSTART
  D:0001H         SYMBOL        fun
  C:3BE2H         LINE#         12
  C:3BE2H         LINE#         13
  C:3BEDH         LINE#         14
  -------         ENDPROC       _REPEAT_SETSTART
  -------         PROC          _REPEAT_SETSTOP
  D:0001H         SYMBOL        fun
  C:3BEEH         LINE#         16
  C:3BEEH         LINE#         17
  C:3BF9H         LINE#         18
  -------         ENDPROC       _REPEAT_SETSTOP
  -------         PROC          REPEAT_START_EXE
BL51 BANKED LINKER/LOCATER V6.22                                                      12/15/2017  17:13:45  PAGE 18


  C:3AD8H         LINE#         20
  C:3AD8H         LINE#         21
  C:3AE4H         LINE#         22
  C:3AE7H         LINE#         23
  C:3AE7H         LINE#         24
  -------         ENDPROC       REPEAT_START_EXE
  -------         PROC          REPEAT_STOP_EXE
  C:3AE8H         LINE#         26
  C:3AE8H         LINE#         27
  C:3AF4H         LINE#         28
  C:3AF7H         LINE#         29
  C:3AF7H         LINE#         30
  -------         ENDPROC       REPEAT_STOP_EXE
  -------         PROC          _REPEAT_START
  D:0006H         SYMBOL        _usStartTime
  D:0004H         SYMBOL        _usStopTime
  D:0002H         SYMBOL        _usCycle
  C:3686H         LINE#         42
  C:3686H         LINE#         43
  C:3686H         LINE#         44
  C:368AH         LINE#         46
  C:368AH         LINE#         48
  C:3692H         LINE#         49
  C:369AH         LINE#         50
  C:36A2H         LINE#         51
  C:36A7H         LINE#         52
  C:36ABH         LINE#         53
  C:36AFH         LINE#         54
  C:36B4H         LINE#         56
  C:36B7H         LINE#         57
  -------         ENDPROC       _REPEAT_START
  -------         PROC          REPEAT_STOP
  C:3A51H         LINE#         67
  C:3A51H         LINE#         68
  C:3A56H         LINE#         69
  C:3A59H         LINE#         70
  C:3A62H         LINE#         71
  -------         ENDPROC       REPEAT_STOP
  -------         PROC          APP_REPEAT_ISENABLE
  C:0051H         LINE#         75
  C:0051H         LINE#         76
  C:0057H         LINE#         77
  C:0059H         LINE#         78
  C:0059H         LINE#         79
  C:005AH         LINE#         80
  -------         ENDPROC       APP_REPEAT_ISENABLE
  -------         PROC          REPEAT_PRO
  C:2B53H         LINE#         90
  C:2B53H         LINE#         92
  C:2B6AH         LINE#         94
  C:2B6AH         LINE#         96
  C:2B70H         LINE#         97
  C:2B7CH         LINE#         98
  C:2B7CH         LINE#         99
  C:2B95H         LINE#         100
  C:2B98H         LINE#         101
  C:2B9FH         LINE#         102
BL51 BANKED LINKER/LOCATER V6.22                                                      12/15/2017  17:13:45  PAGE 19


  C:2BA4H         LINE#         103
  C:2BA4H         LINE#         104
  C:2BA5H         LINE#         106
  C:2BA5H         LINE#         107
  C:2BADH         LINE#         108
  C:2BC5H         LINE#         110
  C:2BD4H         LINE#         111
  C:2BE7H         LINE#         113
  C:2BECH         LINE#         114
  C:2BECH         LINE#         116
  C:2BF2H         LINE#         117
  C:2BF9H         LINE#         119
  C:2BF9H         LINE#         120
  C:2BF9H         LINE#         121
  C:2C00H         LINE#         122
  C:2C04H         LINE#         124
  C:2C07H         LINE#         125
  C:2C07H         LINE#         126
  C:2C07H         LINE#         128
  -------         ENDPROC       REPEAT_PRO
  -------         ENDMOD        APP_REPEAT_EXE

  -------         MODULE        APP_2D4
  C:0000H         SYMBOL        _ICE_DUMMY_
  D:0080H         PUBLIC        P0
  D:0090H         PUBLIC        P1
  D:00A0H         PUBLIC        P2
  D:00B0H         PUBLIC        P3
  C:3804H         PUBLIC        app_2d4_init
  D:00D8H         PUBLIC        P5
  C:3B25H         SYMBOL        BT_prev_show_lcd_resp
  D:00A8H         PUBLIC        IE
  C:3B43H         SYMBOL        LED_clear_blink_name_show_lcd_resp
  C:3B16H         SYMBOL        BT_next_show_lcd_resp
  C:3A10H         SYMBOL        speaker_status_resp
  D:00B8H         PUBLIC        IP
  C:2D44H         PUBLIC        app_2d4_pro
  D:0098H         PUBLIC        SCON
  D:0088H         PUBLIC        TCON
  C:36B8H         SYMBOL        USB_track_show_lcd_resp
  C:3AF8H         SYMBOL        clear_lcd_resp
  C:3B07H         SYMBOL        USB_pause_show_lcd_resp
  C:28C4H         SYMBOL        _?ix1000
  D:00F8H         PUBLIC        SCON_1
  C:3A26H         SYMBOL        relay_status_resp
  C:3B34H         SYMBOL        LED_show_blink_name_show_lcd_resp
  I:009DH         PUBLIC        sendBuf
  C:3620H         SYMBOL        FM_station_show_lcd_resp
  I:00ADH         SYMBOL        sendRcv_flag
  D:00E8H         PUBLIC        ADCCON0
  D:00C0H         PUBLIC        I2CON
  C:3C2DH         SYMBOL        AUX_mute_show_lcd_resp
  D:00C8H         PUBLIC        T2CON
  I:00AEH         SYMBOL        rcvBuf
  C:3C24H         SYMBOL        BT_pause_show_lcd_resp
  C:000EH         SYMBOL        vol_resp
  X:0079H         SYMBOL        tmpBuf
BL51 BANKED LINKER/LOCATER V6.22                                                      12/15/2017  17:13:45  PAGE 20


  C:005EH         SYMBOL        _app_2d4_Rcv
  C:341AH         PUBLIC        _app_2d4_send
  D:00D0H         PUBLIC        PSW
  -------         PROC          APP_2D4_INIT
  C:3804H         LINE#         23
  C:3804H         LINE#         25
  C:3808H         LINE#         26
  C:3814H         LINE#         27
  C:3823H         LINE#         29
  C:3826H         LINE#         30
  -------         ENDPROC       APP_2D4_INIT
  -------         PROC          _APP_2D4_SEND
  X:0005H         SYMBOL        d
  X:0008H         SYMBOL        len
  C:341AH         LINE#         35
  C:3428H         LINE#         37
  C:342DH         LINE#         39
  C:342DH         LINE#         41
  C:3430H         LINE#         42
  C:3434H         LINE#         44
  C:344FH         LINE#         45
  C:346AH         LINE#         46
  C:346AH         LINE#         48
  -------         ENDPROC       _APP_2D4_SEND
  -------         PROC          SPEAKER_STATUS_RESP
  C:3A10H         LINE#         49
  C:3A10H         LINE#         50
  C:3A18H         LINE#         51
  C:3A1CH         LINE#         52
  C:3A1EH         LINE#         53
  C:3A25H         LINE#         54
  C:3A25H         LINE#         55
  -------         ENDPROC       SPEAKER_STATUS_RESP
  -------         PROC          RELAY_STATUS_RESP
  C:3A26H         LINE#         56
  C:3A26H         LINE#         57
  C:3A2EH         LINE#         58
  C:3A32H         LINE#         59
  C:3A34H         LINE#         60
  C:3A3BH         LINE#         61
  C:3A3BH         LINE#         63
  -------         ENDPROC       RELAY_STATUS_RESP
  -------         PROC          VOL_RESP
  -------         DO            
  X:000BH         SYMBOL        str
  -------         ENDDO         
  C:000EH         LINE#         64
  C:000EH         LINE#         65
  C:0021H         LINE#         68
  C:0024H         LINE#         69
  C:0027H         LINE#         71
  C:0048H         LINE#         72
  -------         ENDPROC       VOL_RESP
  -------         PROC          CLEAR_LCD_RESP
  C:3AF8H         LINE#         75
  C:3AF8H         LINE#         76
  C:3B01H         LINE#         78
BL51 BANKED LINKER/LOCATER V6.22                                                      12/15/2017  17:13:45  PAGE 21


  C:3B04H         LINE#         79
  -------         ENDPROC       CLEAR_LCD_RESP
  -------         PROC          BT_PAUSE_SHOW_LCD_RESP
  C:3C24H         LINE#         81
  C:3C24H         LINE#         82
  -------         ENDPROC       BT_PAUSE_SHOW_LCD_RESP
  -------         PROC          AUX_MUTE_SHOW_LCD_RESP
  C:3C2DH         LINE#         102
  C:3C2DH         LINE#         103
  -------         ENDPROC       AUX_MUTE_SHOW_LCD_RESP
  -------         PROC          USB_PAUSE_SHOW_LCD_RESP
  C:3B07H         LINE#         106
  C:3B07H         LINE#         107
  C:3B10H         LINE#         108
  C:3B13H         LINE#         109
  -------         ENDPROC       USB_PAUSE_SHOW_LCD_RESP
  -------         PROC          BT_NEXT_SHOW_LCD_RESP
  C:3B16H         LINE#         118
  C:3B16H         LINE#         119
  C:3B1FH         LINE#         120
  C:3B22H         LINE#         121
  -------         ENDPROC       BT_NEXT_SHOW_LCD_RESP
  -------         PROC          BT_PREV_SHOW_LCD_RESP
  C:3B25H         LINE#         123
  C:3B25H         LINE#         124
  C:3B2EH         LINE#         125
  C:3B31H         LINE#         126
  -------         ENDPROC       BT_PREV_SHOW_LCD_RESP
  -------         PROC          FM_STATION_SHOW_LCD_RESP
  C:3620H         LINE#         128
  C:3620H         LINE#         129
  C:3641H         LINE#         130
  C:364AH         LINE#         131
  C:364DH         LINE#         132
  C:3650H         LINE#         133
  -------         ENDPROC       FM_STATION_SHOW_LCD_RESP
  -------         PROC          USB_TRACK_SHOW_LCD_RESP
  C:36B8H         LINE#         135
  C:36B8H         LINE#         136
  C:36DBH         LINE#         137
  C:36E4H         LINE#         138
  C:36E7H         LINE#         139
  -------         ENDPROC       USB_TRACK_SHOW_LCD_RESP
  -------         PROC          LED_SHOW_BLINK_NAME_SHOW_LCD_RESP
  C:3B34H         LINE#         141
  C:3B34H         LINE#         143
  C:3B3DH         LINE#         145
  C:3B40H         LINE#         146
  -------         ENDPROC       LED_SHOW_BLINK_NAME_SHOW_LCD_RESP
  -------         PROC          LED_CLEAR_BLINK_NAME_SHOW_LCD_RESP
  C:3B43H         LINE#         148
  C:3B43H         LINE#         150
  C:3B4CH         LINE#         151
  C:3B4FH         LINE#         152
  -------         ENDPROC       LED_CLEAR_BLINK_NAME_SHOW_LCD_RESP
  -------         PROC          _APP_2D4_RCV
  X:0003H         SYMBOL        buf
BL51 BANKED LINKER/LOCATER V6.22                                                      12/15/2017  17:13:45  PAGE 22


  -------         DO            
  X:0006H         SYMBOL        i
  X:0007H         SYMBOL        index
  X:0008H         SYMBOL        check
  -------         DO            
  X:0009H         SYMBOL        led_mode_msg
  -------         ENDDO         
  -------         DO            
  B:0021H.1       SYMBOL        aux_pause_lock
  -------         ENDDO         
  -------         ENDDO         
  C:005EH         LINE#         157
  C:0069H         LINE#         158
  C:006CH         LINE#         159
  C:006EH         LINE#         160
  C:0070H         LINE#         162
  C:007AH         LINE#         164
  C:007AH         LINE#         166
  C:0093H         LINE#         168
  C:0093H         LINE#         169
  C:00BFH         LINE#         170
  C:00D4H         LINE#         171
  C:00DCH         LINE#         172
  C:0102H         LINE#         174
  C:0102H         LINE#         180
  C:0111H         LINE#         181
  C:0116H         LINE#         182
  C:0119H         LINE#         184
  C:015BH         LINE#         185
  C:015BH         LINE#         187
  C:016AH         LINE#         189
  C:016DH         LINE#         191
  C:0170H         LINE#         192
  C:0173H         LINE#         193
  C:0176H         LINE#         194
  C:0179H         LINE#         195
  C:017CH         LINE#         196
  C:019BH         LINE#         197
  C:019BH         LINE#         198
  C:019EH         LINE#         199
  C:01A0H         LINE#         200
  C:01A0H         LINE#         201
  C:01A3H         LINE#         202
  C:01A5H         LINE#         203
  C:01A5H         LINE#         204
  C:01A8H         LINE#         205
  C:01AAH         LINE#         206
  C:01AAH         LINE#         207
  C:01ADH         LINE#         208
  C:01ADH         LINE#         209
  C:01ADH         LINE#         210
  C:01ADH         LINE#         211
  C:01ADH         LINE#         212
  C:01ADH         LINE#         213
  C:01ADH         LINE#         215
  C:01BCH         LINE#         216
  C:01D9H         LINE#         217
BL51 BANKED LINKER/LOCATER V6.22                                                      12/15/2017  17:13:45  PAGE 23


  C:01F2H         LINE#         219
  C:0207H         LINE#         220
  C:020CH         LINE#         221
  C:0215H         LINE#         222
  C:021EH         LINE#         223
  C:0226H         LINE#         224
  C:0226H         LINE#         225
  C:0226H         LINE#         226
  C:0229H         LINE#         227
  C:0231H         LINE#         228
  C:0231H         LINE#         229
  C:0231H         LINE#         230
  C:0231H         LINE#         232
  C:0231H         LINE#         233
  C:0234H         LINE#         234
  C:0234H         LINE#         235
  C:0237H         LINE#         237
  C:023AH         LINE#         238
  C:023DH         LINE#         240
  C:0240H         LINE#         241
  C:0243H         LINE#         242
  C:0246H         LINE#         243
  C:0249H         LINE#         244
  C:024CH         LINE#         246
  C:0261H         LINE#         247
  C:0267H         LINE#         248
  C:0270H         LINE#         249
  C:0279H         LINE#         250
  C:0283H         LINE#         251
  C:029EH         LINE#         252
  C:02A4H         LINE#         253
  C:02ADH         LINE#         254
  C:02B6H         LINE#         255
  C:02BEH         LINE#         256
  C:02BEH         LINE#         257
  C:02C1H         LINE#         258
  C:02C1H         LINE#         279
  C:02C1H         LINE#         280
  C:02C1H         LINE#         281
  C:02DFH         LINE#         282
  C:02DFH         LINE#         284
  C:02E6H         LINE#         285
  C:02E9H         LINE#         286
  C:02EDH         LINE#         287
  C:02EDH         LINE#         288
  C:02F0H         LINE#         289
  C:02F3H         LINE#         290
  C:02F6H         LINE#         291
  C:02F9H         LINE#         293
  C:02FCH         LINE#         294
  C:0310H         LINE#         295
  C:031DH         LINE#         296
  C:0333H         LINE#         297
  C:0340H         LINE#         298
  C:0356H         LINE#         299
  C:0363H         LINE#         300
  C:0379H         LINE#         301
BL51 BANKED LINKER/LOCATER V6.22                                                      12/15/2017  17:13:45  PAGE 24


  C:0390H         LINE#         302
  C:0390H         LINE#         303
  C:0390H         LINE#         304
  C:0393H         LINE#         305
  C:0393H         LINE#         306
  C:0396H         LINE#         307
  C:0399H         LINE#         310
  C:03D9H         LINE#         314
  C:03DCH         LINE#         315
  C:03DCH         LINE#         317
  C:03DCH         LINE#         318
  C:03DCH         LINE#         320
  C:03DCH         LINE#         321
  C:03DCH         LINE#         323
  C:03DCH         LINE#         324
  C:03DCH         LINE#         325
  C:03DCH         LINE#         326
  C:03DCH         LINE#         327
  C:03DCH         LINE#         328
  C:03DCH         LINE#         329
  C:040AH         LINE#         330
  C:040AH         LINE#         331
  C:0413H         LINE#         332
  C:0413H         LINE#         338
  C:042EH         LINE#         339
  C:0437H         LINE#         340
  C:0440H         LINE#         341
  C:0448H         LINE#         342
  C:0448H         LINE#         343
  C:044BH         LINE#         344
  C:044BH         LINE#         345
  C:0460H         LINE#         346
  C:046DH         LINE#         347
  C:046DH         LINE#         348
  C:0482H         LINE#         352
  C:0482H         LINE#         353
  C:0485H         LINE#         354
  C:0485H         LINE#         355
  C:0485H         LINE#         357
  C:0488H         LINE#         358
  C:048BH         LINE#         360
  C:048EH         LINE#         361
  C:0491H         LINE#         362
  C:0494H         LINE#         363
  C:0497H         LINE#         364
  C:049AH         LINE#         366
  C:049DH         LINE#         367
  C:04B2H         LINE#         368
  C:04B5H         LINE#         369
  C:04B8H         LINE#         370
  C:04BAH         LINE#         371
  C:04BAH         LINE#         372
  C:04D1H         LINE#         373
  C:04D1H         LINE#         374
  C:04ECH         LINE#         375
  C:04EEH         LINE#         376
  C:04F7H         LINE#         377
BL51 BANKED LINKER/LOCATER V6.22                                                      12/15/2017  17:13:45  PAGE 25


  C:0500H         LINE#         378
  C:0508H         LINE#         379
  C:0508H         LINE#         380
  C:0508H         LINE#         381
  C:050BH         LINE#         382
  C:050BH         LINE#         383
  C:051FH         LINE#         384
  C:0522H         LINE#         388
  C:053DH         LINE#         389
  C:0546H         LINE#         390
  C:054FH         LINE#         391
  C:0557H         LINE#         392
  C:0557H         LINE#         393
  C:055AH         LINE#         394
  C:055AH         LINE#         395
  C:056FH         LINE#         396
  C:0583H         LINE#         397
  C:058CH         LINE#         398
  C:0595H         LINE#         399
  C:059DH         LINE#         401
  C:05A0H         LINE#         402
  C:05A0H         LINE#         406
  C:05A0H         LINE#         407
  C:05A3H         LINE#         408
  C:05A3H         LINE#         409
  C:05A3H         LINE#         410
  C:05A3H         LINE#         411
  C:05A3H         LINE#         412
  C:05A3H         LINE#         413
  C:05CCH         LINE#         414
  C:05CCH         LINE#         415
  C:05D5H         LINE#         416
  C:05DEH         LINE#         417
  C:05E7H         LINE#         418
  C:05F1H         LINE#         419
  C:060CH         LINE#         420
  C:0615H         LINE#         421
  C:061EH         LINE#         422
  C:0628H         LINE#         423
  C:0628H         LINE#         424
  C:062BH         LINE#         425
  C:062BH         LINE#         426
  C:062EH         LINE#         427
  C:0642H         LINE#         428
  C:064BH         LINE#         429
  C:0654H         LINE#         430
  C:065EH         LINE#         431
  C:0661H         LINE#         432
  C:0661H         LINE#         433
  C:0661H         LINE#         434
  C:0661H         LINE#         435
  C:0678H         LINE#         436
  C:0685H         LINE#         437
  C:068EH         LINE#         438
  C:0697H         LINE#         439
  C:06A1H         LINE#         441
  C:06A4H         LINE#         442
BL51 BANKED LINKER/LOCATER V6.22                                                      12/15/2017  17:13:45  PAGE 26


  C:06A4H         LINE#         443
  C:06B0H         LINE#         444
  C:06B3H         LINE#         445
  C:06B3H         LINE#         446
  C:06B3H         LINE#         447
  C:06B3H         LINE#         448
  C:06B3H         LINE#         449
  C:06B3H         LINE#         450
  C:06B3H         LINE#         451
  C:06B3H         LINE#         452
  C:06BAH         LINE#         453
  C:06BDH         LINE#         454
  C:06C1H         LINE#         455
  C:06C1H         LINE#         456
  C:06C4H         LINE#         457
  C:06C7H         LINE#         458
  C:06CAH         LINE#         459
  C:06CDH         LINE#         461
  C:06D0H         LINE#         462
  C:06ECH         LINE#         463
  C:06F5H         LINE#         464
  C:06F7H         LINE#         466
  C:0732H         LINE#         467
  C:0732H         LINE#         468
  C:0748H         LINE#         469
  C:074BH         LINE#         470
  C:074BH         LINE#         471
  C:0752H         LINE#         472
  C:0755H         LINE#         473
  C:0759H         LINE#         474
  C:0759H         LINE#         476
  C:075CH         LINE#         477
  C:075FH         LINE#         478
  C:0762H         LINE#         479
  C:0765H         LINE#         481
  C:0768H         LINE#         482
  C:076BH         LINE#         484
  C:0782H         LINE#         485
  C:0790H         LINE#         486
  C:07AEH         LINE#         487
  C:07B7H         LINE#         488
  C:07B9H         LINE#         489
  C:07F4H         LINE#         490
  C:07F4H         LINE#         491
  C:080AH         LINE#         492
  C:080DH         LINE#         493
  C:080DH         LINE#         494
  C:0823H         LINE#         495
  C:082CH         LINE#         496
  C:0835H         LINE#         497
  C:083FH         LINE#         498
  C:0842H         LINE#         500
  C:0842H         LINE#         501
  C:0857H         LINE#         502
  C:086BH         LINE#         503
  C:0874H         LINE#         504
  C:087DH         LINE#         505
BL51 BANKED LINKER/LOCATER V6.22                                                      12/15/2017  17:13:45  PAGE 27


  C:0885H         LINE#         506
  C:0888H         LINE#         507
  C:08A2H         LINE#         508
  C:08ABH         LINE#         509
  C:08B4H         LINE#         510
  C:08BEH         LINE#         511
  C:08BEH         LINE#         512
  C:08C1H         LINE#         513
  C:08C1H         LINE#         514
  C:08C4H         LINE#         515
  C:08C7H         LINE#         516
  C:08DDH         LINE#         517
  C:08E1H         LINE#         518
  C:08E3H         LINE#         519
  C:08E7H         LINE#         520
  C:08E7H         LINE#         521
  C:08F0H         LINE#         522
  C:08F9H         LINE#         523
  C:0903H         LINE#         524
  C:0906H         LINE#         525
  C:0906H         LINE#         538
  C:091EH         LINE#         539
  C:0921H         LINE#         540
  C:0936H         LINE#         541
  C:094AH         LINE#         542
  C:0959H         LINE#         543
  C:0966H         LINE#         544
  C:0976H         LINE#         545
  C:0976H         LINE#         546
  C:097EH         LINE#         547
  C:0987H         LINE#         548
  C:0990H         LINE#         549
  C:0999H         LINE#         550
  C:099CH         LINE#         552
  C:09B3H         LINE#         557
  C:09B3H         LINE#         558
  C:09B6H         LINE#         559
  C:09B9H         LINE#         560
  C:09B9H         LINE#         561
  C:09BCH         LINE#         562
  C:09BCH         LINE#         563
  C:09D9H         LINE#         564
  C:09F3H         LINE#         565
  C:09FCH         LINE#         566
  C:0A05H         LINE#         567
  C:0A11H         LINE#         568
  C:0A13H         LINE#         569
  C:0A13H         LINE#         570
  C:0A30H         LINE#         571
  C:0A4AH         LINE#         572
  C:0A53H         LINE#         573
  C:0A5CH         LINE#         574
  C:0A6BH         LINE#         575
  C:0A6EH         LINE#         576
  C:0A6EH         LINE#         577
  C:0A71H         LINE#         578
  C:0A74H         LINE#         579
BL51 BANKED LINKER/LOCATER V6.22                                                      12/15/2017  17:13:45  PAGE 28


  C:0A77H         LINE#         580
  C:0A7AH         LINE#         581
  C:0A7DH         LINE#         582
  C:0A80H         LINE#         583
  C:0A83H         LINE#         585
  C:0A9FH         LINE#         586
  C:0A9FH         LINE#         587
  C:0AA2H         LINE#         588
  C:0AB6H         LINE#         589
  C:0AC2H         LINE#         590
  C:0AD8H         LINE#         591
  C:0AE7H         LINE#         592
  C:0AE7H         LINE#         593
  C:0AFDH         LINE#         594
  C:0AFFH         LINE#         595
  C:0AFFH         LINE#         597
  C:0AFFH         LINE#         598
  C:0AFFH         LINE#         599
  C:0B02H         LINE#         600
  C:0B16H         LINE#         601
  C:0B22H         LINE#         602
  C:0B38H         LINE#         603
  C:0B47H         LINE#         604
  C:0B47H         LINE#         605
  C:0B60H         LINE#         606
  C:0B60H         LINE#         607
  C:0B60H         LINE#         609
  C:0B60H         LINE#         610
  C:0B60H         LINE#         611
  C:0B60H         LINE#         612
  C:0B60H         LINE#         614
  C:0B66H         LINE#         615
  C:0B68H         LINE#         617
  C:0B68H         LINE#         619
  -------         ENDPROC       _APP_2D4_RCV
  -------         PROC          APP_2D4_PRO
  -------         DO            
  X:0002H         SYMBOL        i
  -------         ENDDO         
  C:2D44H         LINE#         621
  C:2D44H         LINE#         622
  C:2D49H         LINE#         623
  C:2D4EH         LINE#         624
  C:2D5EH         LINE#         625
  C:2D5EH         LINE#         627
  C:2D61H         LINE#         628
  C:2D64H         LINE#         630
  C:2D68H         LINE#         632
  C:2D6CH         LINE#         633
  C:2D6DH         LINE#         634
  C:2D6EH         LINE#         635
  C:2D78H         LINE#         637
  C:2D7BH         LINE#         639
  C:2D80H         LINE#         640
  C:2D81H         LINE#         641
  C:2D82H         LINE#         642
  C:2D8DH         LINE#         645
BL51 BANKED LINKER/LOCATER V6.22                                                      12/15/2017  17:13:45  PAGE 29


  C:2D8DH         LINE#         646
  C:2D8DH         LINE#         648
  C:2D8DH         LINE#         649
  C:2D8DH         LINE#         650
  C:2D8FH         LINE#         651
  C:2D8FH         LINE#         653
  C:2D92H         LINE#         654
  C:2D95H         LINE#         655
  C:2D95H         LINE#         656
  C:2D95H         LINE#         658
  C:2D9AH         LINE#         659
  C:2D9BH         LINE#         660
  C:2D9CH         LINE#         661
  C:2DA6H         LINE#         663
  C:2DB1H         LINE#         665
  C:2DB1H         LINE#         666
  C:2DB1H         LINE#         668
  C:2DB1H         LINE#         669
  C:2DBFH         LINE#         671
  C:2DC8H         LINE#         672
  C:2DC8H         LINE#         674
  C:2DC8H         LINE#         676
  -------         ENDPROC       APP_2D4_PRO
  -------         ENDMOD        APP_2D4

  -------         MODULE        APP_LCD
  C:0000H         SYMBOL        _ICE_DUMMY_
  D:0080H         PUBLIC        P0
  D:0090H         PUBLIC        P1
  D:00A0H         PUBLIC        P2
  D:00B0H         PUBLIC        P3
  D:00D8H         PUBLIC        P5
  C:34F1H         PUBLIC        app_lcd_pro
  D:00A8H         PUBLIC        IE
  D:00B8H         PUBLIC        IP
  D:0098H         PUBLIC        SCON
  D:0088H         PUBLIC        TCON
  X:0068H         SYMBOL        dotn
  D:00F8H         PUBLIC        SCON_1
  C:33C7H         PUBLIC        _app_lcd_default_string_set
  D:00E8H         PUBLIC        ADCCON0
  D:00C0H         PUBLIC        I2CON
  D:00C8H         PUBLIC        T2CON
  C:3A65H         PUBLIC        app_lcd_init
  X:0069H         SYMBOL        lcd_default_string
  D:00D0H         PUBLIC        PSW
  -------         PROC          APP_LCD_INIT
  C:3A65H         LINE#         13
  C:3A65H         LINE#         14
  C:3A6AH         LINE#         15
  -------         ENDPROC       APP_LCD_INIT
  -------         PROC          _APP_LCD_DEFAULT_STRING_SET
  X:000BH         SYMBOL        s
  X:000EH         SYMBOL        len
  X:000FH         SYMBOL        _dotn
  C:33C7H         LINE#         17
  C:33D5H         LINE#         18
BL51 BANKED LINKER/LOCATER V6.22                                                      12/15/2017  17:13:45  PAGE 30


  C:33FBH         LINE#         19
  C:3405H         LINE#         20
  C:3411H         LINE#         21
  C:3411H         LINE#         22
  C:3419H         LINE#         23
  -------         ENDPROC       _APP_LCD_DEFAULT_STRING_SET
  -------         PROC          APP_LCD_PRO
  C:34F1H         LINE#         25
  C:34F1H         LINE#         27
  C:34F6H         LINE#         28
  C:34FFH         LINE#         29
  C:3505H         LINE#         30
  C:3508H         LINE#         31
  C:350BH         LINE#         32
  C:3512H         LINE#         33
  C:3515H         LINE#         34
  C:3515H         LINE#         35
  C:351EH         LINE#         36
  C:3521H         LINE#         37
  C:3524H         LINE#         39
  C:352BH         LINE#         40
  C:352EH         LINE#         41
  C:3531H         LINE#         42
  C:3531H         LINE#         43
  C:3531H         LINE#         45
  -------         ENDPROC       APP_LCD_PRO
  -------         ENDMOD        APP_LCD

  -------         MODULE        BSP
  C:0000H         SYMBOL        _ICE_DUMMY_
  D:0080H         PUBLIC        P0
  D:0090H         PUBLIC        P1
  D:00A0H         PUBLIC        P2
  D:00B0H         PUBLIC        P3
  D:00D8H         PUBLIC        P5
  B:00A8H.7       PUBLIC        EA
  D:00A8H         PUBLIC        IE
  D:00B8H         PUBLIC        IP
  B:0021H.2       PUBLIC        BIT_TMP
  D:0098H         PUBLIC        SCON
  D:0088H         PUBLIC        TCON
  C:3974H         PUBLIC        bsp_Init
  D:00F8H         PUBLIC        SCON_1
  D:00E8H         PUBLIC        ADCCON0
  D:00C0H         PUBLIC        I2CON
  D:00C8H         PUBLIC        T2CON
  D:00D0H         PUBLIC        PSW
  -------         PROC          BSP_INIT
  C:3974H         LINE#         5
  C:3974H         LINE#         10
  C:3977H         LINE#         12
  C:397AH         LINE#         14
  C:397DH         LINE#         15
  C:3980H         LINE#         16
  C:3983H         LINE#         19
  C:3986H         LINE#         21
  C:3989H         LINE#         23
BL51 BANKED LINKER/LOCATER V6.22                                                      12/15/2017  17:13:45  PAGE 31


  C:398CH         LINE#         25
  C:398EH         LINE#         26
  -------         ENDPROC       BSP_INIT
  -------         ENDMOD        BSP

  -------         MODULE        BSP_KEY
  C:0000H         SYMBOL        _ICE_DUMMY_
  D:00B1H         PUBLIC        P0M1
  D:00B2H         PUBLIC        P0M2
  D:0080H         PUBLIC        P0
  D:0090H         PUBLIC        P1
  D:00A0H         PUBLIC        P2
  C:301DH         SYMBOL        _IsKeyDown
  D:00B0H         PUBLIC        P3
  D:00D8H         PUBLIC        P5
  C:3A79H         PUBLIC        _bsp_PutKey
  D:00A8H         PUBLIC        IE
  C:2A9BH         SYMBOL        bsp_InitKeyVar
  X:0094H         PUBLIC        pBtn
  D:00B8H         PUBLIC        IP
  C:3AC6H         SYMBOL        IsKeyDown_1AND6
  C:3958H         PUBLIC        bsp_GetKey2
  C:2305H         SYMBOL        _bsp_DetectKey
  B:0080H.2       PUBLIC        P02
  C:3C3FH         SYMBOL        IsKeyDown1
  D:0098H         PUBLIC        SCON
  C:3B52H         SYMBOL        IsKeyDown2
  D:0088H         PUBLIC        TCON
  C:3D06H         SYMBOL        IsKeyDown3
  C:3D0CH         SYMBOL        IsKeyDown4
  C:3BACH         SYMBOL        IsKeyDown5
  C:3B61H         SYMBOL        IsKeyDown6
  C:3B70H         SYMBOL        IsKeyDown7
  C:3B7FH         SYMBOL        IsKeyDown8
  C:3B8EH         SYMBOL        IsKeyDown9
  C:3D18H         PUBLIC        bsp_ClearKey
  X:0097H         PUBLIC        min
  D:00F8H         PUBLIC        SCON_1
  X:0099H         PUBLIC        max
  C:398FH         PUBLIC        bsp_KeyScan
  D:00E8H         PUBLIC        ADCCON0
  D:00C0H         PUBLIC        I2CON
  D:00C8H         PUBLIC        T2CON
  C:3D12H         PUBLIC        bsp_InitKey
  C:3C7AH         SYMBOL        bsp_InitKeyHard
  I:0022H         SYMBOL        s_tBtn
  I:0090H         SYMBOL        s_tKey
  C:393CH         PUBLIC        bsp_GetKey
  C:384EH         PUBLIC        _bsp_SetKeyParam
  C:3C06H         PUBLIC        _bsp_GetKeyState
  D:00D0H         PUBLIC        PSW
  -------         PROC          ISKEYDOWN1
  C:3C3FH         LINE#         59
  C:3C3FH         LINE#         60
  C:3C42H         LINE#         61
  C:3C45H         LINE#         62
  C:3C45H         LINE#         63
BL51 BANKED LINKER/LOCATER V6.22                                                      12/15/2017  17:13:45  PAGE 32


  C:3C47H         LINE#         64
  C:3C47H         LINE#         65
  -------         ENDPROC       ISKEYDOWN1
  -------         PROC          L?0067
  -------         ENDPROC       L?0067
  -------         PROC          _ISKEYDOWN
  D:0006H         SYMBOL        key_ad
  D:0004H         SYMBOL        result_ad
  C:301DH         LINE#         68
  C:301DH         LINE#         69
  C:3042H         LINE#         70
  C:3061H         LINE#         72
  C:307AH         LINE#         73
  -------         ENDPROC       _ISKEYDOWN
  -------         PROC          ISKEYDOWN2
  C:3B52H         LINE#         76
  C:3B52H         LINE#         77
  C:3B60H         LINE#         78
  -------         ENDPROC       ISKEYDOWN2
  -------         PROC          ISKEYDOWN3
  C:3D06H         LINE#         80
  C:3D06H         LINE#         81
  C:3D0BH         LINE#         82
  -------         ENDPROC       ISKEYDOWN3
  -------         PROC          ISKEYDOWN4
  C:3D0CH         LINE#         84
  C:3D0CH         LINE#         85
  C:3D11H         LINE#         86
  -------         ENDPROC       ISKEYDOWN4
  -------         PROC          ISKEYDOWN5
  C:3BACH         LINE#         88
  C:3BACH         LINE#         90
  C:3BB9H         LINE#         91
  -------         ENDPROC       ISKEYDOWN5
  -------         PROC          ISKEYDOWN6
  C:3B61H         LINE#         93
  C:3B61H         LINE#         94
  C:3B6FH         LINE#         95
  -------         ENDPROC       ISKEYDOWN6
  -------         PROC          ISKEYDOWN7
  C:3B70H         LINE#         97
  C:3B70H         LINE#         98
  C:3B7EH         LINE#         99
  -------         ENDPROC       ISKEYDOWN7
  -------         PROC          ISKEYDOWN8
  C:3B7FH         LINE#         101
  C:3B7FH         LINE#         102
  C:3B8DH         LINE#         103
  -------         ENDPROC       ISKEYDOWN8
  -------         PROC          ISKEYDOWN9
  C:3B8EH         LINE#         105
  C:3B8EH         LINE#         106
  C:3B9CH         LINE#         107
  -------         ENDPROC       ISKEYDOWN9
  -------         PROC          ISKEYDOWN_1AND6
  C:3AC6H         LINE#         109
  C:3AC6H         LINE#         110
BL51 BANKED LINKER/LOCATER V6.22                                                      12/15/2017  17:13:45  PAGE 33


  C:3AD2H         LINE#         111
  C:3AD5H         LINE#         112
  C:3AD5H         LINE#         113
  C:3AD7H         LINE#         114
  C:3AD7H         LINE#         116
  -------         ENDPROC       ISKEYDOWN_1AND6
  -------         PROC          BSP_INITKEY
  C:3D12H         LINE#         125
  C:3D12H         LINE#         126
  C:3D15H         LINE#         127
  -------         ENDPROC       BSP_INITKEY
  -------         PROC          _BSP_PUTKEY
  D:0007H         SYMBOL        _KeyCode
  C:3A79H         LINE#         138
  C:3A79H         LINE#         139
  C:3A81H         LINE#         141
  C:3A8AH         LINE#         142
  C:3A8CH         LINE#         143
  C:3A8CH         LINE#         144
  -------         ENDPROC       _BSP_PUTKEY
  -------         PROC          BSP_GETKEY
  -------         DO            
  D:0007H         SYMBOL        ret
  -------         ENDDO         
  C:393CH         LINE#         154
  C:393CH         LINE#         157
  C:3944H         LINE#         158
  C:3946H         LINE#         159
  C:3946H         LINE#         160
  C:394CH         LINE#         162
  C:3955H         LINE#         163
  C:3957H         LINE#         164
  C:3957H         LINE#         165
  C:3957H         LINE#         166
  C:3957H         LINE#         167
  -------         ENDPROC       BSP_GETKEY
  -------         PROC          BSP_GETKEY2
  -------         DO            
  D:0007H         SYMBOL        ret
  -------         ENDDO         
  C:3958H         LINE#         177
  C:3958H         LINE#         180
  C:3960H         LINE#         181
  C:3962H         LINE#         182
  C:3962H         LINE#         183
  C:3968H         LINE#         185
  C:3971H         LINE#         186
  C:3973H         LINE#         187
  C:3973H         LINE#         188
  C:3973H         LINE#         189
  C:3973H         LINE#         190
  -------         ENDPROC       BSP_GETKEY2
  -------         PROC          _BSP_GETKEYSTATE
  D:0007H         SYMBOL        _ucKeyID
  C:3C06H         LINE#         200
  C:3C06H         LINE#         201
  C:3C10H         LINE#         202
BL51 BANKED LINKER/LOCATER V6.22                                                      12/15/2017  17:13:45  PAGE 34


  -------         ENDPROC       _BSP_GETKEYSTATE
  -------         PROC          _BSP_SETKEYPARAM
  D:0007H         SYMBOL        _ucKeyID
  D:0004H         SYMBOL        _LongTime
  D:0003H         SYMBOL        _RepeatSpeed
  C:384EH         LINE#         214
  C:384EH         LINE#         215
  C:385BH         LINE#         216
  C:3867H         LINE#         217
  C:3871H         LINE#         218
  -------         ENDPROC       _BSP_SETKEYPARAM
  -------         PROC          BSP_CLEARKEY
  C:3D18H         LINE#         228
  C:3D18H         LINE#         229
  C:3D1DH         LINE#         230
  -------         ENDPROC       BSP_CLEARKEY
  -------         PROC          BSP_INITKEYHARD
  C:3C7AH         LINE#         240
  C:3C7AH         LINE#         242
  C:3C7DH         LINE#         243
  C:3C80H         LINE#         245
  -------         ENDPROC       BSP_INITKEYHARD
  -------         PROC          BSP_INITKEYVAR
  -------         DO            
  D:0007H         SYMBOL        i
  -------         ENDDO         
  C:2A9BH         LINE#         255
  C:2A9BH         LINE#         259
  C:2A9FH         LINE#         260
  C:2AA1H         LINE#         261
  C:2AA3H         LINE#         264
  C:2AA4H         LINE#         265
  C:2AB1H         LINE#         266
  C:2ABBH         LINE#         267
  C:2AC5H         LINE#         271
  C:2ACFH         LINE#         272
  C:2AD9H         LINE#         273
  C:2ADEH         LINE#         275
  C:2AE2H         LINE#         276
  C:2AE6H         LINE#         277
  C:2AEAH         LINE#         278
  C:2AEEH         LINE#         281
  C:2AF8H         LINE#         282
  C:2B02H         LINE#         283
  C:2B0CH         LINE#         284
  C:2B16H         LINE#         285
  C:2B20H         LINE#         286
  C:2B2AH         LINE#         287
  C:2B34H         LINE#         288
  C:2B3EH         LINE#         289
  C:2B48H         LINE#         290
  C:2B52H         LINE#         291
  -------         ENDPROC       BSP_INITKEYVAR
  -------         PROC          _BSP_DETECTKEY
  X:0003H         SYMBOL        i
  C:2305H         LINE#         302
  C:230AH         LINE#         303
BL51 BANKED LINKER/LOCATER V6.22                                                      12/15/2017  17:13:45  PAGE 35


  C:231EH         LINE#         304
  C:232AH         LINE#         305
  C:2341H         LINE#         306
  C:2346H         LINE#         307
  C:234FH         LINE#         308
  C:2357H         LINE#         309
  C:2357H         LINE#         310
  C:235FH         LINE#         311
  C:2366H         LINE#         314
  C:2373H         LINE#         315
  C:2373H         LINE#         317
  C:2392H         LINE#         318
  C:239FH         LINE#         320
  C:23B6H         LINE#         322
  C:23C0H         LINE#         323
  C:23C0H         LINE#         324
  C:23C2H         LINE#         325
  C:23D1H         LINE#         326
  C:23DDH         LINE#         327
  C:23E4H         LINE#         329
  C:23F1H         LINE#         330
  C:23F1H         LINE#         331
  C:23F1H         LINE#         332
  C:23F1H         LINE#         333
  C:23F1H         LINE#         334
  C:23F1H         LINE#         335
  C:23F1H         LINE#         336
  C:2408H         LINE#         337
  C:2410H         LINE#         338
  C:2415H         LINE#         339
  C:241DH         LINE#         340
  C:241FH         LINE#         341
  C:2428H         LINE#         342
  C:242FH         LINE#         345
  C:243DH         LINE#         346
  C:243DH         LINE#         347
  C:243DH         LINE#         348
  C:2451H         LINE#         349
  C:2458H         LINE#         350
  C:2458H         LINE#         351
  -------         ENDPROC       _BSP_DETECTKEY
  -------         PROC          BSP_KEYSCAN
  -------         DO            
  X:0002H         SYMBOL        i
  -------         ENDDO         
  C:398FH         LINE#         361
  C:398FH         LINE#         364
  C:399EH         LINE#         365
  C:39A1H         LINE#         366
  C:39A9H         LINE#         367
  -------         ENDPROC       BSP_KEYSCAN
  -------         ENDMOD        BSP_KEY

  -------         MODULE        BSP_DISPLAY
  C:0000H         SYMBOL        _ICE_DUMMY_
  C:3CDCH         PUBLIC        LCD_Show_BAZOOKA_ICO
  D:00B1H         PUBLIC        P0M1
BL51 BANKED LINKER/LOCATER V6.22                                                      12/15/2017  17:13:45  PAGE 36


  D:00B3H         PUBLIC        P1M1
  D:00B2H         PUBLIC        P0M2
  D:0080H         PUBLIC        P0
  D:00B5H         PUBLIC        P2M1
  D:00B4H         PUBLIC        P1M2
  D:0090H         PUBLIC        P1
  D:00B6H         PUBLIC        P2M2
  D:00ACH         PUBLIC        P3M1
  D:00A0H         PUBLIC        P2
  D:00DAH         PUBLIC        P4M1
  D:00B0H         PUBLIC        P3
  D:00ADH         PUBLIC        P3M2
  D:00DCH         PUBLIC        P5M1
  D:00DBH         PUBLIC        P4M2
  D:00DDH         PUBLIC        P5M2
  D:00D8H         PUBLIC        P5
  C:3C96H         PUBLIC        LCD_Show_FM_ICO
  D:00A8H         PUBLIC        IE
  C:3C81H         PUBLIC        LCD_Clear_LED_ICO
  C:3BC8H         PUBLIC        LCD_Clear_All
  D:00B8H         PUBLIC        IP
  C:3CE3H         PUBLIC        LCD_Clear_upColon_ICO
  C:3CB9H         PUBLIC        LCD_Clear_USB_ICO
  C:35EAH         PUBLIC        LCD_display_InitHard
  C:3CABH         PUBLIC        LCD_Clear_AUX_ICO
  C:3CC7H         PUBLIC        LCD_Clear_MHZ_ICO
  C:3CF8H         PUBLIC        LCD_Show_downColon_ICO
  D:00FCH         PUBLIC        LCDDAT
  D:00FAH         PUBLIC        LCDCLK
  D:0098H         PUBLIC        SCON
  D:00F9H         PUBLIC        LCDCON
  D:0088H         PUBLIC        TCON
  C:3C9DH         PUBLIC        LCD_Clear_BLUETooTH_ICO
  C:3D1EH         PUBLIC        LCD_Clear_Colon_ICO
  C:3CD5H         PUBLIC        LCD_Clear_BAZOOKA_ICO
  D:00F8H         PUBLIC        SCON_1
  C:3C88H         PUBLIC        LCD_Show_LED_ICO
  D:00FBH         PUBLIC        LCDPTR
  C:3C8FH         PUBLIC        LCD_Clear_FM_ICO
  C:2C08H         PUBLIC        _LCD_ShowString
  C:28D4H         SYMBOL        _LCD_Clear_mi
  C:0B69H         PUBLIC        _LCD_ShowChar
  C:3CEAH         PUBLIC        LCD_Show_upColon_ICO
  D:00E8H         PUBLIC        ADCCON0
  D:00C0H         PUBLIC        I2CON
  C:3CC0H         PUBLIC        LCD_Show_USB_ICO
  C:3CB2H         PUBLIC        LCD_Show_AUX_ICO
  C:3CCEH         PUBLIC        LCD_Show_MHZ_ICO
  D:00E5H         PUBLIC        LCDSEG0
  D:00E6H         PUBLIC        LCDSEG1
  D:00E7H         PUBLIC        LCDSEG2
  D:00EEH         PUBLIC        LCDSEG3
  D:00C8H         PUBLIC        T2CON
  C:3CA4H         PUBLIC        LCD_Show_BLUETooTH_ICO
  C:3BD5H         PUBLIC        LCD_Clear_mi_all
  C:3D24H         PUBLIC        LCD_Show_Colon_ICO
  C:3CF1H         PUBLIC        LCD_Clear_downColon_ICO
BL51 BANKED LINKER/LOCATER V6.22                                                      12/15/2017  17:13:45  PAGE 37


  D:00D0H         PUBLIC        PSW
  -------         PROC          LCD_DISPLAY_INITHARD
  C:35EAH         LINE#         16
  C:35EAH         LINE#         40
  C:35EDH         LINE#         41
  C:35F0H         LINE#         43
  C:35F2H         LINE#         44
  C:35F5H         LINE#         46
  C:35F7H         LINE#         47
  C:35FAH         LINE#         49
  C:35FCH         LINE#         50
  C:35FFH         LINE#         52
  C:3601H         LINE#         53
  C:3604H         LINE#         55
  C:3606H         LINE#         56
  C:3609H         LINE#         60
  C:360BH         LINE#         62
  C:360EH         LINE#         65
  C:3611H         LINE#         66
  C:3614H         LINE#         67
  C:3617H         LINE#         68
  C:361AH         LINE#         70
  C:361DH         LINE#         72
  -------         ENDPROC       LCD_DISPLAY_INITHARD
  -------         PROC          LCD_CLEAR_ALL
  -------         DO            
  D:0007H         SYMBOL        i
  -------         ENDDO         
  C:3BC8H         LINE#         75
  C:3BC8H         LINE#         77
  C:3BCAH         LINE#         78
  C:3BCCH         LINE#         79
  C:3BCFH         LINE#         80
  C:3BD4H         LINE#         81
  -------         ENDPROC       LCD_CLEAR_ALL
  -------         PROC          LCD_CLEAR_LED_ICO
  C:3C81H         LINE#         83
  C:3C81H         LINE#         84
  C:3C84H         LINE#         85
  C:3C87H         LINE#         86
  -------         ENDPROC       LCD_CLEAR_LED_ICO
  -------         PROC          LCD_SHOW_LED_ICO
  C:3C88H         LINE#         87
  C:3C88H         LINE#         88
  C:3C8BH         LINE#         89
  C:3C8EH         LINE#         90
  -------         ENDPROC       LCD_SHOW_LED_ICO
  -------         PROC          LCD_CLEAR_FM_ICO
  C:3C8FH         LINE#         91
  C:3C8FH         LINE#         92
  C:3C92H         LINE#         93
  C:3C95H         LINE#         94
  -------         ENDPROC       LCD_CLEAR_FM_ICO
  -------         PROC          LCD_SHOW_FM_ICO
  C:3C96H         LINE#         95
  C:3C96H         LINE#         96
  C:3C99H         LINE#         97
BL51 BANKED LINKER/LOCATER V6.22                                                      12/15/2017  17:13:45  PAGE 38


  C:3C9CH         LINE#         98
  -------         ENDPROC       LCD_SHOW_FM_ICO
  -------         PROC          LCD_CLEAR_BLUETOOTH_ICO
  C:3C9DH         LINE#         99
  C:3C9DH         LINE#         100
  C:3CA0H         LINE#         101
  C:3CA3H         LINE#         102
  -------         ENDPROC       LCD_CLEAR_BLUETOOTH_ICO
  -------         PROC          LCD_SHOW_BLUETOOTH_ICO
  C:3CA4H         LINE#         103
  C:3CA4H         LINE#         104
  C:3CA7H         LINE#         105
  C:3CAAH         LINE#         106
  -------         ENDPROC       LCD_SHOW_BLUETOOTH_ICO
  -------         PROC          LCD_CLEAR_AUX_ICO
  C:3CABH         LINE#         107
  C:3CABH         LINE#         108
  C:3CAEH         LINE#         109
  C:3CB1H         LINE#         110
  -------         ENDPROC       LCD_CLEAR_AUX_ICO
  -------         PROC          LCD_SHOW_AUX_ICO
  C:3CB2H         LINE#         111
  C:3CB2H         LINE#         112
  C:3CB5H         LINE#         113
  C:3CB8H         LINE#         114
  -------         ENDPROC       LCD_SHOW_AUX_ICO
  -------         PROC          LCD_CLEAR_USB_ICO
  C:3CB9H         LINE#         115
  C:3CB9H         LINE#         116
  C:3CBCH         LINE#         117
  C:3CBFH         LINE#         118
  -------         ENDPROC       LCD_CLEAR_USB_ICO
  -------         PROC          LCD_SHOW_USB_ICO
  C:3CC0H         LINE#         119
  C:3CC0H         LINE#         120
  C:3CC3H         LINE#         121
  C:3CC6H         LINE#         122
  -------         ENDPROC       LCD_SHOW_USB_ICO
  -------         PROC          LCD_CLEAR_MHZ_ICO
  C:3CC7H         LINE#         123
  C:3CC7H         LINE#         124
  C:3CCAH         LINE#         125
  C:3CCDH         LINE#         126
  -------         ENDPROC       LCD_CLEAR_MHZ_ICO
  -------         PROC          LCD_SHOW_MHZ_ICO
  C:3CCEH         LINE#         127
  C:3CCEH         LINE#         128
  C:3CD1H         LINE#         129
  C:3CD4H         LINE#         130
  -------         ENDPROC       LCD_SHOW_MHZ_ICO
  -------         PROC          LCD_CLEAR_BAZOOKA_ICO
  C:3CD5H         LINE#         131
  C:3CD5H         LINE#         132
  C:3CD8H         LINE#         133
  C:3CDBH         LINE#         134
  -------         ENDPROC       LCD_CLEAR_BAZOOKA_ICO
  -------         PROC          LCD_SHOW_BAZOOKA_ICO
BL51 BANKED LINKER/LOCATER V6.22                                                      12/15/2017  17:13:45  PAGE 39


  C:3CDCH         LINE#         135
  C:3CDCH         LINE#         136
  C:3CDFH         LINE#         137
  C:3CE2H         LINE#         138
  -------         ENDPROC       LCD_SHOW_BAZOOKA_ICO
  -------         PROC          LCD_CLEAR_UPCOLON_ICO
  C:3CE3H         LINE#         144
  C:3CE3H         LINE#         145
  C:3CE6H         LINE#         146
  C:3CE9H         LINE#         147
  -------         ENDPROC       LCD_CLEAR_UPCOLON_ICO
  -------         PROC          LCD_SHOW_UPCOLON_ICO
  C:3CEAH         LINE#         148
  C:3CEAH         LINE#         149
  C:3CEDH         LINE#         150
  C:3CF0H         LINE#         151
  -------         ENDPROC       LCD_SHOW_UPCOLON_ICO
  -------         PROC          LCD_CLEAR_DOWNCOLON_ICO
  C:3CF1H         LINE#         152
  C:3CF1H         LINE#         153
  C:3CF4H         LINE#         154
  C:3CF7H         LINE#         155
  -------         ENDPROC       LCD_CLEAR_DOWNCOLON_ICO
  -------         PROC          LCD_SHOW_DOWNCOLON_ICO
  C:3CF8H         LINE#         156
  C:3CF8H         LINE#         157
  C:3CFBH         LINE#         158
  C:3CFEH         LINE#         159
  -------         ENDPROC       LCD_SHOW_DOWNCOLON_ICO
  -------         PROC          LCD_CLEAR_COLON_ICO
  C:3D1EH         LINE#         160
  C:3D1EH         LINE#         161
  C:3D21H         LINE#         162
  -------         ENDPROC       LCD_CLEAR_COLON_ICO
  -------         PROC          LCD_SHOW_COLON_ICO
  C:3D24H         LINE#         164
  C:3D24H         LINE#         165
  C:3D27H         LINE#         166
  -------         ENDPROC       LCD_SHOW_COLON_ICO
  -------         PROC          _LCD_CLEAR_MI
  D:0007H         SYMBOL        n
  C:28D4H         LINE#         168
  C:28D4H         LINE#         169
  C:28FCH         LINE#         170
  C:28FCH         LINE#         171
  C:28FFH         LINE#         172
  C:2902H         LINE#         174
  C:2905H         LINE#         175
  C:2908H         LINE#         177
  C:290BH         LINE#         178
  C:290EH         LINE#         180
  C:2911H         LINE#         181
  C:2911H         LINE#         182
  C:2914H         LINE#         183
  C:2914H         LINE#         184
  C:2917H         LINE#         185
  C:291AH         LINE#         187
BL51 BANKED LINKER/LOCATER V6.22                                                      12/15/2017  17:13:45  PAGE 40


  C:291DH         LINE#         188
  C:2920H         LINE#         190
  C:2923H         LINE#         191
  C:2926H         LINE#         193
  C:2929H         LINE#         194
  C:2929H         LINE#         195
  C:292CH         LINE#         196
  C:292CH         LINE#         197
  C:292FH         LINE#         198
  C:2932H         LINE#         200
  C:2935H         LINE#         201
  C:2938H         LINE#         203
  C:293BH         LINE#         204
  C:293EH         LINE#         206
  C:2941H         LINE#         207
  C:2941H         LINE#         208
  C:2943H         LINE#         209
  C:2943H         LINE#         210
  C:2946H         LINE#         211
  C:2949H         LINE#         213
  C:294CH         LINE#         214
  C:294FH         LINE#         216
  C:2952H         LINE#         217
  C:2955H         LINE#         219
  C:2958H         LINE#         220
  C:2958H         LINE#         221
  C:295AH         LINE#         222
  C:295AH         LINE#         223
  C:295DH         LINE#         224
  C:2960H         LINE#         226
  C:2963H         LINE#         227
  C:2966H         LINE#         229
  C:2969H         LINE#         230
  C:296CH         LINE#         232
  C:296FH         LINE#         233
  C:296FH         LINE#         234
  C:2971H         LINE#         235
  C:2971H         LINE#         236
  C:2974H         LINE#         237
  C:2977H         LINE#         239
  C:297AH         LINE#         240
  C:297DH         LINE#         242
  C:2980H         LINE#         243
  C:2983H         LINE#         245
  C:2986H         LINE#         246
  C:2986H         LINE#         247
  C:2988H         LINE#         248
  C:2988H         LINE#         249
  C:298BH         LINE#         250
  C:298EH         LINE#         252
  C:2991H         LINE#         253
  C:2994H         LINE#         255
  C:2997H         LINE#         256
  C:299AH         LINE#         258
  C:299DH         LINE#         259
  C:299DH         LINE#         260
  C:299FH         LINE#         261
BL51 BANKED LINKER/LOCATER V6.22                                                      12/15/2017  17:13:45  PAGE 41


  C:299FH         LINE#         262
  C:29A2H         LINE#         263
  C:29A5H         LINE#         265
  C:29A8H         LINE#         266
  C:29ABH         LINE#         268
  C:29AEH         LINE#         269
  C:29B1H         LINE#         271
  C:29B4H         LINE#         272
  C:29B7H         LINE#         273
  C:29B7H         LINE#         274
  C:29B7H         LINE#         275
  -------         ENDPROC       _LCD_CLEAR_MI
  -------         PROC          LCD_CLEAR_MI_ALL
  -------         DO            
  D:0006H         SYMBOL        i
  -------         ENDDO         
  C:3BD5H         LINE#         276
  C:3BD5H         LINE#         277
  C:3BD7H         LINE#         278
  C:3BD7H         LINE#         279
  C:3BDCH         LINE#         280
  C:3BE1H         LINE#         281
  -------         ENDPROC       LCD_CLEAR_MI_ALL
  -------         PROC          _LCD_SHOWCHAR
  D:0007H         SYMBOL        n
  D:0005H         SYMBOL        c
  C:0B69H         LINE#         282
  C:0B69H         LINE#         283
  C:0B72H         LINE#         285
  C:0B72H         LINE#         287
  C:0B7BH         LINE#         288
  C:0B7DH         LINE#         289
  C:0B83H         LINE#         290
  C:0B85H         LINE#         291
  C:0B8BH         LINE#         292
  C:0B8DH         LINE#         293
  C:0B93H         LINE#         294
  C:0B95H         LINE#         295
  C:0B9BH         LINE#         296
  C:0B9DH         LINE#         297
  C:0B9DH         LINE#         298
  C:0C50H         LINE#         299
  C:0C50H         LINE#         300
  C:0C5CH         LINE#         301
  C:0C5FH         LINE#         302
  C:0C62H         LINE#         304
  C:0C68H         LINE#         305
  C:0C6BH         LINE#         306
  C:0C6EH         LINE#         308
  C:0C74H         LINE#         309
  C:0C77H         LINE#         311
  C:0C77H         LINE#         312
  C:0C77H         LINE#         313
  C:0C7AH         LINE#         314
  C:0C7AH         LINE#         315
  C:0C86H         LINE#         316
  C:0C89H         LINE#         318
BL51 BANKED LINKER/LOCATER V6.22                                                      12/15/2017  17:13:45  PAGE 42


  C:0C8FH         LINE#         319
  C:0C92H         LINE#         321
  C:0C98H         LINE#         322
  C:0C9BH         LINE#         324
  C:0C9BH         LINE#         325
  C:0C9BH         LINE#         326
  C:0C9EH         LINE#         327
  C:0C9EH         LINE#         328
  C:0CAAH         LINE#         329
  C:0CADH         LINE#         330
  C:0CB0H         LINE#         332
  C:0CB0H         LINE#         333
  C:0CB0H         LINE#         334
  C:0CB0H         LINE#         336
  C:0CB0H         LINE#         337
  C:0CB0H         LINE#         339
  C:0CB0H         LINE#         340
  C:0CB0H         LINE#         341
  C:0CB3H         LINE#         342
  C:0CB3H         LINE#         343
  C:0CBFH         LINE#         344
  C:0CC2H         LINE#         345
  C:0CC5H         LINE#         347
  C:0CC5H         LINE#         348
  C:0CC5H         LINE#         349
  C:0CC5H         LINE#         351
  C:0CC5H         LINE#         352
  C:0CC5H         LINE#         354
  C:0CC5H         LINE#         355
  C:0CC5H         LINE#         356
  C:0CC8H         LINE#         357
  C:0CC8H         LINE#         358
  C:0CD4H         LINE#         359
  C:0CD7H         LINE#         360
  C:0CDAH         LINE#         362
  C:0CDAH         LINE#         363
  C:0CDAH         LINE#         365
  C:0CDAH         LINE#         366
  C:0CDAH         LINE#         368
  C:0CDAH         LINE#         369
  C:0CDAH         LINE#         370
  C:0CDDH         LINE#         371
  C:0CDDH         LINE#         372
  C:0CE9H         LINE#         373
  C:0CECH         LINE#         374
  C:0CEFH         LINE#         376
  C:0CEFH         LINE#         377
  C:0CEFH         LINE#         378
  C:0CEFH         LINE#         380
  C:0CEFH         LINE#         381
  C:0CEFH         LINE#         383
  C:0CEFH         LINE#         384
  C:0CEFH         LINE#         385
  C:0CF2H         LINE#         386
  C:0CF2H         LINE#         387
  C:0CFEH         LINE#         388
  C:0D01H         LINE#         390
BL51 BANKED LINKER/LOCATER V6.22                                                      12/15/2017  17:13:45  PAGE 43


  C:0D01H         LINE#         391
  C:0D01H         LINE#         392
  C:0D01H         LINE#         394
  C:0D01H         LINE#         395
  C:0D01H         LINE#         397
  C:0D01H         LINE#         398
  C:0D01H         LINE#         399
  C:0D04H         LINE#         400
  C:0D04H         LINE#         401
  C:0D10H         LINE#         402
  C:0D13H         LINE#         404
  C:0D19H         LINE#         405
  C:0D1CH         LINE#         406
  C:0D1FH         LINE#         408
  C:0D25H         LINE#         409
  C:0D28H         LINE#         411
  C:0D28H         LINE#         412
  C:0D28H         LINE#         413
  C:0D2BH         LINE#         414
  C:0D2BH         LINE#         415
  C:0D37H         LINE#         416
  C:0D3AH         LINE#         418
  C:0D3AH         LINE#         419
  C:0D3AH         LINE#         420
  C:0D3AH         LINE#         422
  C:0D3AH         LINE#         423
  C:0D3AH         LINE#         425
  C:0D3AH         LINE#         426
  C:0D3AH         LINE#         427
  C:0D3DH         LINE#         428
  C:0D3DH         LINE#         429
  C:0D49H         LINE#         430
  C:0D4CH         LINE#         431
  C:0D4FH         LINE#         433
  C:0D4FH         LINE#         434
  C:0D4FH         LINE#         435
  C:0D4FH         LINE#         437
  C:0D4FH         LINE#         438
  C:0D4FH         LINE#         440
  C:0D4FH         LINE#         441
  C:0D4FH         LINE#         442
  C:0D52H         LINE#         443
  C:0D52H         LINE#         444
  C:0D55H         LINE#         445
  C:0D55H         LINE#         446
  C:0D55H         LINE#         447
  C:0D61H         LINE#         448
  C:0D64H         LINE#         450
  C:0D64H         LINE#         451
  C:0D64H         LINE#         452
  C:0D64H         LINE#         454
  C:0D64H         LINE#         455
  C:0D64H         LINE#         457
  C:0D64H         LINE#         458
  C:0D64H         LINE#         459
  C:0D67H         LINE#         460
  C:0D67H         LINE#         461
BL51 BANKED LINKER/LOCATER V6.22                                                      12/15/2017  17:13:45  PAGE 44


  C:0D73H         LINE#         462
  C:0D76H         LINE#         464
  C:0D7CH         LINE#         465
  C:0D7FH         LINE#         466
  C:0D82H         LINE#         468
  C:0D88H         LINE#         469
  C:0D8BH         LINE#         471
  C:0D8BH         LINE#         472
  C:0D8BH         LINE#         473
  C:0D8EH         LINE#         474
  C:0D8EH         LINE#         475
  C:0D9AH         LINE#         476
  C:0D9DH         LINE#         477
  C:0DA0H         LINE#         479
  C:0DA6H         LINE#         480
  C:0DA9H         LINE#         481
  C:0DACH         LINE#         483
  C:0DACH         LINE#         484
  C:0DACH         LINE#         486
  C:0DACH         LINE#         487
  C:0DACH         LINE#         488
  C:0DAFH         LINE#         489
  C:0DAFH         LINE#         490
  C:0DBBH         LINE#         491
  C:0DBEH         LINE#         493
  C:0DC4H         LINE#         494
  C:0DC7H         LINE#         495
  C:0DCAH         LINE#         497
  C:0DD0H         LINE#         498
  C:0DD3H         LINE#         500
  C:0DD3H         LINE#         501
  C:0DD3H         LINE#         502
  C:0DD6H         LINE#         503
  C:0DD6H         LINE#         504
  C:0DE2H         LINE#         505
  C:0DE5H         LINE#         507
  C:0DEBH         LINE#         508
  C:0DEEH         LINE#         509
  C:0DF1H         LINE#         511
  C:0DF1H         LINE#         512
  C:0DF1H         LINE#         514
  C:0DF1H         LINE#         515
  C:0DF1H         LINE#         516
  C:0DF4H         LINE#         517
  C:0DF4H         LINE#         518
  C:0E00H         LINE#         519
  C:0E03H         LINE#         521
  C:0E09H         LINE#         522
  C:0E0CH         LINE#         523
  C:0E0FH         LINE#         525
  C:0E15H         LINE#         526
  C:0E18H         LINE#         528
  C:0E18H         LINE#         529
  C:0E18H         LINE#         530
  C:0E1BH         LINE#         531
  C:0E1BH         LINE#         532
  C:0E27H         LINE#         533
BL51 BANKED LINKER/LOCATER V6.22                                                      12/15/2017  17:13:45  PAGE 45


  C:0E2AH         LINE#         534
  C:0E2DH         LINE#         536
  C:0E33H         LINE#         537
  C:0E36H         LINE#         538
  C:0E39H         LINE#         540
  C:0E39H         LINE#         541
  C:0E39H         LINE#         543
  C:0E39H         LINE#         544
  C:0E39H         LINE#         545
  C:0E3CH         LINE#         546
  C:0E3CH         LINE#         547
  C:0E48H         LINE#         548
  C:0E4BH         LINE#         550
  C:0E51H         LINE#         551
  C:0E54H         LINE#         553
  C:0E5AH         LINE#         554
  C:0E5DH         LINE#         556
  C:0E5DH         LINE#         557
  C:0E5DH         LINE#         558
  C:0E60H         LINE#         559
  C:0E60H         LINE#         560
  C:0E6CH         LINE#         561
  C:0E6FH         LINE#         563
  C:0E75H         LINE#         564
  C:0E78H         LINE#         565
  C:0E7BH         LINE#         567
  C:0E81H         LINE#         568
  C:0E84H         LINE#         570
  C:0E84H         LINE#         571
  C:0E84H         LINE#         572
  C:0E87H         LINE#         573
  C:0E87H         LINE#         574
  C:0E93H         LINE#         575
  C:0E96H         LINE#         576
  C:0E99H         LINE#         578
  C:0E9FH         LINE#         579
  C:0EA2H         LINE#         581
  C:0EA8H         LINE#         582
  C:0EABH         LINE#         584
  C:0EABH         LINE#         585
  C:0EABH         LINE#         586
  C:0EAEH         LINE#         587
  C:0EAEH         LINE#         588
  C:0EBAH         LINE#         589
  C:0EBDH         LINE#         591
  C:0EC3H         LINE#         592
  C:0EC6H         LINE#         594
  C:0ECCH         LINE#         595
  C:0ECFH         LINE#         597
  C:0ECFH         LINE#         598
  C:0ECFH         LINE#         599
  C:0ED2H         LINE#         600
  C:0ED2H         LINE#         601
  C:0EDEH         LINE#         602
  C:0EE1H         LINE#         603
  C:0EE4H         LINE#         605
  C:0EEAH         LINE#         606
BL51 BANKED LINKER/LOCATER V6.22                                                      12/15/2017  17:13:45  PAGE 46


  C:0EEDH         LINE#         608
  C:0EF3H         LINE#         609
  C:0EF6H         LINE#         611
  C:0EF6H         LINE#         612
  C:0EF6H         LINE#         613
  C:0EF9H         LINE#         614
  C:0EF9H         LINE#         615
  C:0F05H         LINE#         616
  C:0F08H         LINE#         617
  C:0F0BH         LINE#         619
  C:0F11H         LINE#         620
  C:0F14H         LINE#         621
  C:0F17H         LINE#         623
  C:0F1DH         LINE#         624
  C:0F20H         LINE#         626
  C:0F20H         LINE#         627
  C:0F20H         LINE#         628
  C:0F23H         LINE#         629
  C:0F23H         LINE#         630
  C:0F2FH         LINE#         631
  C:0F32H         LINE#         632
  C:0F35H         LINE#         634
  C:0F3BH         LINE#         635
  C:0F3EH         LINE#         636
  C:0F41H         LINE#         638
  C:0F47H         LINE#         639
  C:0F4AH         LINE#         641
  C:0F4AH         LINE#         642
  C:0F4AH         LINE#         643
  C:0F4DH         LINE#         644
  C:0F4DH         LINE#         645
  C:0F59H         LINE#         646
  C:0F5CH         LINE#         647
  C:0F5FH         LINE#         649
  C:0F65H         LINE#         650
  C:0F68H         LINE#         651
  C:0F6BH         LINE#         653
  C:0F71H         LINE#         654
  C:0F74H         LINE#         656
  C:0F74H         LINE#         657
  C:0F74H         LINE#         658
  C:0F77H         LINE#         659
  C:0F77H         LINE#         660
  C:0F83H         LINE#         661
  C:0F86H         LINE#         663
  C:0F8CH         LINE#         664
  C:0F8FH         LINE#         665
  C:0F92H         LINE#         667
  C:0F98H         LINE#         668
  C:0F9BH         LINE#         670
  C:0F9BH         LINE#         671
  C:0F9BH         LINE#         672
  C:0F9EH         LINE#         673
  C:0F9EH         LINE#         674
  C:0FAAH         LINE#         675
  C:0FADH         LINE#         676
  C:0FB0H         LINE#         678
BL51 BANKED LINKER/LOCATER V6.22                                                      12/15/2017  17:13:45  PAGE 47


  C:0FB6H         LINE#         679
  C:0FB9H         LINE#         680
  C:0FBCH         LINE#         682
  C:0FC2H         LINE#         683
  C:0FC5H         LINE#         685
  C:0FC5H         LINE#         686
  C:0FC5H         LINE#         687
  C:0FC8H         LINE#         688
  C:0FC8H         LINE#         689
  C:0FD4H         LINE#         690
  C:0FD7H         LINE#         692
  C:0FDDH         LINE#         693
  C:0FE0H         LINE#         694
  C:0FE3H         LINE#         696
  C:0FE9H         LINE#         697
  C:0FECH         LINE#         699
  C:0FF2H         LINE#         700
  C:0FF5H         LINE#         701
  C:0FF6H         LINE#         702
  C:0FF6H         LINE#         703
  C:0FF6H         LINE#         704
  C:0FF6H         LINE#         705
  C:1002H         LINE#         706
  C:1005H         LINE#         708
  C:100BH         LINE#         709
  C:100EH         LINE#         710
  C:1011H         LINE#         712
  C:1017H         LINE#         713
  C:101AH         LINE#         715
  C:101AH         LINE#         716
  C:101AH         LINE#         717
  C:101DH         LINE#         718
  C:101DH         LINE#         719
  C:1029H         LINE#         720
  C:102CH         LINE#         721
  C:102FH         LINE#         723
  C:1035H         LINE#         724
  C:1038H         LINE#         726
  C:103EH         LINE#         727
  C:1041H         LINE#         729
  C:1041H         LINE#         730
  C:1041H         LINE#         731
  C:1044H         LINE#         732
  C:1044H         LINE#         733
  C:1050H         LINE#         734
  C:1053H         LINE#         736
  C:1059H         LINE#         737
  C:105CH         LINE#         738
  C:105FH         LINE#         740
  C:1065H         LINE#         741
  C:1068H         LINE#         743
  C:106EH         LINE#         744
  C:1071H         LINE#         745
  C:1072H         LINE#         746
  C:1072H         LINE#         747
  C:107EH         LINE#         748
  C:1081H         LINE#         749
BL51 BANKED LINKER/LOCATER V6.22                                                      12/15/2017  17:13:45  PAGE 48


  C:1084H         LINE#         751
  C:108AH         LINE#         752
  C:108DH         LINE#         754
  C:1093H         LINE#         755
  C:1096H         LINE#         757
  C:1096H         LINE#         758
  C:1096H         LINE#         759
  C:1099H         LINE#         760
  C:1099H         LINE#         761
  C:10A5H         LINE#         762
  C:10A8H         LINE#         764
  C:10AEH         LINE#         765
  C:10B1H         LINE#         766
  C:10B4H         LINE#         768
  C:10B4H         LINE#         769
  C:10B4H         LINE#         771
  C:10B4H         LINE#         772
  C:10B4H         LINE#         773
  C:10B7H         LINE#         774
  C:10B7H         LINE#         775
  C:10C3H         LINE#         776
  C:10C6H         LINE#         777
  C:10C9H         LINE#         779
  C:10CFH         LINE#         780
  C:10D2H         LINE#         782
  C:10D8H         LINE#         783
  C:10DBH         LINE#         785
  C:10DBH         LINE#         786
  C:10DBH         LINE#         787
  C:10DEH         LINE#         788
  C:10DEH         LINE#         789
  C:10EAH         LINE#         790
  C:10EDH         LINE#         791
  C:10F0H         LINE#         793
  C:10F6H         LINE#         794
  C:10F9H         LINE#         795
  C:10FCH         LINE#         797
  C:1102H         LINE#         798
  C:1105H         LINE#         800
  C:1105H         LINE#         801
  C:1105H         LINE#         802
  C:1108H         LINE#         803
  C:1108H         LINE#         804
  C:1114H         LINE#         805
  C:1117H         LINE#         806
  C:111AH         LINE#         808
  C:1120H         LINE#         809
  C:1123H         LINE#         810
  C:1126H         LINE#         812
  C:112CH         LINE#         813
  C:112FH         LINE#         815
  C:112FH         LINE#         816
  C:112FH         LINE#         817
  C:1132H         LINE#         818
  C:1132H         LINE#         819
  C:113EH         LINE#         820
  C:1141H         LINE#         822
BL51 BANKED LINKER/LOCATER V6.22                                                      12/15/2017  17:13:45  PAGE 49


  C:1147H         LINE#         823
  C:114AH         LINE#         825
  C:1150H         LINE#         826
  C:1153H         LINE#         828
  C:1153H         LINE#         829
  C:1153H         LINE#         830
  C:1156H         LINE#         831
  C:1156H         LINE#         832
  C:1162H         LINE#         833
  C:1165H         LINE#         834
  C:1168H         LINE#         836
  C:116EH         LINE#         837
  C:1171H         LINE#         839
  C:1177H         LINE#         840
  C:117AH         LINE#         842
  C:117AH         LINE#         843
  C:117AH         LINE#         844
  C:117DH         LINE#         845
  C:117DH         LINE#         846
  C:1189H         LINE#         847
  C:118CH         LINE#         848
  C:118FH         LINE#         850
  C:1195H         LINE#         851
  C:1198H         LINE#         853
  C:119EH         LINE#         854
  C:11A1H         LINE#         856
  C:11A1H         LINE#         857
  C:11A1H         LINE#         858
  C:11A4H         LINE#         859
  C:11A4H         LINE#         860
  C:11B0H         LINE#         861
  C:11B3H         LINE#         863
  C:11B9H         LINE#         864
  C:11BCH         LINE#         865
  C:11BFH         LINE#         867
  C:11C5H         LINE#         868
  C:11C8H         LINE#         870
  C:11CEH         LINE#         871
  C:11D1H         LINE#         872
  C:11D2H         LINE#         873
  C:11D2H         LINE#         874
  C:11DEH         LINE#         875
  C:11E1H         LINE#         877
  C:11E7H         LINE#         878
  C:11EAH         LINE#         879
  C:11EDH         LINE#         881
  C:11F3H         LINE#         882
  C:11F6H         LINE#         884
  C:11F6H         LINE#         885
  C:11F6H         LINE#         886
  C:11F9H         LINE#         887
  C:11F9H         LINE#         888
  C:11F9H         LINE#         889
  C:11F9H         LINE#         890
  C:1205H         LINE#         891
  C:1208H         LINE#         893
  C:120EH         LINE#         894
BL51 BANKED LINKER/LOCATER V6.22                                                      12/15/2017  17:13:45  PAGE 50


  C:1211H         LINE#         896
  C:1217H         LINE#         897
  C:121AH         LINE#         899
  C:121AH         LINE#         900
  C:121AH         LINE#         901
  C:121DH         LINE#         902
  C:121DH         LINE#         903
  C:1229H         LINE#         904
  C:122CH         LINE#         906
  C:1232H         LINE#         907
  C:1235H         LINE#         909
  C:123BH         LINE#         910
  C:123EH         LINE#         912
  C:123EH         LINE#         913
  C:123EH         LINE#         914
  C:1241H         LINE#         915
  C:1241H         LINE#         916
  C:124DH         LINE#         917
  C:1250H         LINE#         919
  C:1256H         LINE#         920
  C:1259H         LINE#         922
  C:125FH         LINE#         923
  C:1262H         LINE#         925
  C:1268H         LINE#         926
  C:126BH         LINE#         927
  C:126CH         LINE#         928
  C:126CH         LINE#         929
  C:1278H         LINE#         930
  C:127BH         LINE#         932
  C:1281H         LINE#         933
  C:1284H         LINE#         935
  C:128AH         LINE#         936
  C:128DH         LINE#         938
  C:1293H         LINE#         939
  C:1296H         LINE#         940
  C:1297H         LINE#         941
  C:1297H         LINE#         942
  C:1297H         LINE#         943
  C:1297H         LINE#         944
  C:12A3H         LINE#         945
  C:12A6H         LINE#         946
  C:12A9H         LINE#         948
  C:12AFH         LINE#         949
  C:12B2H         LINE#         951
  C:12B8H         LINE#         952
  C:12BBH         LINE#         954
  C:12BBH         LINE#         955
  C:12BBH         LINE#         956
  C:12BDH         LINE#         957
  C:12BDH         LINE#         958
  C:12C9H         LINE#         959
  C:12CCH         LINE#         960
  C:12CFH         LINE#         962
  C:12D5H         LINE#         963
  C:12D8H         LINE#         965
  C:12DEH         LINE#         966
  C:12E1H         LINE#         968
BL51 BANKED LINKER/LOCATER V6.22                                                      12/15/2017  17:13:45  PAGE 51


  C:12E1H         LINE#         969
  C:12E1H         LINE#         970
  C:12E3H         LINE#         971
  C:12E3H         LINE#         972
  C:12EFH         LINE#         973
  C:12F2H         LINE#         974
  C:12F5H         LINE#         976
  C:12FBH         LINE#         977
  C:12FEH         LINE#         979
  C:1304H         LINE#         980
  C:1307H         LINE#         982
  C:130DH         LINE#         983
  C:1310H         LINE#         984
  C:1311H         LINE#         985
  C:1311H         LINE#         986
  C:1311H         LINE#         987
  C:1311H         LINE#         988
  C:131DH         LINE#         989
  C:1320H         LINE#         990
  C:1323H         LINE#         992
  C:1329H         LINE#         993
  C:132CH         LINE#         994
  C:132FH         LINE#         996
  C:1335H         LINE#         997
  C:1338H         LINE#         999
  C:133EH         LINE#         1000
  C:1341H         LINE#         1001
  C:1342H         LINE#         1002
  C:1342H         LINE#         1003
  C:134EH         LINE#         1004
  C:1351H         LINE#         1006
  C:1357H         LINE#         1007
  C:135AH         LINE#         1009
  C:1360H         LINE#         1010
  C:1363H         LINE#         1012
  C:1363H         LINE#         1013
  C:1363H         LINE#         1014
  C:1365H         LINE#         1015
  C:1365H         LINE#         1016
  C:1365H         LINE#         1017
  C:1365H         LINE#         1018
  C:1371H         LINE#         1019
  C:1374H         LINE#         1021
  C:137AH         LINE#         1022
  C:137DH         LINE#         1024
  C:1383H         LINE#         1025
  C:1386H         LINE#         1027
  C:138CH         LINE#         1028
  C:138FH         LINE#         1029
  C:1390H         LINE#         1030
  C:1390H         LINE#         1031
  C:139CH         LINE#         1032
  C:139FH         LINE#         1033
  C:13A2H         LINE#         1035
  C:13A8H         LINE#         1036
  C:13ABH         LINE#         1038
  C:13B1H         LINE#         1039
BL51 BANKED LINKER/LOCATER V6.22                                                      12/15/2017  17:13:45  PAGE 52


  C:13B4H         LINE#         1041
  C:13B4H         LINE#         1042
  C:13B4H         LINE#         1043
  C:13B6H         LINE#         1044
  C:13B6H         LINE#         1045
  C:13C2H         LINE#         1046
  C:13C5H         LINE#         1048
  C:13CBH         LINE#         1049
  C:13CEH         LINE#         1051
  C:13D4H         LINE#         1052
  C:13D7H         LINE#         1054
  C:13DDH         LINE#         1055
  C:13E0H         LINE#         1056
  C:13E1H         LINE#         1057
  C:13E1H         LINE#         1058
  C:13EDH         LINE#         1059
  C:13F0H         LINE#         1060
  C:13F3H         LINE#         1062
  C:13F9H         LINE#         1063
  C:13FCH         LINE#         1065
  C:1402H         LINE#         1066
  C:1405H         LINE#         1068
  C:140BH         LINE#         1069
  C:140EH         LINE#         1070
  C:140FH         LINE#         1071
  C:140FH         LINE#         1072
  C:140FH         LINE#         1073
  C:140FH         LINE#         1074
  C:141BH         LINE#         1075
  C:141EH         LINE#         1077
  C:1424H         LINE#         1078
  C:1427H         LINE#         1079
  C:142AH         LINE#         1081
  C:1430H         LINE#         1082
  C:1433H         LINE#         1084
  C:1433H         LINE#         1085
  C:1433H         LINE#         1086
  C:1435H         LINE#         1087
  C:1435H         LINE#         1088
  C:1441H         LINE#         1089
  C:1444H         LINE#         1091
  C:144AH         LINE#         1092
  C:144DH         LINE#         1093
  C:1450H         LINE#         1095
  C:1456H         LINE#         1096
  C:1459H         LINE#         1098
  C:145FH         LINE#         1099
  C:1462H         LINE#         1100
  C:1462H         LINE#         1102
  C:1462H         LINE#         1103
  -------         ENDPROC       _LCD_SHOWCHAR
  -------         PROC          _LCD_SHOWSTRING
  X:001BH         SYMBOL        s
  -------         DO            
  X:001EH         SYMBOL        i
  D:0007H         SYMBOL        len
  B:0020H.0       SYMBOL        b
BL51 BANKED LINKER/LOCATER V6.22                                                      12/15/2017  17:13:45  PAGE 53


  -------         ENDDO         
  C:2C08H         LINE#         1105
  C:2C13H         LINE#         1106
  C:2C16H         LINE#         1107
  C:2C17H         LINE#         1108
  C:2C19H         LINE#         1110
  C:2C20H         LINE#         1112
  C:2C20H         LINE#         1113
  C:2C2EH         LINE#         1114
  C:2C34H         LINE#         1115
  C:2C39H         LINE#         1116
  C:2C55H         LINE#         1117
  C:2C62H         LINE#         1118
  C:2C62H         LINE#         1119
  C:2C71H         LINE#         1120
  C:2C74H         LINE#         1121
  C:2C8AH         LINE#         1122
  C:2C8AH         LINE#         1123
  C:2C8CH         LINE#         1124
  C:2C8EH         LINE#         1125
  C:2C95H         LINE#         1126
  C:2C95H         LINE#         1127
  C:2C97H         LINE#         1128
  C:2CA1H         LINE#         1129
  C:2CA1H         LINE#         1130
  C:2CA9H         LINE#         1131
  C:2CA9H         LINE#         1133
  -------         ENDPROC       _LCD_SHOWSTRING
  -------         ENDMOD        BSP_DISPLAY

  -------         MODULE        BSP_TIMER0
  C:0000H         SYMBOL        _ICE_DUMMY_
  D:0080H         PUBLIC        P0
  D:0090H         PUBLIC        P1
  D:00A0H         PUBLIC        P2
  D:00B0H         PUBLIC        P3
  C:2ECAH         PUBLIC        Timer0_ISR
  D:00D8H         PUBLIC        P5
  D:00A8H         PUBLIC        IE
  D:00B8H         PUBLIC        IP
  X:0089H         PUBLIC        Task_time
  C:3896H         PUBLIC        Timer0_InitHard
  X:0092H         SYMBOL        u8TH0_tmp
  X:0093H         SYMBOL        u8TL0_tmp
  D:0098H         PUBLIC        SCON
  D:0089H         PUBLIC        TMOD
  D:0088H         PUBLIC        TCON
  C:37B8H         SYMBOL        timer0_ParamInit
  D:00F8H         PUBLIC        SCON_1
  B:00A8H.1       PUBLIC        ET0
  D:008CH         PUBLIC        TH0
  D:008AH         PUBLIC        TL0
  B:0088H.4       PUBLIC        TR0
  D:00E8H         PUBLIC        ADCCON0
  D:00C0H         PUBLIC        I2CON
  D:00C8H         PUBLIC        T2CON
  D:00D0H         PUBLIC        PSW
BL51 BANKED LINKER/LOCATER V6.22                                                      12/15/2017  17:13:45  PAGE 54


  -------         PROC          TIMER0_INITHARD
  C:3896H         LINE#         18
  C:3896H         LINE#         20
  C:3899H         LINE#         22
  C:389CH         LINE#         23
  C:389FH         LINE#         24
  C:38A2H         LINE#         25
  C:38A5H         LINE#         27
  C:38ABH         LINE#         28
  C:38AFH         LINE#         30
  C:38B2H         LINE#         31
  C:38B4H         LINE#         33
  C:38B6H         LINE#         34
  C:38B8H         LINE#         36
  -------         ENDPROC       TIMER0_INITHARD
  -------         PROC          TIMER0_PARAMINIT
  C:37B8H         LINE#         38
  C:37B8H         LINE#         39
  C:37BEH         LINE#         40
  C:37C3H         LINE#         41
  C:37C7H         LINE#         42
  C:37CDH         LINE#         44
  C:37D1H         LINE#         45
  C:37D5H         LINE#         46
  C:37D9H         LINE#         47
  C:37DDH         LINE#         49
  -------         ENDPROC       TIMER0_PARAMINIT
  -------         PROC          TIMER0_ISR
  C:2ECAH         LINE#         51
  C:2EDBH         LINE#         52
  C:2EDBH         LINE#         54
  C:2EE1H         LINE#         55
  C:2EE5H         LINE#         57
  C:2EF0H         LINE#         58
  C:2EF2H         LINE#         59
  C:2EF5H         LINE#         61
  C:2EF5H         LINE#         63
  C:2F00H         LINE#         64
  C:2F02H         LINE#         65
  C:2F05H         LINE#         67
  C:2F05H         LINE#         68
  C:2F10H         LINE#         69
  C:2F12H         LINE#         70
  C:2F15H         LINE#         71
  C:2F15H         LINE#         72
  C:2F2AH         LINE#         73
  C:2F31H         LINE#         74
  C:2F34H         LINE#         76
  C:2F34H         LINE#         78
  -------         ENDPROC       TIMER0_ISR
  -------         ENDMOD        BSP_TIMER0

  -------         MODULE        BSP_ADC
  C:0000H         SYMBOL        _ICE_DUMMY_
  D:00B1H         PUBLIC        P0M1
  D:00B2H         PUBLIC        P0M2
  D:0080H         PUBLIC        P0
BL51 BANKED LINKER/LOCATER V6.22                                                      12/15/2017  17:13:45  PAGE 55


  D:0090H         PUBLIC        P1
  D:00A0H         PUBLIC        P2
  D:00B0H         PUBLIC        P3
  D:00D8H         PUBLIC        P5
  B:00A8H.6       PUBLIC        EADC
  D:00A8H         PUBLIC        IE
  B:00E8H.0       PUBLIC        ADCHS0
  B:00E8H.1       PUBLIC        ADCHS1
  B:00E8H.2       PUBLIC        ADCHS2
  B:00E8H.3       PUBLIC        ADCHS3
  D:00B8H         PUBLIC        IP
  B:00E8H.6       PUBLIC        ADCS
  D:00F6H         PUBLIC        P0DIDS
  D:0098H         PUBLIC        SCON
  D:0088H         PUBLIC        TCON
  C:38B9H         PUBLIC        ADC_Start
  C:3653H         PUBLIC        ADC_Init
  D:00F8H         PUBLIC        SCON_1
  D:00E8H         PUBLIC        ADCCON0
  D:00E1H         PUBLIC        ADCCON1
  D:00C0H         PUBLIC        I2CON
  D:00C8H         PUBLIC        T2CON
  I:0016H         PUBLIC        g_tADC_Result
  D:00D0H         PUBLIC        PSW
  -------         PROC          ADC_INIT
  C:3653H         LINE#         12
  C:3653H         LINE#         13
  C:3657H         LINE#         14
  C:365DH         LINE#         15
  C:3663H         LINE#         24
  C:3666H         LINE#         26
  C:3668H         LINE#         28
  C:366BH         LINE#         29
  C:366EH         LINE#         30
  C:3671H         LINE#         32
  C:3674H         LINE#         33
  C:3677H         LINE#         34
  C:367AH         LINE#         45
  C:367DH         LINE#         46
  C:3680H         LINE#         47
  C:3683H         LINE#         49
  C:3685H         LINE#         51
  -------         ENDPROC       ADC_INIT
  -------         PROC          ADC_START
  C:38B9H         LINE#         53
  C:38B9H         LINE#         54
  C:38BEH         LINE#         55
  C:38C0H         LINE#         56
  C:38C2H         LINE#         57
  C:38C4H         LINE#         58
  C:38C6H         LINE#         59
  C:38C8H         LINE#         60
  C:38C8H         LINE#         61
  C:38C8H         LINE#         62
  C:38C8H         LINE#         63
  C:38C8H         LINE#         64
  C:38CAH         LINE#         65
BL51 BANKED LINKER/LOCATER V6.22                                                      12/15/2017  17:13:45  PAGE 56


  C:38CEH         LINE#         66
  C:38D0H         LINE#         67
  C:38D2H         LINE#         68
  C:38D4H         LINE#         69
  C:38D6H         LINE#         70
  C:38D7H         LINE#         71
  C:38D8H         LINE#         72
  C:38D9H         LINE#         73
  C:38DBH         LINE#         74
  C:38DBH         LINE#         76
  -------         ENDPROC       ADC_START
  -------         ENDMOD        BSP_ADC

  -------         MODULE        BSP_KEYBRIGHT
  C:0000H         SYMBOL        _ICE_DUMMY_
  D:00B1H         PUBLIC        P0M1
  D:00B2H         PUBLIC        P0M2
  D:0080H         PUBLIC        P0
  D:0090H         PUBLIC        P1
  D:00A0H         PUBLIC        P2
  D:00B0H         PUBLIC        P3
  D:00D8H         PUBLIC        P5
  D:00A8H         PUBLIC        IE
  C:3D3AH         PUBLIC        key_bright_toggle
  D:00B8H         PUBLIC        IP
  C:3C48H         PUBLIC        KEY_Bright_InitHard
  D:0098H         PUBLIC        SCON
  B:0080H.5       PUBLIC        P05
  D:0088H         PUBLIC        TCON
  D:00F8H         PUBLIC        SCON_1
  C:3D34H         PUBLIC        key_bright_off
  D:00E8H         PUBLIC        ADCCON0
  D:00C0H         PUBLIC        I2CON
  D:00C8H         PUBLIC        T2CON
  C:3D37H         PUBLIC        key_bright_on
  D:00D0H         PUBLIC        PSW
  -------         PROC          KEY_BRIGHT_INITHARD
  C:3C48H         LINE#         10
  C:3C48H         LINE#         12
  C:3C4BH         LINE#         13
  C:3C4EH         LINE#         15
  -------         ENDPROC       KEY_BRIGHT_INITHARD
  -------         PROC          KEY_BRIGHT_OFF
  C:3D34H         LINE#         18
  C:3D34H         LINE#         19
  C:3D36H         LINE#         20
  -------         ENDPROC       KEY_BRIGHT_OFF
  -------         PROC          KEY_BRIGHT_ON
  C:3D37H         LINE#         21
  C:3D37H         LINE#         22
  C:3D39H         LINE#         23
  -------         ENDPROC       KEY_BRIGHT_ON
  -------         PROC          KEY_BRIGHT_TOGGLE
  C:3D3AH         LINE#         24
  C:3D3AH         LINE#         25
  C:3D3CH         LINE#         26
  -------         ENDPROC       KEY_BRIGHT_TOGGLE
BL51 BANKED LINKER/LOCATER V6.22                                                      12/15/2017  17:13:45  PAGE 57


  -------         ENDMOD        BSP_KEYBRIGHT

  -------         MODULE        BSP_LCDBRIGHT
  C:0000H         SYMBOL        _ICE_DUMMY_
  D:00B1H         PUBLIC        P0M1
  D:00B2H         PUBLIC        P0M2
  D:0080H         PUBLIC        P0
  D:0090H         PUBLIC        P1
  D:00A0H         PUBLIC        P2
  D:00B0H         PUBLIC        P3
  D:00D8H         PUBLIC        P5
  D:00A8H         PUBLIC        IE
  C:3C51H         PUBLIC        LCD_Bright_InitHard
  D:00B8H         PUBLIC        IP
  D:0098H         PUBLIC        SCON
  D:0088H         PUBLIC        TCON
  C:3D3DH         PUBLIC        lcd_bright_off
  B:0080H.6       PUBLIC        P06
  D:00F8H         PUBLIC        SCON_1
  C:3D40H         PUBLIC        lcd_bright_on
  D:00E8H         PUBLIC        ADCCON0
  D:00C0H         PUBLIC        I2CON
  D:00C8H         PUBLIC        T2CON
  D:00D0H         PUBLIC        PSW
  -------         PROC          LCD_BRIGHT_INITHARD
  C:3C51H         LINE#         10
  C:3C51H         LINE#         12
  C:3C54H         LINE#         13
  C:3C57H         LINE#         15
  -------         ENDPROC       LCD_BRIGHT_INITHARD
  -------         PROC          LCD_BRIGHT_OFF
  C:3D3DH         LINE#         18
  C:3D3DH         LINE#         19
  C:3D3FH         LINE#         20
  -------         ENDPROC       LCD_BRIGHT_OFF
  -------         PROC          LCD_BRIGHT_ON
  C:3D40H         LINE#         21
  C:3D40H         LINE#         22
  C:3D42H         LINE#         23
  -------         ENDPROC       LCD_BRIGHT_ON
  -------         ENDMOD        BSP_LCDBRIGHT

  -------         MODULE        BSP_2D4
  C:0000H         SYMBOL        _ICE_DUMMY_
  D:00B1H         PUBLIC        P0M1
  D:00B2H         PUBLIC        P0M2
  D:0080H         PUBLIC        P0
  D:0090H         PUBLIC        P1
  D:00ACH         PUBLIC        P3M1
  D:00A0H         PUBLIC        P2
  D:00B0H         PUBLIC        P3
  D:00ADH         PUBLIC        P3M2
  C:3D45H         PUBLIC        SPI_init
  D:00D8H         PUBLIC        P5
  C:3BFAH         PUBLIC        RF_ClearFIFO
  D:00A8H         PUBLIC        IE
  C:259EH         PUBLIC        RF_Init
BL51 BANKED LINKER/LOCATER V6.22                                                      12/15/2017  17:13:45  PAGE 58


  C:3532H         PUBLIC        _RF_ReadBuf
  C:3A8DH         PUBLIC        Wireless2d4_InitHard
  D:00B8H         PUBLIC        IP
  C:39AAH         PUBLIC        ucSPI_Read
  C:3475H         PUBLIC        _RF_WriteBuf
  C:3AA4H         PUBLIC        _RF_WriteReg
  C:373EH         PUBLIC        _ucRF_DumpRxData
  B:0080H.3       PUBLIC        P03
  B:0080H.4       PUBLIC        P04
  D:0098H         PUBLIC        SCON
  D:0088H         PUBLIC        TCON
  C:3D2AH         PUBLIC        ucRF_GetRSSI
  B:00B0H.4       PUBLIC        P34
  C:34AEH         PUBLIC        _RF_TxData
  C:3872H         SYMBOL        _?ix1000
  C:3877H         SYMBOL        _?ix1001
  C:387AH         SYMBOL        _?ix1002
  C:29B8H         PUBLIC        _RF_Carrier
  D:00F8H         PUBLIC        SCON_1
  C:3880H         SYMBOL        _?ix1003
  X:009BH         PUBLIC        TX_ADDRESS_DEF
  C:3881H         SYMBOL        _?ix1004
  C:3884H         SYMBOL        _?ix1005
  C:3889H         SYMBOL        _?ix1006
  C:388CH         SYMBOL        _?ix1007
  C:3892H         SYMBOL        _?ix1008
  C:37DEH         PUBLIC        RF_RxMode
  C:3893H         SYMBOL        _?ix1009
  C:3B9DH         PUBLIC        RF_TxMode
  D:00E8H         PUBLIC        ADCCON0
  D:00C0H         PUBLIC        I2CON
  C:3BBAH         PUBLIC        _RF_SetChannel
  D:00C8H         PUBLIC        T2CON
  C:3CFFH         PUBLIC        RF_ClearStatus
  C:3AB3H         PUBLIC        _ucRF_ReadReg
  C:3829H         PUBLIC        _SPI_WR
  D:00D0H         PUBLIC        PSW
  C:391DH         PUBLIC        _SPI_WW
  C:3C11H         PUBLIC        ucRF_GetStatus
  -------         PROC          WIRELESS2D4_INITHARD
  C:3A8DH         LINE#         10
  C:3A8DH         LINE#         13
  C:3A90H         LINE#         14
  C:3A93H         LINE#         17
  C:3A96H         LINE#         18
  C:3A99H         LINE#         21
  C:3A9CH         LINE#         22
  C:3A9FH         LINE#         24
  -------         ENDPROC       WIRELESS2D4_INITHARD
  -------         PROC          SPI_INIT
  C:3D45H         LINE#         32
  C:3D45H         LINE#         36
  -------         ENDPROC       SPI_INIT
  -------         PROC          _SPI_WW
  D:0007H         SYMBOL        R_REG
  -------         DO            
  D:0006H         SYMBOL        i
BL51 BANKED LINKER/LOCATER V6.22                                                      12/15/2017  17:13:45  PAGE 59


  -------         ENDDO         
  C:391DH         LINE#         42
  C:391DH         LINE#         44
  C:391FH         LINE#         45
  C:3921H         LINE#         46
  C:3925H         LINE#         47
  C:3927H         LINE#         48
  C:3929H         LINE#         49
  C:392BH         LINE#         50
  C:392BH         LINE#         51
  C:392FH         LINE#         52
  C:3930H         LINE#         53
  C:3932H         LINE#         54
  C:3933H         LINE#         55
  C:3934H         LINE#         56
  C:3939H         LINE#         57
  C:393BH         LINE#         59
  -------         ENDPROC       _SPI_WW
  C:3AA0H         SYMBOL        L?0058
  -------         PROC          L?0057
  -------         ENDPROC       L?0057
  C:3AA0H         SYMBOL        L?0058
  -------         PROC          _RF_WRITEREG
  D:0007H         SYMBOL        reg
  D:0005H         SYMBOL        wdata
  C:3AA4H         LINE#         65
  C:3AA4H         LINE#         66
  C:3AA6H         LINE#         67
  C:3AA7H         LINE#         68
  C:3AAAH         LINE#         69
  C:3AAFH         LINE#         70
  C:3AB0H         LINE#         71
  C:3AB2H         LINE#         72
  -------         ENDPROC       _RF_WRITEREG
  -------         PROC          L?0059
  -------         ENDPROC       L?0059
  -------         PROC          _RF_WRITEBUF
  D:0007H         SYMBOL        reg
  X:0015H         SYMBOL        pBuf
  X:0018H         SYMBOL        length
  -------         DO            
  D:0005H         SYMBOL        j
  -------         ENDDO         
  C:3475H         LINE#         78
  C:3480H         LINE#         80
  C:3482H         LINE#         81
  C:3484H         LINE#         82
  C:3487H         LINE#         83
  C:3491H         LINE#         84
  C:34A8H         LINE#         85
  C:34ABH         LINE#         86
  C:34ABH         LINE#         87
  C:34ADH         LINE#         88
  -------         ENDPROC       _RF_WRITEBUF
  -------         PROC          _SPI_WR
  D:0007H         SYMBOL        R_REG
  -------         DO            
BL51 BANKED LINKER/LOCATER V6.22                                                      12/15/2017  17:13:45  PAGE 60


  D:0006H         SYMBOL        i
  -------         ENDDO         
  C:3829H         LINE#         94
  C:3829H         LINE#         96
  C:382BH         LINE#         97
  C:382DH         LINE#         98
  C:3831H         LINE#         99
  C:3833H         LINE#         100
  C:3835H         LINE#         101
  C:3837H         LINE#         102
  C:3837H         LINE#         103
  C:383BH         LINE#         104
  C:383CH         LINE#         105
  C:383EH         LINE#         106
  C:383FH         LINE#         107
  C:3840H         LINE#         108
  C:3845H         LINE#         109
  C:384BH         LINE#         111
  C:384DH         LINE#         113
  -------         ENDPROC       _SPI_WR
  -------         PROC          UCSPI_READ
  -------         DO            
  D:0006H         SYMBOL        i
  D:0007H         SYMBOL        dt
  -------         ENDDO         
  C:39AAH         LINE#         119
  C:39AAH         LINE#         121
  C:39ACH         LINE#         122
  C:39ADH         LINE#         123
  C:39AFH         LINE#         124
  C:39B3H         LINE#         125
  C:39B4H         LINE#         126
  C:39B6H         LINE#         127
  C:39B9H         LINE#         128
  C:39BCH         LINE#         129
  C:39BCH         LINE#         130
  C:39C1H         LINE#         131
  C:39C3H         LINE#         132
  C:39C3H         LINE#         133
  -------         ENDPROC       UCSPI_READ
  -------         PROC          _UCRF_READREG
  D:0007H         SYMBOL        reg
  -------         DO            
  D:0007H         SYMBOL        dt
  -------         ENDDO         
  C:3AB3H         LINE#         139
  C:3AB3H         LINE#         142
  C:3AB5H         LINE#         143
  C:3AB6H         LINE#         144
  C:3AB9H         LINE#         145
  C:3ABCH         LINE#         146
  C:3AC2H         LINE#         148
  C:3AC3H         LINE#         149
  C:3AC5H         LINE#         151
  C:3AC5H         LINE#         152
  -------         ENDPROC       _UCRF_READREG
  -------         PROC          _RF_READBUF
BL51 BANKED LINKER/LOCATER V6.22                                                      12/15/2017  17:13:45  PAGE 61


  D:0007H         SYMBOL        reg
  X:0004H         SYMBOL        pBuf
  X:0007H         SYMBOL        length
  -------         DO            
  D:0005H         SYMBOL        byte_ctr
  -------         ENDDO         
  C:3532H         LINE#         158
  C:353DH         LINE#         161
  C:353FH         LINE#         162
  C:3542H         LINE#         163
  C:354EH         LINE#         164
  C:3568H         LINE#         165
  C:356EH         LINE#         167
  C:3570H         LINE#         168
  -------         ENDPROC       _RF_READBUF
  -------         PROC          RF_TXMODE
  C:3B9DH         LINE#         174
  C:3B9DH         LINE#         175
  C:3BA0H         LINE#         176
  C:3BA7H         LINE#         178
  C:3BA8H         LINE#         179
  C:3BA9H         LINE#         180
  C:3BAAH         LINE#         181
  C:3BABH         LINE#         182
  -------         ENDPROC       RF_TXMODE
  -------         PROC          RF_RXMODE
  -------         DO            
  D:0006H         SYMBOL        i
  -------         ENDDO         
  C:37DEH         LINE#         188
  C:37DEH         LINE#         189
  C:37E0H         LINE#         190
  C:37E6H         LINE#         191
  C:37EDH         LINE#         192
  C:37F4H         LINE#         194
  C:37F7H         LINE#         195
  C:37F8H         LINE#         196
  C:3803H         LINE#         198
  -------         ENDPROC       RF_RXMODE
  -------         PROC          UCRF_GETSTATUS
  C:3C11H         LINE#         204
  C:3C11H         LINE#         205
  C:3C1AH         LINE#         206
  -------         ENDPROC       UCRF_GETSTATUS
  -------         PROC          UCRF_GETRSSI
  C:3D2AH         LINE#         211
  C:3D2AH         LINE#         212
  C:3D2FH         LINE#         213
  -------         ENDPROC       UCRF_GETRSSI
  -------         PROC          RF_CLEARSTATUS
  C:3CFFH         LINE#         218
  C:3CFFH         LINE#         219
  -------         ENDPROC       RF_CLEARSTATUS
  -------         PROC          RF_CLEARFIFO
  C:3BFAH         LINE#         226
  C:3BFAH         LINE#         227
  C:3C01H         LINE#         228
BL51 BANKED LINKER/LOCATER V6.22                                                      12/15/2017  17:13:45  PAGE 62


  -------         ENDPROC       RF_CLEARFIFO
  -------         PROC          _RF_SETCHANNEL
  D:0004H         SYMBOL        Channel
  C:3BBAH         LINE#         235
  C:3BBCH         LINE#         236
  C:3BBFH         LINE#         237
  -------         ENDPROC       _RF_SETCHANNEL
  -------         PROC          _RF_TXDATA
  D:0001H         SYMBOL        ucPayload
  D:0005H         SYMBOL        length
  -------         DO            
  X:0003H         SYMBOL        i
  -------         ENDDO         
  C:34AEH         LINE#         247
  C:34AEH         LINE#         248
  C:34B4H         LINE#         249
  C:34BAH         LINE#         250
  C:34C4H         LINE#         251
  C:34CBH         LINE#         253
  C:34D2H         LINE#         254
  C:34D3H         LINE#         255
  C:34EDH         LINE#         256
  C:34F0H         LINE#         257
  C:34F0H         LINE#         258
  -------         ENDPROC       _RF_TXDATA
  -------         PROC          _UCRF_DUMPRXDATA
  D:0001H         SYMBOL        ucPayload
  D:0004H         SYMBOL        length
  C:373EH         LINE#         272
  C:3740H         LINE#         273
  C:3747H         LINE#         275
  C:374AH         LINE#         276
  C:3754H         LINE#         277
  C:3757H         LINE#         278
  C:375AH         LINE#         279
  C:3761H         LINE#         280
  C:3764H         LINE#         281
  C:3764H         LINE#         282
  C:3766H         LINE#         283
  -------         ENDPROC       _UCRF_DUMPRXDATA
  -------         PROC          RF_INIT
  -------         DO            
  X:0002H         SYMBOL        BB_cal_data
  X:0007H         SYMBOL        RF_cal_data
  X:000AH         SYMBOL        RF_cal2_data
  X:0010H         SYMBOL        Dem_cal_data
  X:0011H         SYMBOL        Dem_cal2_data
  -------         ENDDO         
  C:259EH         LINE#         293
  C:259EH         LINE#         294
  C:25B1H         LINE#         295
  C:25C4H         LINE#         296
  C:25D7H         LINE#         297
  C:25EAH         LINE#         298
  C:25FDH         LINE#         299
  C:2600H         LINE#         300
  C:2607H         LINE#         301
BL51 BANKED LINKER/LOCATER V6.22                                                      12/15/2017  17:13:45  PAGE 63


  C:260EH         LINE#         303
  C:260EH         LINE#         304
  C:2615H         LINE#         305
  C:2615H         LINE#         306
  C:2615H         LINE#         307
  C:2615H         LINE#         308
  C:2618H         LINE#         309
  C:261DH         LINE#         310
  C:2622H         LINE#         311
  C:2629H         LINE#         312
  C:2630H         LINE#         313
  C:2637H         LINE#         314
  C:263EH         LINE#         315
  C:2645H         LINE#         316
  C:2656H         LINE#         318
  C:2667H         LINE#         320
  C:266EH         LINE#         321
  C:267FH         LINE#         322
  C:2690H         LINE#         323
  C:26A1H         LINE#         324
  C:26B2H         LINE#         325
  C:26B9H         LINE#         326
  C:26C0H         LINE#         332
  C:26C7H         LINE#         333
  -------         ENDPROC       RF_INIT
  -------         PROC          _RF_CARRIER
  X:0043H         SYMBOL        ucChannel_Set
  -------         DO            
  D:0007H         SYMBOL        i
  X:0044H         SYMBOL        BB_cal_data
  X:0049H         SYMBOL        RF_cal_data
  X:004CH         SYMBOL        RF_cal2_data
  X:0052H         SYMBOL        Dem_cal_data
  X:0053H         SYMBOL        Dem_cal2_data
  -------         ENDDO         
  C:29B8H         LINE#         341
  C:29BDH         LINE#         342
  C:29BEH         LINE#         343
  C:29D0H         LINE#         344
  C:29E3H         LINE#         345
  C:29F6H         LINE#         346
  C:2A09H         LINE#         347
  C:2A1CH         LINE#         349
  C:2A23H         LINE#         350
  C:2A2AH         LINE#         351
  C:2A31H         LINE#         352
  C:2A34H         LINE#         354
  C:2A36H         LINE#         355
  C:2A37H         LINE#         356
  C:2A38H         LINE#         357
  C:2A39H         LINE#         358
  C:2A3AH         LINE#         359
  C:2A3FH         LINE#         361
  C:2A49H         LINE#         362
  C:2A50H         LINE#         363
  C:2A57H         LINE#         364
  C:2A68H         LINE#         365
BL51 BANKED LINKER/LOCATER V6.22                                                      12/15/2017  17:13:45  PAGE 64


  C:2A79H         LINE#         366
  C:2A8AH         LINE#         367
  -------         ENDPROC       _RF_CARRIER
  -------         ENDMOD        BSP_2D4

  -------         MODULE        COMMON
  C:0000H         SYMBOL        _ICE_DUMMY_
  D:00B1H         PUBLIC        P0M1
  D:00B3H         PUBLIC        P1M1
  D:00B2H         PUBLIC        P0M2
  D:0080H         PUBLIC        P0
  D:00B5H         PUBLIC        P2M1
  D:00B4H         PUBLIC        P1M2
  D:0090H         PUBLIC        P1
  D:00B6H         PUBLIC        P2M2
  D:00ACH         PUBLIC        P3M1
  D:00A0H         PUBLIC        P2
  D:00DAH         PUBLIC        P4M1
  D:00B0H         PUBLIC        P3
  D:00ADH         PUBLIC        P3M2
  D:00DCH         PUBLIC        P5M1
  D:00DBH         PUBLIC        P4M2
  D:00DDH         PUBLIC        P5M2
  D:00D8H         PUBLIC        P5
  B:00A8H.7       PUBLIC        EA
  C:39C4H         PUBLIC        Set_All_GPIO_Quasi_Mode
  C:3767H         PUBLIC        _InitialUART0_Timer1_Type1
  C:3790H         PUBLIC        _InitialUART0_Timer1_Type2
  C:36EAH         PUBLIC        _InitialUART0_Timer1_Type3
  C:3714H         PUBLIC        _InitialUART0_Timer1_Type4
  D:00A8H         PUBLIC        IE
  D:0096H         PUBLIC        CKSWT
  C:307BH         PUBLIC        _InitialUART0_Timer3_Type5
  C:39DEH         PUBLIC        SW_Reset
  C:30DEH         PUBLIC        _InitialUART0_Timer3_Type6
  C:38FDH         PUBLIC        Set_All_GPIO_Input_Mode
  D:00C7H         PUBLIC        TA
  D:00B8H         PUBLIC        IP
  B:0098H.0       PUBLIC        RI
  C:2459H         PUBLIC        _System_Clock_Select
  B:0098H.1       PUBLIC        TI
  D:0097H         PUBLIC        CKEN
  C:3D30H         PUBLIC        Fsys_Clock_Output_On_P26
  B:00F8H.0       PUBLIC        RI_1
  B:00F8H.1       PUBLIC        TI_1
  D:0099H         PUBLIC        SBUF
  D:0087H         PUBLIC        PCON
  D:0098H         PUBLIC        SCON
  D:0089H         PUBLIC        TMOD
  D:0088H         PUBLIC        TCON
  D:009FH         PUBLIC        CHPCON
  D:009AH         PUBLIC        SBUF_1
  D:00F8H         PUBLIC        SCON_1
  D:00C6H         PUBLIC        R3H
  D:008DH         PUBLIC        TH1
  D:00C5H         PUBLIC        R3L
  C:3201H         PUBLIC        _InitialUART1_Timer3
BL51 BANKED LINKER/LOCATER V6.22                                                      12/15/2017  17:13:45  PAGE 65


  B:0088H.6       PUBLIC        TR1
  D:00E8H         PUBLIC        ADCCON0
  C:3C62H         PUBLIC        _Send_Data_To_UART0
  C:3C72H         PUBLIC        _Send_Data_To_UART1
  D:00C0H         PUBLIC        I2CON
  D:00C8H         PUBLIC        T2CON
  D:00C4H         PUBLIC        T3CON
  C:3C5AH         PUBLIC        Receive_Data_From_UART0
  C:3C6AH         PUBLIC        Receive_Data_From_UART1
  D:008EH         PUBLIC        CKCON
  D:00D0H         PUBLIC        PSW
  C:3571H         PUBLIC        _putchar
  -------         PROC          _SYSTEM_CLOCK_SELECT
  D:0007H         SYMBOL        clock
  C:2459H         LINE#         25
  C:2459H         LINE#         26
  C:2473H         LINE#         27
  C:2473H         LINE#         29
  C:2486H         LINE#         31
  C:2499H         LINE#         35
  C:249EH         LINE#         39
  C:249EH         LINE#         41
  C:249EH         LINE#         43
  C:249EH         LINE#         45
  C:249EH         LINE#         46
  C:24A1H         LINE#         48
  C:24A1H         LINE#         50
  C:24B4H         LINE#         52
  C:24C7H         LINE#         56
  C:24CCH         LINE#         60
  C:24CCH         LINE#         62
  C:24CCH         LINE#         64
  C:24CCH         LINE#         66
  C:24CCH         LINE#         67
  C:24CFH         LINE#         69
  C:24CFH         LINE#         70
  C:24CFH         LINE#         72
  C:24E2H         LINE#         76
  C:24E7H         LINE#         80
  C:24F6H         LINE#         82
  C:24F6H         LINE#         84
  C:24F6H         LINE#         86
  C:24F6H         LINE#         87
  C:24F8H         LINE#         89
  C:24F8H         LINE#         91
  C:250BH         LINE#         95
  C:2510H         LINE#         99
  C:2523H         LINE#         101
  C:2532H         LINE#         103
  C:2532H         LINE#         105
  C:2532H         LINE#         106
  C:2534H         LINE#         108
  C:2534H         LINE#         110
  C:2547H         LINE#         112
  C:255AH         LINE#         116
  C:255FH         LINE#         120
  C:2572H         LINE#         122
BL51 BANKED LINKER/LOCATER V6.22                                                      12/15/2017  17:13:45  PAGE 66


  C:2585H         LINE#         124
  C:2598H         LINE#         126
  C:2598H         LINE#         127
  C:2598H         LINE#         129
  C:2598H         LINE#         131
  C:259DH         LINE#         133
  -------         ENDPROC       _SYSTEM_CLOCK_SELECT
  -------         PROC          _INITIALUART0_TIMER1_TYPE1
  D:0004H         SYMBOL        u32Baudrate
  C:3767H         LINE#         137
  C:3767H         LINE#         138
  C:3767H         LINE#         139
  C:376AH         LINE#         140
  C:376DH         LINE#         142
  C:3770H         LINE#         143
  C:3773H         LINE#         144
  C:3776H         LINE#         147
  C:378DH         LINE#         152
  C:378FH         LINE#         153
  -------         ENDPROC       _INITIALUART0_TIMER1_TYPE1
  -------         PROC          _INITIALUART0_TIMER1_TYPE2
  D:0004H         SYMBOL        u32Baudrate
  C:3790H         LINE#         158
  C:3790H         LINE#         159
  C:3790H         LINE#         160
  C:3793H         LINE#         161
  C:3796H         LINE#         163
  C:3799H         LINE#         164
  C:379CH         LINE#         165
  C:379FH         LINE#         168
  C:37B5H         LINE#         173
  C:37B7H         LINE#         174
  -------         ENDPROC       _INITIALUART0_TIMER1_TYPE2
  -------         PROC          _INITIALUART0_TIMER1_TYPE3
  D:0004H         SYMBOL        u32Baudrate
  C:36EAH         LINE#         179
  C:36EAH         LINE#         180
  C:36EAH         LINE#         181
  C:36EDH         LINE#         182
  C:36F0H         LINE#         184
  C:36F3H         LINE#         185
  C:36F6H         LINE#         186
  C:36F9H         LINE#         189
  C:3711H         LINE#         194
  C:3713H         LINE#         195
  -------         ENDPROC       _INITIALUART0_TIMER1_TYPE3
  -------         PROC          _INITIALUART0_TIMER1_TYPE4
  D:0004H         SYMBOL        u32Baudrate
  C:3714H         LINE#         200
  C:3714H         LINE#         201
  C:3714H         LINE#         202
  C:3717H         LINE#         203
  C:371AH         LINE#         205
  C:371DH         LINE#         206
  C:3720H         LINE#         207
  C:3723H         LINE#         210
  C:373BH         LINE#         215
BL51 BANKED LINKER/LOCATER V6.22                                                      12/15/2017  17:13:45  PAGE 67


  C:373DH         LINE#         216
  -------         ENDPROC       _INITIALUART0_TIMER1_TYPE4
  -------         PROC          _INITIALUART0_TIMER3_TYPE5
  X:00A0H         SYMBOL        u32Baudrate
  C:307BH         LINE#         218
  C:3081H         LINE#         219
  C:3081H         LINE#         220
  C:3084H         LINE#         221
  C:3087H         LINE#         222
  C:308AH         LINE#         223
  C:308DH         LINE#         226
  C:30BBH         LINE#         227
  C:30DAH         LINE#         233
  C:30DDH         LINE#         234
  -------         ENDPROC       _INITIALUART0_TIMER3_TYPE5
  -------         PROC          _INITIALUART0_TIMER3_TYPE6
  X:00A4H         SYMBOL        u32Baudrate
  C:30DEH         LINE#         236
  C:30E4H         LINE#         237
  C:30E4H         LINE#         238
  C:30E7H         LINE#         239
  C:30EAH         LINE#         240
  C:30EDH         LINE#         241
  C:30F0H         LINE#         244
  C:311EH         LINE#         245
  C:313DH         LINE#         251
  C:3140H         LINE#         252
  -------         ENDPROC       _INITIALUART0_TIMER3_TYPE6
  -------         PROC          _INITIALUART1_TIMER3
  X:00A8H         SYMBOL        u32Baudrate
  C:3201H         LINE#         254
  C:3207H         LINE#         255
  C:3207H         LINE#         256
  C:320AH         LINE#         257
  C:320DH         LINE#         260
  C:323BH         LINE#         261
  C:325AH         LINE#         267
  C:325DH         LINE#         268
  -------         ENDPROC       _INITIALUART1_TIMER3
  -------         PROC          RECEIVE_DATA_FROM_UART0
  -------         DO            
  D:0007H         SYMBOL        c
  -------         ENDDO         
  C:3C5AH         LINE#         280
  C:3C5AH         LINE#         283
  C:3C5DH         LINE#         285
  C:3C5FH         LINE#         286
  C:3C61H         LINE#         287
  C:3C61H         LINE#         288
  -------         ENDPROC       RECEIVE_DATA_FROM_UART0
  -------         PROC          _SEND_DATA_TO_UART0
  D:0007H         SYMBOL        c
  C:3C62H         LINE#         300
  C:3C62H         LINE#         301
  C:3C64H         LINE#         302
  C:3C66H         LINE#         303
  C:3C69H         LINE#         305
BL51 BANKED LINKER/LOCATER V6.22                                                      12/15/2017  17:13:45  PAGE 68


  -------         ENDPROC       _SEND_DATA_TO_UART0
  -------         PROC          RECEIVE_DATA_FROM_UART1
  -------         DO            
  D:0007H         SYMBOL        c
  -------         ENDDO         
  C:3C6AH         LINE#         317
  C:3C6AH         LINE#         320
  C:3C6DH         LINE#         322
  C:3C6FH         LINE#         323
  C:3C71H         LINE#         324
  C:3C71H         LINE#         325
  -------         ENDPROC       RECEIVE_DATA_FROM_UART1
  -------         PROC          _SEND_DATA_TO_UART1
  D:0007H         SYMBOL        c
  C:3C72H         LINE#         337
  C:3C72H         LINE#         338
  C:3C74H         LINE#         339
  C:3C76H         LINE#         340
  C:3C79H         LINE#         342
  -------         ENDPROC       _SEND_DATA_TO_UART1
  -------         PROC          SET_ALL_GPIO_QUASI_MODE
  C:39C4H         LINE#         344
  C:39C4H         LINE#         345
  C:39C7H         LINE#         346
  C:39C9H         LINE#         347
  C:39CBH         LINE#         348
  C:39CDH         LINE#         349
  C:39CFH         LINE#         350
  C:39D1H         LINE#         351
  C:39D3H         LINE#         352
  C:39D5H         LINE#         353
  C:39D7H         LINE#         354
  C:39D9H         LINE#         355
  C:39DBH         LINE#         356
  C:39DDH         LINE#         357
  -------         ENDPROC       SET_ALL_GPIO_QUASI_MODE
  -------         PROC          SET_ALL_GPIO_INPUT_MODE
  C:38FDH         LINE#         359
  C:38FDH         LINE#         360
  C:3900H         LINE#         361
  C:3903H         LINE#         362
  C:3906H         LINE#         363
  C:3908H         LINE#         364
  C:390BH         LINE#         365
  C:390DH         LINE#         366
  C:3910H         LINE#         367
  C:3912H         LINE#         368
  C:3915H         LINE#         369
  C:3917H         LINE#         370
  C:391AH         LINE#         371
  C:391CH         LINE#         372
  -------         ENDPROC       SET_ALL_GPIO_INPUT_MODE
  -------         PROC          SW_RESET
  C:39DEH         LINE#         375
  C:39DEH         LINE#         376
  C:39E1H         LINE#         377
  C:39E4H         LINE#         378
BL51 BANKED LINKER/LOCATER V6.22                                                      12/15/2017  17:13:45  PAGE 69


  C:39F7H         LINE#         380
  -------         ENDPROC       SW_RESET
  -------         PROC          FSYS_CLOCK_OUTPUT_ON_P26
  C:3D30H         LINE#         382
  C:3D30H         LINE#         383
  C:3D33H         LINE#         384
  -------         ENDPROC       FSYS_CLOCK_OUTPUT_ON_P26
  -------         PROC          _PUTCHAR
  D:0007H         SYMBOL        c
  C:3571H         LINE#         393
  C:3571H         LINE#         431
  C:3576H         LINE#         432
  C:3579H         LINE#         433
  C:357EH         LINE#         434
  C:357EH         LINE#         435
  C:3580H         LINE#         436
  C:3583H         LINE#         438
  C:3588H         LINE#         439
  C:358AH         LINE#         440
  C:358AH         LINE#         441
  C:358AH         LINE#         442
  C:358DH         LINE#         444
  C:358FH         LINE#         445
  C:3592H         LINE#         446
  C:3592H         LINE#         447
  C:3595H         LINE#         448
  C:359AH         LINE#         449
  C:359AH         LINE#         450
  C:359CH         LINE#         451
  C:359FH         LINE#         453
  C:35A4H         LINE#         454
  C:35A6H         LINE#         455
  C:35A6H         LINE#         456
  C:35A6H         LINE#         457
  C:35A9H         LINE#         459
  C:35ABH         LINE#         460
  C:35ADH         LINE#         462
  -------         ENDPROC       _PUTCHAR
  -------         ENDMOD        COMMON

  -------         MODULE        DELAY
  C:0000H         SYMBOL        _ICE_DUMMY_
  D:0080H         PUBLIC        P0
  D:0090H         PUBLIC        P1
  D:00A0H         PUBLIC        P2
  D:00B0H         PUBLIC        P3
  D:008FH         PUBLIC        WKCON
  D:00D8H         PUBLIC        P5
  D:00A8H         PUBLIC        IE
  D:00B8H         PUBLIC        IP
  C:3315H         PUBLIC        _Timer0_Delay1ms
  C:336EH         PUBLIC        _Timer1_Delay1ms
  C:32BAH         PUBLIC        _Timer3_Delay1ms
  D:0098H         PUBLIC        SCON
  D:0089H         PUBLIC        TMOD
  D:0088H         PUBLIC        TCON
  C:2DC9H         PUBLIC        _?Random_Delay
BL51 BANKED LINKER/LOCATER V6.22                                                      12/15/2017  17:13:45  PAGE 70


  C:38DCH         PUBLIC        _Delay10us
  D:00F8H         PUBLIC        SCON_1
  B:0088H.5       PUBLIC        TF0
  B:0088H.7       PUBLIC        TF1
  D:008CH         PUBLIC        TH0
  D:00C6H         PUBLIC        R3H
  D:008DH         PUBLIC        TH1
  D:008AH         PUBLIC        TL0
  C:3141H         PUBLIC        _WakeUp_Timer_Delay25ms
  D:00C5H         PUBLIC        R3L
  D:008BH         PUBLIC        TL1
  B:0088H.4       PUBLIC        TR0
  B:0088H.6       PUBLIC        TR1
  D:00E8H         PUBLIC        ADCCON0
  D:00C0H         PUBLIC        I2CON
  D:00C8H         PUBLIC        T2CON
  D:00C4H         PUBLIC        T3CON
  D:008EH         PUBLIC        CKCON
  D:0086H         PUBLIC        RWK
  D:00D0H         PUBLIC        PSW
  -------         PROC          _?RANDOM_DELAY
  -------         DO            
  x:0000H         SYMBOL        u32CNT
  x:0004H         SYMBOL        u32Tmp
  -------         ENDDO         
  C:2DC9H         LINE#         36
  C:2DCFH         LINE#         37
  C:2DCFH         LINE#         41
  C:2DFAH         LINE#         42
  C:2DFAH         LINE#         43
  C:2E1FH         LINE#         44
  C:2E46H         LINE#         45
  -------         ENDPROC       _?RANDOM_DELAY
  -------         PROC          _DELAY10US
  D:0006H         SYMBOL        u16CNT
  C:38DCH         LINE#         47
  C:38DCH         LINE#         48
  C:38DFH         LINE#         49
  C:38E2H         LINE#         50
  C:38E4H         LINE#         51
  C:38E8H         LINE#         52
  C:38EBH         LINE#         53
  C:38EEH         LINE#         54
  C:38F1H         LINE#         56
  C:38F3H         LINE#         57
  C:38F8H         LINE#         58
  C:38FAH         LINE#         59
  C:38FCH         LINE#         60
  -------         ENDPROC       _DELAY10US
  -------         PROC          _TIMER0_DELAY1MS
  X:00ACH         SYMBOL        u32CNT
  C:3315H         LINE#         62
  C:331BH         LINE#         63
  C:331EH         LINE#         64
  C:3321H         LINE#         65
  C:3323H         LINE#         66
  C:333CH         LINE#         67
BL51 BANKED LINKER/LOCATER V6.22                                                      12/15/2017  17:13:45  PAGE 71


  C:333FH         LINE#         68
  C:3342H         LINE#         69
  C:3345H         LINE#         71
  C:3347H         LINE#         72
  C:3369H         LINE#         73
  C:336BH         LINE#         74
  C:336DH         LINE#         75
  -------         ENDPROC       _TIMER0_DELAY1MS
  -------         PROC          _TIMER1_DELAY1MS
  X:00B0H         SYMBOL        u32CNT
  C:336EH         LINE#         77
  C:3374H         LINE#         78
  C:3377H         LINE#         79
  C:337AH         LINE#         80
  C:337CH         LINE#         81
  C:3395H         LINE#         82
  C:3398H         LINE#         83
  C:339BH         LINE#         84
  C:339EH         LINE#         86
  C:33A0H         LINE#         87
  C:33C2H         LINE#         88
  C:33C4H         LINE#         89
  C:33C6H         LINE#         90
  -------         ENDPROC       _TIMER1_DELAY1MS
  -------         PROC          _TIMER3_DELAY1MS
  X:00B4H         SYMBOL        u32CNT
  C:32BAH         LINE#         92
  C:32C0H         LINE#         93
  C:32C3H         LINE#         94
  C:32C6H         LINE#         95
  C:32DFH         LINE#         96
  C:32E2H         LINE#         97
  C:32E5H         LINE#         98
  C:32EAH         LINE#         100
  C:32EDH         LINE#         101
  C:330FH         LINE#         102
  C:3311H         LINE#         103
  C:3314H         LINE#         104
  -------         ENDPROC       _TIMER3_DELAY1MS
  -------         PROC          _WAKEUP_TIMER_DELAY25MS
  X:00B8H         SYMBOL        u32CNT
  C:3141H         LINE#         106
  C:3147H         LINE#         107
  C:3147H         LINE#         108
  C:314AH         LINE#         109
  C:314DH         LINE#         110
  C:3150H         LINE#         112
  C:3153H         LINE#         114
  C:3156H         LINE#         115
  C:3159H         LINE#         116
  C:3172H         LINE#         117
  C:3177H         LINE#         119
  C:317AH         LINE#         120
  C:319CH         LINE#         121
  C:319EH         LINE#         122
  C:31A1H         LINE#         123
  -------         ENDPROC       _WAKEUP_TIMER_DELAY25MS
BL51 BANKED LINKER/LOCATER V6.22                                                      12/15/2017  17:13:45  PAGE 72


  -------         ENDMOD        DELAY

  -------         MODULE        VERSION
  C:0000H         SYMBOL        _ICE_DUMMY_
  D:0080H         PUBLIC        P0
  D:0090H         PUBLIC        P1
  D:00A0H         PUBLIC        P2
  D:00B0H         PUBLIC        P3
  D:00D8H         PUBLIC        P5
  D:00A8H         PUBLIC        IE
  D:00B8H         PUBLIC        IP
  D:0098H         PUBLIC        SCON
  D:0088H         PUBLIC        TCON
  D:00F8H         PUBLIC        SCON_1
  C:31A2H         PUBLIC        Show_FW_Version_Number_To_PC
  D:00E8H         PUBLIC        ADCCON0
  D:00C0H         PUBLIC        I2CON
  D:00C8H         PUBLIC        T2CON
  D:00D0H         PUBLIC        PSW
  -------         PROC          SHOW_FW_VERSION_NUMBER_TO_PC
  C:31A2H         LINE#         32
  C:31A2H         LINE#         33
  C:31A2H         LINE#         34
  C:31ABH         LINE#         35
  C:31B4H         LINE#         36
  C:31BDH         LINE#         37
  C:31D7H         LINE#         38
  C:31F8H         LINE#         39
  -------         ENDPROC       SHOW_FW_VERSION_NUMBER_TO_PC
  -------         ENDMOD        VERSION

  -------         MODULE        ?C_STARTUP
  C:2CAAH         SEGMENT       ?C_C51STARTUP
  I:00BEH         SEGMENT       ?STACK
  C:0000H         PUBLIC        ?C_STARTUP
  D:00E0H         SYMBOL        ACC
  D:00F0H         SYMBOL        B
  D:0083H         SYMBOL        DPH
  D:0082H         SYMBOL        DPL
  N:0000H         SYMBOL        IBPSTACK
  N:0100H         SYMBOL        IBPSTACKTOP
  N:0080H         SYMBOL        IDATALEN
  C:2CADH         SYMBOL        IDATALOOP
  N:0000H         SYMBOL        PBPSTACK
  N:0000H         SYMBOL        PBPSTACKTOP
  N:0000H         SYMBOL        PDATALEN
  N:0000H         SYMBOL        PDATASTART
  N:0000H         SYMBOL        PPAGE
  N:0000H         SYMBOL        PPAGEENABLE
  D:00A0H         SYMBOL        PPAGE_SFR
  D:0081H         SYMBOL        SP
  C:2CAAH         SYMBOL        STARTUP1
  N:0000H         SYMBOL        XBPSTACK
  N:0000H         SYMBOL        XBPSTACKTOP
  N:00FFH         SYMBOL        XDATALEN
  C:2CB8H         SYMBOL        XDATALOOP
  N:0000H         SYMBOL        XDATASTART
BL51 BANKED LINKER/LOCATER V6.22                                                      12/15/2017  17:13:45  PAGE 73


  C:0000H         LINE#         92
  C:2CAAH         LINE#         99
  C:2CACH         LINE#         100
  C:2CADH         LINE#         101
  C:2CAEH         LINE#         102
  C:2CB0H         LINE#         106
  C:2CB3H         LINE#         107
  C:2CB5H         LINE#         109
  C:2CB7H         LINE#         113
  C:2CB8H         LINE#         114
  C:2CB9H         LINE#         115
  C:2CBAH         LINE#         116
  C:2CBCH         LINE#         117
  C:2CBEH         LINE#         151
  C:2CC1H         LINE#         155
  -------         ENDMOD        ?C_STARTUP

  -------         MODULE        ?C?COPY
  C:1AE7H         PUBLIC        ?C?COPY
  -------         ENDMOD        ?C?COPY

  -------         MODULE        ?C?CLDPTR
  C:1B0DH         PUBLIC        ?C?CLDPTR
  -------         ENDMOD        ?C?CLDPTR

  -------         MODULE        ?C?CLDOPTR
  C:1B26H         PUBLIC        ?C?CLDOPTR
  -------         ENDMOD        ?C?CLDOPTR

  -------         MODULE        ?C?CILDOPTR
  C:1B53H         PUBLIC        ?C?CILDOPTR
  -------         ENDMOD        ?C?CILDOPTR

  -------         MODULE        ?C?CSTOPTR
  C:1B86H         PUBLIC        ?C?CSTOPTR
  -------         ENDMOD        ?C?CSTOPTR

  -------         MODULE        ?C?IILDX
  C:1BA8H         PUBLIC        ?C?IILDX
  -------         ENDMOD        ?C?IILDX

  -------         MODULE        ?C?ILDOPTR
  C:1BBEH         PUBLIC        ?C?ILDOPTR
  -------         ENDMOD        ?C?ILDOPTR

  -------         MODULE        ?C?IILDOPTR
  C:1BF6H         PUBLIC        ?C?IILDOPTR
  -------         ENDMOD        ?C?IILDOPTR

  -------         MODULE        ?C?ISTOPTR
  C:1C43H         PUBLIC        ?C?ISTOPTR
  -------         ENDMOD        ?C?ISTOPTR

  -------         MODULE        ?C?ULDIV
  C:1CACH         PUBLIC        ?C?ULDIV
  -------         ENDMOD        ?C?ULDIV

BL51 BANKED LINKER/LOCATER V6.22                                                      12/15/2017  17:13:45  PAGE 74


  -------         MODULE        ?C?ULCMP
  C:1D3EH         PUBLIC        ?C?ULCMP
  -------         ENDMOD        ?C?ULCMP

  -------         MODULE        ?C?ULSHR
  C:1D4FH         PUBLIC        ?C?ULSHR
  -------         ENDMOD        ?C?ULSHR

  -------         MODULE        ?C?LSTXDATA
  C:1D62H         PUBLIC        ?C?LSTXDATA
  -------         ENDMOD        ?C?LSTXDATA

  -------         MODULE        ?C?LSTKXDATA
  C:1D6EH         PUBLIC        ?C?LSTKXDATA
  -------         ENDMOD        ?C?LSTKXDATA

  -------         MODULE        ?C?PLDPTR
  C:1D9FH         PUBLIC        ?C?PLDPTR
  -------         ENDMOD        ?C?PLDPTR

  -------         MODULE        ?C?CCASE
  C:1DBFH         PUBLIC        ?C?CCASE
  -------         ENDMOD        ?C?CCASE

  -------         MODULE        ?C?ICALL
  C:1DE5H         PUBLIC        ?C?ICALL
  C:1DE9H         PUBLIC        ?C?ICALL2
  -------         ENDMOD        ?C?ICALL

  -------         MODULE        ?C_XBP
  D:000DH         PUBLIC        ?C_XBP
  -------         ENDMOD        ?C_XBP

  -------         MODULE        ?C?ADDXBP
  C:1DEBH         PUBLIC        ?C?ADDXBP
  -------         ENDMOD        ?C?ADDXBP

  -------         MODULE        ?C?XBPOFF
  C:1E0FH         PUBLIC        ?C?XBPOFF
  -------         ENDMOD        ?C?XBPOFF

  -------         MODULE        PRINTF
  X:001BH         PUBLIC        ?_PRINTF517?BYTE
  X:001BH         PUBLIC        ?_PRINTF?BYTE
  X:001BH         PUBLIC        ?_SPRINTF517?BYTE
  X:001BH         PUBLIC        ?_SPRINTF?BYTE
  C:200BH         PUBLIC        _PRINTF
  C:200BH         PUBLIC        _PRINTF517
  C:2005H         PUBLIC        _SPRINTF
  C:2005H         PUBLIC        _SPRINTF517
  -------         ENDMOD        PRINTF

  -------         MODULE        ?C?STRCPY
  C:1EE8H         PUBLIC        ?C?STRCPY
  -------         ENDMOD        ?C?STRCPY

  -------         MODULE        STRNCPY
BL51 BANKED LINKER/LOCATER V6.22                                                      12/15/2017  17:13:45  PAGE 75


  X:0010H         PUBLIC        ?_strncpy?BYTE
  C:2FACH         PUBLIC        _strncpy
  -------         ENDMOD        STRNCPY

  -------         MODULE        STRLEN
  C:3A3CH         PUBLIC        _STRLEN
  -------         ENDMOD        STRLEN

  -------         MODULE        ?C?MEMSET
  C:1F05H         PUBLIC        ?C?MEMSET
  -------         ENDMOD        ?C?MEMSET

  -------         MODULE        ?C?CSTPTR
  C:1F31H         PUBLIC        ?C?CSTPTR
  -------         ENDMOD        ?C?CSTPTR

  -------         MODULE        ?C?ILDIX
  C:1F43H         PUBLIC        ?C?ILDIX
  -------         ENDMOD        ?C?ILDIX

  -------         MODULE        ?C?PLDIDATA
  C:1F59H         PUBLIC        ?C?PLDIDATA
  -------         ENDMOD        ?C?PLDIDATA

  -------         MODULE        ?C?PLDXDATA
  C:1F62H         PUBLIC        ?C?PLDXDATA
  -------         ENDMOD        ?C?PLDXDATA

  -------         MODULE        ?C?PLDIXDATA
  C:1F6BH         PUBLIC        ?C?PLDIXDATA
  -------         ENDMOD        ?C?PLDIXDATA

  -------         MODULE        ?C?PSTXDATA
  C:1F82H         PUBLIC        ?C?PSTXDATA
  -------         ENDMOD        ?C?PSTXDATA

  -------         MODULE        ?C?PLDPDATA
  C:1F8BH         PUBLIC        ?C?PLDPDATA
  -------         ENDMOD        ?C?PLDPDATA

  -------         MODULE        ?C?PLDCODE
  C:1F94H         PUBLIC        ?C?PLDCODE
  -------         ENDMOD        ?C?PLDCODE

Program Size: data=185.3 xdata=192 code=15686
LINK/LOCATE RUN COMPLETE.  0 WARNING(S),  0 ERROR(S)
